Archive member included to satisfy reference by file (symbol)

c:/program files/microchip/xc32/v4.40/bin/bin/../../lib/gcc/pic32mx/8.3.1/../../../../pic32mx/lib/micromips\libpic32.a(memset.o)
                              build/default/debug/mcc_generated_files/usb/usb_device.o (memset)
c:/program files/microchip/xc32/v4.40/bin/bin/../../lib/gcc/pic32mx/8.3.1/../../../../pic32mx/lib/micromips\libpic32.a(strcpy.o)
                              build/default/debug/User/AppMain.o (strcpy)
c:/program files/microchip/xc32/v4.40/bin/bin/../../lib/gcc/pic32mx/8.3.1/../../../../pic32mx/lib/micromips\libpic32.a(strlen.o)
                              build/default/debug/User/AppMain.o (strlen)
c:/program files/microchip/xc32/v4.40/bin/bin/../../lib/gcc/pic32mx/8.3.1/../../../../pic32mx/lib/micromips\libpic32.a(default-bootstrap-exception-handler.o)
                              C:\Users\ADMIN\AppData\Local\Temp\ccMUuKnQ.o (_bootstrap_exception_handler)
c:/program files/microchip/xc32/v4.40/bin/bin/../../lib/gcc/pic32mx/8.3.1/../../../../pic32mx/lib/micromips\libpic32.a(default-on-reset.o)
                              C:\Users\ADMIN\AppData\Local\Temp\ccMUuKnQ.o (_on_reset)
c:/program files/microchip/xc32/v4.40/bin/bin/../../lib/gcc/pic32mx/8.3.1/../../../../pic32mx/lib/micromips\libpic32.a(default-on-bootstrap.o)
                              C:\Users\ADMIN\AppData\Local\Temp\ccMUuKnQ.o (_on_bootstrap)
c:/program files/microchip/xc32/v4.40/bin/bin/../../lib/gcc/pic32mx/8.3.1/../../../../pic32mx/lib/micromips\libpic32.a(default-nmi-handler.o)
                              C:\Users\ADMIN\AppData\Local\Temp\ccMUuKnQ.o (_nmi_handler)
c:/program files/microchip/xc32/v4.40/bin/bin/../../lib/gcc/pic32mx/8.3.1/../../../../pic32mx/lib/micromips\libpic32.a(pic32_data_init_core.o)
                              C:\Users\ADMIN\AppData\Local\Temp\ccMUuKnQ.o (__pic32_data_init)
c:/program files/microchip/xc32/v4.40/bin/bin/../../lib/gcc/pic32mx/8.3.1/../../../../pic32mx/lib/micromips\libpic32.a(general-exception.o)
                              C:\Users\ADMIN\AppData\Local\Temp\ccMUuKnQ.o (_general_exception_context)
c:/program files/microchip/xc32/v4.40/bin/bin/../../lib/gcc/pic32mx/8.3.1/../../../../pic32mx/lib/micromips\libpic32.a(vector1.o)
                              C:\Users\ADMIN\AppData\Local\Temp\ccUDEFaV.o (__vector_dispatch_1)
c:/program files/microchip/xc32/v4.40/bin/bin/../../lib/gcc/pic32mx/8.3.1/../../../../pic32mx/lib/micromips\libpic32.a(vector2.o)
                              C:\Users\ADMIN\AppData\Local\Temp\ccUDEFaV.o (__vector_dispatch_2)
c:/program files/microchip/xc32/v4.40/bin/bin/../../lib/gcc/pic32mx/8.3.1/../../../../pic32mx/lib/micromips\libpic32.a(vector3.o)
                              C:\Users\ADMIN\AppData\Local\Temp\ccUDEFaV.o (__vector_dispatch_3)
c:/program files/microchip/xc32/v4.40/bin/bin/../../lib/gcc/pic32mx/8.3.1/../../../../pic32mx/lib/micromips\libpic32.a(vector4.o)
                              C:\Users\ADMIN\AppData\Local\Temp\ccUDEFaV.o (__vector_dispatch_4)
c:/program files/microchip/xc32/v4.40/bin/bin/../../lib/gcc/pic32mx/8.3.1/../../../../pic32mx/lib/micromips\libpic32.a(vector5.o)
                              C:\Users\ADMIN\AppData\Local\Temp\ccUDEFaV.o (__vector_dispatch_5)
c:/program files/microchip/xc32/v4.40/bin/bin/../../lib/gcc/pic32mx/8.3.1/../../../../pic32mx/lib/micromips\libpic32.a(vector6.o)
                              C:\Users\ADMIN\AppData\Local\Temp\ccUDEFaV.o (__vector_dispatch_6)
c:/program files/microchip/xc32/v4.40/bin/bin/../../lib/gcc/pic32mx/8.3.1/../../../../pic32mx/lib/micromips\libpic32.a(vector7.o)
                              C:\Users\ADMIN\AppData\Local\Temp\ccUDEFaV.o (__vector_dispatch_7)
c:/program files/microchip/xc32/v4.40/bin/bin/../../lib/gcc/pic32mx/8.3.1/../../../../pic32mx/lib/micromips\libpic32.a(vector11.o)
                              C:\Users\ADMIN\AppData\Local\Temp\ccUDEFaV.o (__vector_dispatch_11)
c:/program files/microchip/xc32/v4.40/bin/bin/../../lib/gcc/pic32mx/8.3.1/../../../../pic32mx/lib/micromips\libpic32.a(vector12.o)
                              C:\Users\ADMIN\AppData\Local\Temp\ccUDEFaV.o (__vector_dispatch_12)
c:/program files/microchip/xc32/v4.40/bin/bin/../../lib/gcc/pic32mx/8.3.1/../../../../pic32mx/lib/micromips\libpic32.a(vector13.o)
                              C:\Users\ADMIN\AppData\Local\Temp\ccUDEFaV.o (__vector_dispatch_13)
c:/program files/microchip/xc32/v4.40/bin/bin/../../lib/gcc/pic32mx/8.3.1/../../../../pic32mx/lib/micromips\libpic32.a(vector14.o)
                              C:\Users\ADMIN\AppData\Local\Temp\ccUDEFaV.o (__vector_dispatch_14)
c:/program files/microchip/xc32/v4.40/bin/bin/../../lib/gcc/pic32mx/8.3.1/../../../../pic32mx/lib/micromips\libpic32.a(vector15.o)
                              C:\Users\ADMIN\AppData\Local\Temp\ccUDEFaV.o (__vector_dispatch_15)
c:/program files/microchip/xc32/v4.40/bin/bin/../../lib/gcc/pic32mx/8.3.1/../../../../pic32mx/lib/micromips\libpic32.a(vector16.o)
                              C:\Users\ADMIN\AppData\Local\Temp\ccUDEFaV.o (__vector_dispatch_16)
c:/program files/microchip/xc32/v4.40/bin/bin/../../lib/gcc/pic32mx/8.3.1/../../../../pic32mx/lib/micromips\libpic32.a(vector17.o)
                              C:\Users\ADMIN\AppData\Local\Temp\ccUDEFaV.o (__vector_dispatch_17)
c:/program files/microchip/xc32/v4.40/bin/bin/../../lib/gcc/pic32mx/8.3.1/../../../../pic32mx/lib/micromips\libpic32.a(vector18.o)
                              C:\Users\ADMIN\AppData\Local\Temp\ccUDEFaV.o (__vector_dispatch_18)
c:/program files/microchip/xc32/v4.40/bin/bin/../../lib/gcc/pic32mx/8.3.1/../../../../pic32mx/lib/micromips\libpic32.a(vector19.o)
                              C:\Users\ADMIN\AppData\Local\Temp\ccUDEFaV.o (__vector_dispatch_19)
c:/program files/microchip/xc32/v4.40/bin/bin/../../lib/gcc/pic32mx/8.3.1/../../../../pic32mx/lib/micromips\libpic32.a(vector20.o)
                              C:\Users\ADMIN\AppData\Local\Temp\ccUDEFaV.o (__vector_dispatch_20)
c:/program files/microchip/xc32/v4.40/bin/bin/../../lib/gcc/pic32mx/8.3.1/../../../../pic32mx/lib/micromips\libpic32.a(vector21.o)
                              C:\Users\ADMIN\AppData\Local\Temp\ccUDEFaV.o (__vector_dispatch_21)
c:/program files/microchip/xc32/v4.40/bin/bin/../../lib/gcc/pic32mx/8.3.1/../../../../pic32mx/lib/micromips\libpic32.a(vector22.o)
                              C:\Users\ADMIN\AppData\Local\Temp\ccUDEFaV.o (__vector_dispatch_22)
c:/program files/microchip/xc32/v4.40/bin/bin/../../lib/gcc/pic32mx/8.3.1/../../../../pic32mx/lib/micromips\libpic32.a(vector23.o)
                              C:\Users\ADMIN\AppData\Local\Temp\ccUDEFaV.o (__vector_dispatch_23)
c:/program files/microchip/xc32/v4.40/bin/bin/../../lib/gcc/pic32mx/8.3.1/../../../../pic32mx/lib/micromips\libpic32.a(vector24.o)
                              C:\Users\ADMIN\AppData\Local\Temp\ccUDEFaV.o (__vector_dispatch_24)
c:/program files/microchip/xc32/v4.40/bin/bin/../../lib/gcc/pic32mx/8.3.1/../../../../pic32mx/lib/micromips\libpic32.a(vector25.o)
                              C:\Users\ADMIN\AppData\Local\Temp\ccUDEFaV.o (__vector_dispatch_25)
c:/program files/microchip/xc32/v4.40/bin/bin/../../lib/gcc/pic32mx/8.3.1/../../../../pic32mx/lib/micromips\libpic32.a(vector26.o)
                              C:\Users\ADMIN\AppData\Local\Temp\ccUDEFaV.o (__vector_dispatch_26)
c:/program files/microchip/xc32/v4.40/bin/bin/../../lib/gcc/pic32mx/8.3.1/../../../../pic32mx/lib/micromips\libpic32.a(vector27.o)
                              C:\Users\ADMIN\AppData\Local\Temp\ccUDEFaV.o (__vector_dispatch_27)
c:/program files/microchip/xc32/v4.40/bin/bin/../../lib/gcc/pic32mx/8.3.1/../../../../pic32mx/lib/micromips\libpic32.a(vector28.o)
                              C:\Users\ADMIN\AppData\Local\Temp\ccUDEFaV.o (__vector_dispatch_28)
c:/program files/microchip/xc32/v4.40/bin/bin/../../lib/gcc/pic32mx/8.3.1/../../../../pic32mx/lib/micromips\libpic32.a(vector30.o)
                              C:\Users\ADMIN\AppData\Local\Temp\ccUDEFaV.o (__vector_dispatch_30)
c:/program files/microchip/xc32/v4.40/bin/bin/../../lib/gcc/pic32mx/8.3.1/../../../../pic32mx/lib/micromips\libpic32.a(vector31.o)
                              C:\Users\ADMIN\AppData\Local\Temp\ccUDEFaV.o (__vector_dispatch_31)
c:/program files/microchip/xc32/v4.40/bin/bin/../../lib/gcc/pic32mx/8.3.1/../../../../pic32mx/lib/micromips\libpic32.a(vector32.o)
                              C:\Users\ADMIN\AppData\Local\Temp\ccUDEFaV.o (__vector_dispatch_32)
c:/program files/microchip/xc32/v4.40/bin/bin/../../lib/gcc/pic32mx/8.3.1/../../../../pic32mx/lib/micromips\libpic32.a(vector33.o)
                              C:\Users\ADMIN\AppData\Local\Temp\ccUDEFaV.o (__vector_dispatch_33)
c:/program files/microchip/xc32/v4.40/bin/bin/../../lib/gcc/pic32mx/8.3.1/../../../../pic32mx/lib/micromips\libpic32.a(vector34.o)
                              C:\Users\ADMIN\AppData\Local\Temp\ccUDEFaV.o (__vector_dispatch_34)
c:/program files/microchip/xc32/v4.40/bin/bin/../../lib/gcc/pic32mx/8.3.1/../../../../pic32mx/lib/micromips\libpic32.a(vector35.o)
                              C:\Users\ADMIN\AppData\Local\Temp\ccUDEFaV.o (__vector_dispatch_35)
c:/program files/microchip/xc32/v4.40/bin/bin/../../lib/gcc/pic32mx/8.3.1/../../../../pic32mx/lib/micromips\libpic32.a(vector36.o)
                              C:\Users\ADMIN\AppData\Local\Temp\ccUDEFaV.o (__vector_dispatch_36)
c:/program files/microchip/xc32/v4.40/bin/bin/../../lib/gcc/pic32mx/8.3.1/../../../../pic32mx/lib/micromips\libpic32.a(vector37.o)
                              C:\Users\ADMIN\AppData\Local\Temp\ccUDEFaV.o (__vector_dispatch_37)
c:/program files/microchip/xc32/v4.40/bin/bin/../../lib/gcc/pic32mx/8.3.1/../../../../pic32mx/lib/micromips\libpic32.a(vector38.o)
                              C:\Users\ADMIN\AppData\Local\Temp\ccUDEFaV.o (__vector_dispatch_38)
c:/program files/microchip/xc32/v4.40/bin/bin/../../lib/gcc/pic32mx/8.3.1/../../../../pic32mx/lib/micromips\libpic32.a(vector39.o)
                              C:\Users\ADMIN\AppData\Local\Temp\ccUDEFaV.o (__vector_dispatch_39)
c:/program files/microchip/xc32/v4.40/bin/bin/../../lib/gcc/pic32mx/8.3.1/../../../../pic32mx/lib/micromips\libpic32.a(vector40.o)
                              C:\Users\ADMIN\AppData\Local\Temp\ccUDEFaV.o (__vector_dispatch_40)
c:/program files/microchip/xc32/v4.40/bin/bin/../../lib/gcc/pic32mx/8.3.1/../../../../pic32mx/lib/micromips\libpic32.a(vector41.o)
                              C:\Users\ADMIN\AppData\Local\Temp\ccUDEFaV.o (__vector_dispatch_41)
c:/program files/microchip/xc32/v4.40/bin/bin/../../lib/gcc/pic32mx/8.3.1/../../../../pic32mx/lib/micromips\libpic32.a(vector42.o)
                              C:\Users\ADMIN\AppData\Local\Temp\ccUDEFaV.o (__vector_dispatch_42)
c:/program files/microchip/xc32/v4.40/bin/bin/../../lib/gcc/pic32mx/8.3.1/../../../../pic32mx/lib/micromips\libpic32.a(vector43.o)
                              C:\Users\ADMIN\AppData\Local\Temp\ccUDEFaV.o (__vector_dispatch_43)
c:/program files/microchip/xc32/v4.40/bin/bin/../../lib/gcc/pic32mx/8.3.1/../../../../pic32mx/lib/micromips\libpic32.a(vector44.o)
                              C:\Users\ADMIN\AppData\Local\Temp\ccUDEFaV.o (__vector_dispatch_44)
c:/program files/microchip/xc32/v4.40/bin/bin/../../lib/gcc/pic32mx/8.3.1/../../../../pic32mx/lib/micromips\libpic32.a(vector45.o)
                              C:\Users\ADMIN\AppData\Local\Temp\ccUDEFaV.o (__vector_dispatch_45)
c:/program files/microchip/xc32/v4.40/bin/bin/../../lib/gcc/pic32mx/8.3.1/../../../../pic32mx/lib/micromips\libpic32.a(vector46.o)
                              C:\Users\ADMIN\AppData\Local\Temp\ccUDEFaV.o (__vector_dispatch_46)
c:/program files/microchip/xc32/v4.40/bin/bin/../../lib/gcc/pic32mx/8.3.1/../../../../pic32mx/lib/micromips\libpic32.a(vector47.o)
                              C:\Users\ADMIN\AppData\Local\Temp\ccUDEFaV.o (__vector_dispatch_47)
c:/program files/microchip/xc32/v4.40/bin/bin/../../lib/gcc/pic32mx/8.3.1/../../../../pic32mx/lib/micromips\libpic32.a(vector48.o)
                              C:\Users\ADMIN\AppData\Local\Temp\ccUDEFaV.o (__vector_dispatch_48)
c:/program files/microchip/xc32/v4.40/bin/bin/../../lib/gcc/pic32mx/8.3.1/../../../../pic32mx/lib/micromips\libpic32.a(vector49.o)
                              C:\Users\ADMIN\AppData\Local\Temp\ccUDEFaV.o (__vector_dispatch_49)
c:/program files/microchip/xc32/v4.40/bin/bin/../../lib/gcc/pic32mx/8.3.1/../../../../pic32mx/lib/micromips\libpic32.a(vector50.o)
                              C:\Users\ADMIN\AppData\Local\Temp\ccUDEFaV.o (__vector_dispatch_50)
c:/program files/microchip/xc32/v4.40/bin/bin/../../lib/gcc/pic32mx/8.3.1/../../../../pic32mx/lib/micromips\libpic32.a(vector51.o)
                              C:\Users\ADMIN\AppData\Local\Temp\ccUDEFaV.o (__vector_dispatch_51)
c:/program files/microchip/xc32/v4.40/bin/bin/../../lib/gcc/pic32mx/8.3.1/../../../../pic32mx/lib/micromips\libpic32.a(vector52.o)
                              C:\Users\ADMIN\AppData\Local\Temp\ccUDEFaV.o (__vector_dispatch_52)
c:/program files/microchip/xc32/v4.40/bin/bin/../../lib/gcc/pic32mx/8.3.1/../../../../pic32mx/lib/micromips\libpic32.a(vector53.o)
                              C:\Users\ADMIN\AppData\Local\Temp\ccUDEFaV.o (__vector_dispatch_53)
c:/program files/microchip/xc32/v4.40/bin/bin/../../lib/gcc/pic32mx/8.3.1/../../../../pic32mx/lib/micromips\libpic32.a(vector54.o)
                              C:\Users\ADMIN\AppData\Local\Temp\ccUDEFaV.o (__vector_dispatch_54)
c:/program files/microchip/xc32/v4.40/bin/bin/../../lib/gcc/pic32mx/8.3.1/../../../../pic32mx/lib/micromips\libpic32.a(vector55.o)
                              C:\Users\ADMIN\AppData\Local\Temp\ccUDEFaV.o (__vector_dispatch_55)
c:/program files/microchip/xc32/v4.40/bin/bin/../../lib/gcc/pic32mx/8.3.1/../../../../pic32mx/lib/micromips\libpic32.a(vector62.o)
                              C:\Users\ADMIN\AppData\Local\Temp\ccUDEFaV.o (__vector_dispatch_62)
c:/program files/microchip/xc32/v4.40/bin/bin/../../lib/gcc/pic32mx/8.3.1/../../../../pic32mx/lib/micromips\libpic32.a(vector63.o)
                              C:\Users\ADMIN\AppData\Local\Temp\ccUDEFaV.o (__vector_dispatch_63)
c:/program files/microchip/xc32/v4.40/bin/bin/../../lib/gcc/pic32mx/8.3.1/../../../../pic32mx/lib/micromips\libpic32.a(vector64.o)
                              C:\Users\ADMIN\AppData\Local\Temp\ccUDEFaV.o (__vector_dispatch_64)
c:/program files/microchip/xc32/v4.40/bin/bin/../../lib/gcc/pic32mx/8.3.1/../../../../pic32mx/lib/micromips\libpic32.a(vector68.o)
                              C:\Users\ADMIN\AppData\Local\Temp\ccUDEFaV.o (__vector_dispatch_68)
c:/program files/microchip/xc32/v4.40/bin/bin/../../lib/gcc/pic32mx/8.3.1/../../../../pic32mx/lib/micromips\libpic32.a(vector69.o)
                              C:\Users\ADMIN\AppData\Local\Temp\ccUDEFaV.o (__vector_dispatch_69)
c:/program files/microchip/xc32/v4.40/bin/bin/../../lib/gcc/pic32mx/8.3.1/../../../../pic32mx/lib/micromips\libpic32.a(vector70.o)
                              C:\Users\ADMIN\AppData\Local\Temp\ccUDEFaV.o (__vector_dispatch_70)
c:/program files/microchip/xc32/v4.40/bin/bin/../../lib/gcc/pic32mx/8.3.1/../../../../pic32mx/lib/micromips\libpic32.a(vector71.o)
                              C:\Users\ADMIN\AppData\Local\Temp\ccUDEFaV.o (__vector_dispatch_71)
c:/program files/microchip/xc32/v4.40/bin/bin/../../lib/gcc/pic32mx/8.3.1/../../../../pic32mx/lib/micromips\libpic32.a(vector72.o)
                              C:\Users\ADMIN\AppData\Local\Temp\ccUDEFaV.o (__vector_dispatch_72)
c:/program files/microchip/xc32/v4.40/bin/bin/../../lib/gcc/pic32mx/8.3.1/../../../../pic32mx/lib/micromips\libpic32.a(vector73.o)
                              C:\Users\ADMIN\AppData\Local\Temp\ccUDEFaV.o (__vector_dispatch_73)
c:/program files/microchip/xc32/v4.40/bin/bin/../../lib/gcc/pic32mx/8.3.1/../../../../pic32mx/lib/micromips\libpic32.a(vector74.o)
                              C:\Users\ADMIN\AppData\Local\Temp\ccUDEFaV.o (__vector_dispatch_74)
c:/program files/microchip/xc32/v4.40/bin/bin/../../lib/gcc/pic32mx/8.3.1/../../../../pic32mx/lib/micromips\libpic32.a(vector75.o)
                              C:\Users\ADMIN\AppData\Local\Temp\ccUDEFaV.o (__vector_dispatch_75)
c:/program files/microchip/xc32/v4.40/bin/bin/../../lib/gcc/pic32mx/8.3.1/../../../../pic32mx/lib/micromips\libpic32.a(vector76.o)
                              C:\Users\ADMIN\AppData\Local\Temp\ccUDEFaV.o (__vector_dispatch_76)
c:/program files/microchip/xc32/v4.40/bin/bin/../../lib/gcc/pic32mx/8.3.1/../../../../pic32mx/lib/micromips\libpic32.a(vector77.o)
                              C:\Users\ADMIN\AppData\Local\Temp\ccUDEFaV.o (__vector_dispatch_77)
c:/program files/microchip/xc32/v4.40/bin/bin/../../lib/gcc/pic32mx/8.3.1/../../../../pic32mx/lib/micromips\libpic32.a(vector78.o)
                              C:\Users\ADMIN\AppData\Local\Temp\ccUDEFaV.o (__vector_dispatch_78)
c:/program files/microchip/xc32/v4.40/bin/bin/../../lib/gcc/pic32mx/8.3.1/../../../../pic32mx/lib/micromips\libpic32.a(vector79.o)
                              C:\Users\ADMIN\AppData\Local\Temp\ccUDEFaV.o (__vector_dispatch_79)
c:/program files/microchip/xc32/v4.40/bin/bin/../../lib/gcc/pic32mx/8.3.1/../../../../pic32mx/lib/micromips\libpic32.a(vector80.o)
                              C:\Users\ADMIN\AppData\Local\Temp\ccUDEFaV.o (__vector_dispatch_80)
c:/program files/microchip/xc32/v4.40/bin/bin/../../lib/gcc/pic32mx/8.3.1/../../../../pic32mx/lib/micromips\libpic32.a(vector81.o)
                              C:\Users\ADMIN\AppData\Local\Temp\ccUDEFaV.o (__vector_dispatch_81)
c:/program files/microchip/xc32/v4.40/bin/bin/../../lib/gcc/pic32mx/8.3.1/../../../../pic32mx/lib/micromips\libpic32.a(vector82.o)
                              C:\Users\ADMIN\AppData\Local\Temp\ccUDEFaV.o (__vector_dispatch_82)
c:/program files/microchip/xc32/v4.40/bin/bin/../../lib/gcc/pic32mx/8.3.1/../../../../pic32mx/lib/micromips\libpic32.a(vector83.o)
                              C:\Users\ADMIN\AppData\Local\Temp\ccUDEFaV.o (__vector_dispatch_83)
c:/program files/microchip/xc32/v4.40/bin/bin/../../lib/gcc/pic32mx/8.3.1/../../../../pic32mx/lib/micromips\libpic32.a(vector84.o)
                              C:\Users\ADMIN\AppData\Local\Temp\ccUDEFaV.o (__vector_dispatch_84)
c:/program files/microchip/xc32/v4.40/bin/bin/../../lib/gcc/pic32mx/8.3.1/../../../../pic32mx/lib/micromips\libpic32.a(vector85.o)
                              C:\Users\ADMIN\AppData\Local\Temp\ccUDEFaV.o (__vector_dispatch_85)
c:/program files/microchip/xc32/v4.40/bin/bin/../../lib/gcc/pic32mx/8.3.1/../../../../pic32mx/lib/micromips\libpic32.a(vector86.o)
                              C:\Users\ADMIN\AppData\Local\Temp\ccUDEFaV.o (__vector_dispatch_86)
c:/program files/microchip/xc32/v4.40/bin/bin/../../lib/gcc/pic32mx/8.3.1/../../../../pic32mx/lib/micromips\libpic32.a(vector87.o)
                              C:\Users\ADMIN\AppData\Local\Temp\ccUDEFaV.o (__vector_dispatch_87)
c:/program files/microchip/xc32/v4.40/bin/bin/../../lib/gcc/pic32mx/8.3.1/../../../../pic32mx/lib/micromips\libpic32.a(vector88.o)
                              C:\Users\ADMIN\AppData\Local\Temp\ccUDEFaV.o (__vector_dispatch_88)
c:/program files/microchip/xc32/v4.40/bin/bin/../../lib/gcc/pic32mx/8.3.1/../../../../pic32mx/lib/micromips\libpic32.a(vector89.o)
                              C:\Users\ADMIN\AppData\Local\Temp\ccUDEFaV.o (__vector_dispatch_89)
c:/program files/microchip/xc32/v4.40/bin/bin/../../lib/gcc/pic32mx/8.3.1/../../../../pic32mx/lib/micromips\libpic32.a(vector90.o)
                              C:\Users\ADMIN\AppData\Local\Temp\ccUDEFaV.o (__vector_dispatch_90)
c:/program files/microchip/xc32/v4.40/bin/bin/../../lib/gcc/pic32mx/8.3.1/../../../../pic32mx/lib/micromips\libpic32.a(vector91.o)
                              C:\Users\ADMIN\AppData\Local\Temp\ccUDEFaV.o (__vector_dispatch_91)
c:/program files/microchip/xc32/v4.40/bin/bin/../../lib/gcc/pic32mx/8.3.1/../../../../pic32mx/lib/micromips\libpic32.a(vector92.o)
                              C:\Users\ADMIN\AppData\Local\Temp\ccUDEFaV.o (__vector_dispatch_92)
c:/program files/microchip/xc32/v4.40/bin/bin/../../lib/gcc/pic32mx/8.3.1/../../../../pic32mx/lib/micromips\libpic32.a(vector93.o)
                              C:\Users\ADMIN\AppData\Local\Temp\ccUDEFaV.o (__vector_dispatch_93)
c:/program files/microchip/xc32/v4.40/bin/bin/../../lib/gcc/pic32mx/8.3.1/../../../../pic32mx/lib/micromips\libpic32.a(vector94.o)
                              C:\Users\ADMIN\AppData\Local\Temp\ccUDEFaV.o (__vector_dispatch_94)
c:/program files/microchip/xc32/v4.40/bin/bin/../../lib/gcc/pic32mx/8.3.1/../../../../pic32mx/lib/micromips\libpic32.a(vector95.o)
                              C:\Users\ADMIN\AppData\Local\Temp\ccUDEFaV.o (__vector_dispatch_95)
c:/program files/microchip/xc32/v4.40/bin/bin/../../lib/gcc/pic32mx/8.3.1/../../../../pic32mx/lib/micromips\libpic32.a(vector96.o)
                              C:\Users\ADMIN\AppData\Local\Temp\ccUDEFaV.o (__vector_dispatch_96)
c:/program files/microchip/xc32/v4.40/bin/bin/../../lib/gcc/pic32mx/8.3.1/../../../../pic32mx/lib/micromips\libpic32.a(vector97.o)
                              C:\Users\ADMIN\AppData\Local\Temp\ccUDEFaV.o (__vector_dispatch_97)
c:/program files/microchip/xc32/v4.40/bin/bin/../../lib/gcc/pic32mx/8.3.1/../../../../pic32mx/lib/micromips\libpic32.a(vector98.o)
                              C:\Users\ADMIN\AppData\Local\Temp\ccUDEFaV.o (__vector_dispatch_98)
c:/program files/microchip/xc32/v4.40/bin/bin/../../lib/gcc/pic32mx/8.3.1/../../../../pic32mx/lib/micromips\libpic32.a(vector99.o)
                              C:\Users\ADMIN\AppData\Local\Temp\ccUDEFaV.o (__vector_dispatch_99)
c:/program files/microchip/xc32/v4.40/bin/bin/../../lib/gcc/pic32mx/8.3.1/../../../../pic32mx/lib/micromips\libpic32.a(vector100.o)
                              C:\Users\ADMIN\AppData\Local\Temp\ccUDEFaV.o (__vector_dispatch_100)
c:/program files/microchip/xc32/v4.40/bin/bin/../../lib/gcc/pic32mx/8.3.1/../../../../pic32mx/lib/micromips\libpic32.a(vector101.o)
                              C:\Users\ADMIN\AppData\Local\Temp\ccUDEFaV.o (__vector_dispatch_101)
c:/program files/microchip/xc32/v4.40/bin/bin/../../lib/gcc/pic32mx/8.3.1/../../../../pic32mx/lib/micromips\libpic32.a(defaultinterrupt.o)
                              c:/program files/microchip/xc32/v4.40/bin/bin/../../lib/gcc/pic32mx/8.3.1/../../../../pic32mx/lib/micromips\libpic32.a(vector1.o) (_DefaultInterrupt)
c:/program files/microchip/xc32/v4.40/bin/bin/../../lib/gcc/pic32mx/8.3.1/../../../../pic32mx/lib/micromips\libc-musl.a(rand.o)
                              build/default/debug/_ext/1124510853/Utils.o (rand)
c:/program files/microchip/xc32/v4.40/bin/bin/../../lib/gcc/pic32mx/8.3.1/../../../../pic32mx/lib/micromips\libc-musl.a(__sio_printf_cdnpsxX.o)
                              (_printf_cdnpsxX)
c:/program files/microchip/xc32/v4.40/bin/bin/../../lib/gcc/pic32mx/8.3.1/../../../../pic32mx/lib/micromips\libc-musl.a(__fmt_d.o)
                              c:/program files/microchip/xc32/v4.40/bin/bin/../../lib/gcc/pic32mx/8.3.1/../../../../pic32mx/lib/micromips\libc-musl.a(__sio_printf_cdnpsxX.o) (__fmt_d_needed)
c:/program files/microchip/xc32/v4.40/bin/bin/../../lib/gcc/pic32mx/8.3.1/../../../../pic32mx/lib/micromips\libc-musl.a(__fmt_s.o)
                              c:/program files/microchip/xc32/v4.40/bin/bin/../../lib/gcc/pic32mx/8.3.1/../../../../pic32mx/lib/micromips\libc-musl.a(__sio_printf_cdnpsxX.o) (__fmt_s_needed)
c:/program files/microchip/xc32/v4.40/bin/bin/../../lib/gcc/pic32mx/8.3.1/../../../../pic32mx/lib/micromips\libc-musl.a(__fmt_x.o)
                              c:/program files/microchip/xc32/v4.40/bin/bin/../../lib/gcc/pic32mx/8.3.1/../../../../pic32mx/lib/micromips\libc-musl.a(__sio_printf_cdnpsxX.o) (__fmt_x_needed)
c:/program files/microchip/xc32/v4.40/bin/bin/../../lib/gcc/pic32mx/8.3.1/../../../../pic32mx/lib/micromips\libc-musl.a(__pop_int.o)
                              c:/program files/microchip/xc32/v4.40/bin/bin/../../lib/gcc/pic32mx/8.3.1/../../../../pic32mx/lib/micromips\libc-musl.a(__sio_printf_cdnpsxX.o) (__pop_int_needed)
c:/program files/microchip/xc32/v4.40/bin/bin/../../lib/gcc/pic32mx/8.3.1/../../../../pic32mx/lib/micromips\libc-musl.a(__pop_ptr.o)
                              c:/program files/microchip/xc32/v4.40/bin/bin/../../lib/gcc/pic32mx/8.3.1/../../../../pic32mx/lib/micromips\libc-musl.a(__sio_printf_cdnpsxX.o) (__pop_ptr_needed)
c:/program files/microchip/xc32/v4.40/bin/bin/../../lib/gcc/pic32mx/8.3.1/../../../../pic32mx/lib/micromips\libc-musl.a(__printf_core.o)
                              c:/program files/microchip/xc32/v4.40/bin/bin/../../lib/gcc/pic32mx/8.3.1/../../../../pic32mx/lib/micromips\libc-musl.a(__fmt_d.o) (__pad)
c:/program files/microchip/xc32/v4.40/bin/bin/../../lib/gcc/pic32mx/8.3.1/../../../../pic32mx/lib/micromips\libc-musl.a(stdout.o)
                              c:/program files/microchip/xc32/v4.40/bin/bin/../../lib/gcc/pic32mx/8.3.1/../../../../pic32mx/lib/micromips\libc-musl.a(__sio_printf_cdnpsxX.o) (_stdout)
c:/program files/microchip/xc32/v4.40/bin/bin/../../lib/gcc/pic32mx/8.3.1/../../../../pic32mx/lib/micromips\libc-musl.a(putchar.o)
                              build/default/debug/flashfunc.o (putchar)
c:/program files/microchip/xc32/v4.40/bin/bin/../../lib/gcc/pic32mx/8.3.1/../../../../pic32mx/lib/micromips\libc-musl.a(atoi.o)
                              c:/program files/microchip/xc32/v4.40/bin/bin/../../lib/gcc/pic32mx/8.3.1/../../../../pic32mx/lib/micromips\libc-musl.a(__printf_core.o) (atoi)
c:/program files/microchip/xc32/v4.40/bin/bin/../../lib/gcc/pic32mx/8.3.1/../../../../pic32mx/lib/micromips\libc-musl.a(memcpy.o)
                              c:/program files/microchip/xc32/v4.40/bin/bin/../../lib/gcc/pic32mx/8.3.1/../../../../pic32mx/lib/micromips\libc-musl.a(__printf_core.o) (memcpy)
c:/program files/microchip/xc32/v4.40/bin/bin/../../lib/gcc/pic32mx/8.3.1/../../../../pic32mx/lib/micromips\libc-musl.a(tolower.o)
                              c:/program files/microchip/xc32/v4.40/bin/bin/../../lib/gcc/pic32mx/8.3.1/../../../../pic32mx/lib/micromips\libc-musl.a(__printf_core.o) (tolower)
c:/program files/microchip/xc32/v4.40/bin/bin/../../lib/gcc/pic32mx/8.3.1/../../../../pic32mx/lib/micromips\libc-musl.a(toupper.o)
                              c:/program files/microchip/xc32/v4.40/bin/bin/../../lib/gcc/pic32mx/8.3.1/../../../../pic32mx/lib/micromips\libc-musl.a(__fmt_x.o) (toupper)
c:/program files/microchip/xc32/v4.40/bin/bin/../../lib/gcc/pic32mx/8.3.1/../../../../pic32mx/lib/micromips\libc-musl.a(__int_vfprintf.o)
                              c:/program files/microchip/xc32/v4.40/bin/bin/../../lib/gcc/pic32mx/8.3.1/../../../../pic32mx/lib/micromips\libc-musl.a(__sio_printf_cdnpsxX.o) (__vfprintf)
c:/program files/microchip/xc32/v4.40/bin/bin/../../lib/gcc/pic32mx/8.3.1/../../../../pic32mx/lib/micromips\libc-musl.a(__cvt_u.o)
                              c:/program files/microchip/xc32/v4.40/bin/bin/../../lib/gcc/pic32mx/8.3.1/../../../../pic32mx/lib/micromips\libc-musl.a(__fmt_d.o) (__cvt_u)
c:/program files/microchip/xc32/v4.40/bin/bin/../../lib/gcc/pic32mx/8.3.1/../../../../pic32mx/lib/micromips\libc-musl.a(__io_init_needed.o)
                              c:/program files/microchip/xc32/v4.40/bin/bin/../../lib/gcc/pic32mx/8.3.1/../../../../pic32mx/lib/micromips\libc-musl.a(stdout.o) (__io_init_needed)
c:/program files/microchip/xc32/v4.40/bin/bin/../../lib/gcc/pic32mx/8.3.1/../../../../pic32mx/lib/micromips\libc-musl.a(__out.o)
                              c:/program files/microchip/xc32/v4.40/bin/bin/../../lib/gcc/pic32mx/8.3.1/../../../../pic32mx/lib/micromips\libc-musl.a(stdout.o) (__stdio_write_unbuffered)
c:/program files/microchip/xc32/v4.40/bin/bin/../../lib/gcc/pic32mx/8.3.1/../../../../pic32mx/lib/micromips\libc-musl.a(__pop_float.o)
                              c:/program files/microchip/xc32/v4.40/bin/bin/../../lib/gcc/pic32mx/8.3.1/../../../../pic32mx/lib/micromips\libc-musl.a(__printf_core.o) (__pop_float)
c:/program files/microchip/xc32/v4.40/bin/bin/../../lib/gcc/pic32mx/8.3.1/../../../../pic32mx/lib/micromips\libc-musl.a(__stdio_close.o)
                              c:/program files/microchip/xc32/v4.40/bin/bin/../../lib/gcc/pic32mx/8.3.1/../../../../pic32mx/lib/micromips\libc-musl.a(stdout.o) (__stdio_close_rw)
c:/program files/microchip/xc32/v4.40/bin/bin/../../lib/gcc/pic32mx/8.3.1/../../../../pic32mx/lib/micromips\libc-musl.a(putc.o)
                              c:/program files/microchip/xc32/v4.40/bin/bin/../../lib/gcc/pic32mx/8.3.1/../../../../pic32mx/lib/micromips\libc-musl.a(putchar.o) (fputc)
c:/program files/microchip/xc32/v4.40/bin/bin/../../lib/gcc/pic32mx/8.3.1/../../../../pic32mx/lib/micromips\libc-musl.a(__init_stdio.o)
                              c:/program files/microchip/xc32/v4.40/bin/bin/../../lib/gcc/pic32mx/8.3.1/../../../../pic32mx/lib/micromips\libc-musl.a(__io_init_needed.o) (__init_stdio_needed)
c:/program files/microchip/xc32/v4.40/bin/bin/../../lib/gcc/pic32mx/8.3.1/../../../../pic32mx/lib/micromips\libc-musl.a(__io_file_needed.o)
                              c:/program files/microchip/xc32/v4.40/bin/bin/../../lib/gcc/pic32mx/8.3.1/../../../../pic32mx/lib/micromips\libc-musl.a(__io_init_needed.o) (__io_file_needed)
c:/program files/microchip/xc32/v4.40/bin/bin/../../lib/gcc/pic32mx/8.3.1/micromips\libgcc.a(_udivdi3.o)
                              c:/program files/microchip/xc32/v4.40/bin/bin/../../lib/gcc/pic32mx/8.3.1/../../../../pic32mx/lib/micromips\libc-musl.a(__cvt_u.o) (__udivdi3)
c:/program files/microchip/xc32/v4.40/bin/bin/../../lib/gcc/pic32mx/8.3.1/micromips\libgcc.a(_umoddi3.o)
                              c:/program files/microchip/xc32/v4.40/bin/bin/../../lib/gcc/pic32mx/8.3.1/../../../../pic32mx/lib/micromips\libc-musl.a(__cvt_u.o) (__umoddi3)
c:/program files/microchip/xc32/v4.40/bin/bin/../../lib/gcc/pic32mx/8.3.1/../../../../pic32mx/lib/micromips\libpic32.a(write.o)
                              c:/program files/microchip/xc32/v4.40/bin/bin/../../lib/gcc/pic32mx/8.3.1/../../../../pic32mx/lib/micromips\libc-musl.a(__out.o) (write)
c:/program files/microchip/xc32/v4.40/bin/bin/../../lib/gcc/pic32mx/8.3.1/../../../../pic32mx/lib/micromips\libpic32.a(lseek.o)
                              c:/program files/microchip/xc32/v4.40/bin/bin/../../lib/gcc/pic32mx/8.3.1/../../../../pic32mx/lib/micromips\libc-musl.a(__stdio_close.o) (lseek)
c:/program files/microchip/xc32/v4.40/bin/bin/../../lib/gcc/pic32mx/8.3.1/../../../../pic32mx/lib/micromips\libpic32.a(close.o)
                              c:/program files/microchip/xc32/v4.40/bin/bin/../../lib/gcc/pic32mx/8.3.1/../../../../pic32mx/lib/micromips\libc-musl.a(__stdio_close.o) (close)
c:/program files/microchip/xc32/v4.40/bin/bin/../../lib/gcc/pic32mx/8.3.1/../../../../pic32mx/lib/micromips\libpic32.a(errno.o)
                              c:/program files/microchip/xc32/v4.40/bin/bin/../../lib/gcc/pic32mx/8.3.1/../../../../pic32mx/lib/micromips\libc-musl.a(__printf_core.o) (errno)
c:/program files/microchip/xc32/v4.40/bin/bin/../../lib/gcc/pic32mx/8.3.1/../../../../pic32mx/lib/micromips\libpic32.a(pic32_data_init_clear.o)
                              (__dinit_clear_needed)
c:/program files/microchip/xc32/v4.40/bin/bin/../../lib/gcc/pic32mx/8.3.1/../../../../pic32mx/lib/micromips\libpic32.a(pic32_data_init_copy.o)
                              (__dinit_copy_needed)
c:/program files/microchip/xc32/v4.40/bin/bin/../../lib/gcc/pic32mx/8.3.1/../../../../pic32mx/lib/micromips\libpic32.a(pic32_data_init_decompress.o)
                              (__dinit_decompress_needed)

Microchip PIC32 Memory-Usage Report

kseg0 Program-Memory Usage
section                    address  length [bytes]      (dec)  Description
-------                 ----------  -------------------------  -----------
.text.CDCTxService      0x9d001000          0x180         384   
.app_excpt              0x9d001180            0xc          12  General-Exception 
.text.VCP_Debug_Write   0x9d00118c           0x74         116   
.vector_0               0x9d001200            0x8           8  Interrupt Vector 0 
.vector_1               0x9d001208            0x8           8  Interrupt Vector 1 
.vector_2               0x9d001210            0x8           8  Interrupt Vector 2 
.vector_3               0x9d001218            0x8           8  Interrupt Vector 3 
.vector_4               0x9d001220            0x8           8  Interrupt Vector 4 
.vector_5               0x9d001228            0x8           8  Interrupt Vector 5 
.vector_6               0x9d001230            0x8           8  Interrupt Vector 6 
.vector_7               0x9d001238            0x8           8  Interrupt Vector 7 
.vector_8               0x9d001240            0x8           8  Interrupt Vector 8 
.vector_9               0x9d001248            0x8           8  Interrupt Vector 9 
.vector_10              0x9d001250            0x8           8  Interrupt Vector 10 
.vector_11              0x9d001258            0x8           8  Interrupt Vector 11 
.vector_12              0x9d001260            0x8           8  Interrupt Vector 12 
.vector_13              0x9d001268            0x8           8  Interrupt Vector 13 
.vector_14              0x9d001270            0x8           8  Interrupt Vector 14 
.vector_15              0x9d001278            0x8           8  Interrupt Vector 15 
.vector_16              0x9d001280            0x8           8  Interrupt Vector 16 
.vector_17              0x9d001288            0x8           8  Interrupt Vector 17 
.vector_18              0x9d001290            0x8           8  Interrupt Vector 18 
.vector_19              0x9d001298            0x8           8  Interrupt Vector 19 
.vector_20              0x9d0012a0            0x8           8  Interrupt Vector 20 
.vector_21              0x9d0012a8            0x8           8  Interrupt Vector 21 
.vector_22              0x9d0012b0            0x8           8  Interrupt Vector 22 
.vector_23              0x9d0012b8            0x8           8  Interrupt Vector 23 
.vector_24              0x9d0012c0            0x8           8  Interrupt Vector 24 
.vector_25              0x9d0012c8            0x8           8  Interrupt Vector 25 
.vector_26              0x9d0012d0            0x8           8  Interrupt Vector 26 
.vector_27              0x9d0012d8            0x8           8  Interrupt Vector 27 
.vector_28              0x9d0012e0            0x8           8  Interrupt Vector 28 
.vector_29              0x9d0012e8            0x8           8  Interrupt Vector 29 
.vector_30              0x9d0012f0            0x8           8  Interrupt Vector 30 
.vector_31              0x9d0012f8            0x8           8  Interrupt Vector 31 
.vector_32              0x9d001300            0x8           8  Interrupt Vector 32 
.vector_33              0x9d001308            0x8           8  Interrupt Vector 33 
.vector_34              0x9d001310            0x8           8  Interrupt Vector 34 
.vector_35              0x9d001318            0x8           8  Interrupt Vector 35 
.vector_36              0x9d001320            0x8           8  Interrupt Vector 36 
.vector_37              0x9d001328            0x8           8  Interrupt Vector 37 
.vector_38              0x9d001330            0x8           8  Interrupt Vector 38 
.vector_39              0x9d001338            0x8           8  Interrupt Vector 39 
.vector_40              0x9d001340            0x8           8  Interrupt Vector 40 
.vector_41              0x9d001348            0x8           8  Interrupt Vector 41 
.vector_42              0x9d001350            0x8           8  Interrupt Vector 42 
.vector_43              0x9d001358            0x8           8  Interrupt Vector 43 
.vector_44              0x9d001360            0x8           8  Interrupt Vector 44 
.vector_45              0x9d001368            0x8           8  Interrupt Vector 45 
.vector_46              0x9d001370            0x8           8  Interrupt Vector 46 
.vector_47              0x9d001378            0x8           8  Interrupt Vector 47 
.vector_48              0x9d001380            0x8           8  Interrupt Vector 48 
.vector_49              0x9d001388            0x8           8  Interrupt Vector 49 
.vector_50              0x9d001390            0x8           8  Interrupt Vector 50 
.vector_51              0x9d001398            0x8           8  Interrupt Vector 51 
.vector_52              0x9d0013a0            0x8           8  Interrupt Vector 52 
.vector_53              0x9d0013a8            0x8           8  Interrupt Vector 53 
.vector_54              0x9d0013b0            0x8           8  Interrupt Vector 54 
.vector_55              0x9d0013b8            0x8           8  Interrupt Vector 55 
.vector_56              0x9d0013c0            0x8           8  Interrupt Vector 56 
.vector_57              0x9d0013c8            0x8           8  Interrupt Vector 57 
.vector_58              0x9d0013d0            0x8           8  Interrupt Vector 58 
.vector_59              0x9d0013d8            0x8           8  Interrupt Vector 59 
.vector_60              0x9d0013e0            0x8           8  Interrupt Vector 60 
.vector_61              0x9d0013e8            0x8           8  Interrupt Vector 61 
.vector_62              0x9d0013f0            0x8           8  Interrupt Vector 62 
.vector_63              0x9d0013f8            0x8           8  Interrupt Vector 63 
.vector_64              0x9d001400            0x8           8   
.vector_65              0x9d001408            0x8           8   
.vector_66              0x9d001410            0x8           8   
.vector_67              0x9d001418            0x8           8   
.vector_68              0x9d001420            0x8           8   
.vector_69              0x9d001428            0x8           8   
.vector_70              0x9d001430            0x8           8   
.vector_71              0x9d001438            0x8           8   
.vector_72              0x9d001440            0x8           8   
.vector_73              0x9d001448            0x8           8   
.vector_74              0x9d001450            0x8           8   
.vector_75              0x9d001458            0x8           8   
.vector_76              0x9d001460            0x8           8   
.vector_77              0x9d001468            0x8           8   
.vector_78              0x9d001470            0x8           8   
.vector_79              0x9d001478            0x8           8   
.vector_80              0x9d001480            0x8           8   
.vector_81              0x9d001488            0x8           8   
.vector_82              0x9d001490            0x8           8   
.vector_83              0x9d001498            0x8           8   
.vector_84              0x9d0014a0            0x8           8   
.vector_85              0x9d0014a8            0x8           8   
.vector_86              0x9d0014b0            0x8           8   
.vector_87              0x9d0014b8            0x8           8   
.vector_88              0x9d0014c0            0x8           8   
.vector_89              0x9d0014c8            0x8           8   
.vector_90              0x9d0014d0            0x8           8   
.vector_91              0x9d0014d8            0x8           8   
.vector_92              0x9d0014e0            0x8           8   
.vector_93              0x9d0014e8            0x8           8   
.vector_94              0x9d0014f0            0x8           8   
.vector_95              0x9d0014f8            0x8           8   
.vector_96              0x9d001500            0x8           8   
.vector_97              0x9d001508            0x8           8   
.vector_98              0x9d001510            0x8           8   
.vector_99              0x9d001518            0x8           8   
.vector_100             0x9d001520            0x8           8   
.vector_101             0x9d001528            0x8           8   
.text.USBDeviceTasks    0x9d001530          0xf14        3860   
.text.main              0x9d002444          0x630        1584   
.text.__printf_core     0x9d002a74          0x444        1092   
.dinit                  0x9d002eb8          0x360         864   
.text.PIN_MANAGER_Initi 0x9d003218          0x320         800   
.text                   0x9d003538          0x624        1572  App's exec code 
.rodata.main.str1.4     0x9d003b5c          0x2b8         696   
.text.USBDeviceInit     0x9d003e14          0x1dc         476   
.text.USBCheckCDCReques 0x9d003ff0          0x1cc         460   
.text._UART2_RX         0x9d0041bc          0x178         376   
.text.INTERRUPT_Initial 0x9d004334          0x16c         364   
.text._UART2_TX         0x9d0044a0          0x15c         348   
.text                   0x9d0045fc          0x150         336  App's exec code 
.text.__fmt_x           0x9d00474c          0x150         336   
.text.APP_Main_Initiali 0x9d00489c          0x148         328   
.text.VCP_Debug_Tasks   0x9d0049e4          0x128         296   
.text._CHANGE_NOTICE_C  0x9d004b0c          0x120         288   
.text                   0x9d004c2c          0x110         272  App's exec code 
.text.USBCtrlTrfTxServi 0x9d004d3c          0x10c         268   
.text.getsUSBUSART_CMD  0x9d004e48          0x108         264   
.text._CHANGE_NOTICE_A  0x9d004f50           0xfc         252   
.text.__pop_int         0x9d00504c           0xfc         252   
.text.USBCtrlEPAllowSta 0x9d005148           0xf8         248   
.text._CORE_TIMER_ISR   0x9d005240           0xe8         232   
.text.USBCtrlEPAllowDat 0x9d005328           0xdc         220   
.text._CHANGE_NOTICE_B  0x9d005404           0xd8         216   
.text.__fmt_d           0x9d0054dc           0xcc         204   
.text._UART3_TX         0x9d0055a8           0xb8         184   
.text._UART3_RX         0x9d005660           0xb8         184   
.text._I2C1_MASTER      0x9d005718           0xb8         184   
.text._I2C1_SLAVE       0x9d0057d0           0xb8         184   
.text._I2C1_BUS         0x9d005888           0xb8         184   
.text.APP_Main_Tasks    0x9d005940           0xb8         184   
.text.USB_ISR           0x9d0059f8           0xb4         180   
.text.debug_hex         0x9d005aac           0xb4         180   
.text.UART2_Initialize  0x9d005b60           0xb0         176   
.text.USBTransferOnePac 0x9d005c10           0xa8         168   
.text.UART3_Initialize  0x9d005cb8           0xa8         168   
.text.__cvt_u           0x9d005d60           0xa8         168   
.text.debug_u32         0x9d005e08           0xa4         164   
.text.__pop_ptr         0x9d005eac           0x9c         156   
.text.CDCInitEP         0x9d005f48           0x98         152   
.text.__pad             0x9d005fe0           0x98         152   
.text.UART3_Receive_ISR 0x9d006078           0x8c         140   
.text.Tick_Timer_Is_Ove 0x9d006104           0x8c         140   
.text.CLOCK_Initialize  0x9d006190           0x88         136   
.text.USBEnableEndpoint 0x9d006218           0x84         132   
.text.softWDT_Isr       0x9d00629c           0x84         132   
.text.USBDeviceAttach   0x9d006320           0x80         128   
.text._UART3_ERR        0x9d0063a0           0x80         128   
.text._UART2_ERR        0x9d006420           0x80         128   
.rodata.HwInfo          0x9d0064a0           0x80         128   
.text.general_exception 0x9d006520           0x80         128   
.text.UART3_Transmit_IS 0x9d0065a0           0x7c         124   
.text                   0x9d00661c           0x7c         124  App's exec code 
.text.USB_Device_LoadUD 0x9d006698           0x78         120   
.text.get_res           0x9d006710           0x78         120   
.text.__stdio_close_rw  0x9d006788           0x6c         108   
.text                   0x9d0067f4           0x5c          92  App's exec code 
.text.__fmt_s           0x9d006850           0x5c          92   
.text.atoi              0x9d0068ac           0x58          88   
.text.UART3_Write       0x9d006904           0x50          80   
.text.UART2_Write       0x9d006954           0x50          80   
.text.str_1st_contain   0x9d0069a4           0x50          80   
.text.send_cmd          0x9d0069f4           0x50          80   
.rodata.configDescripto 0x9d006a44           0x4c          76   
.text.Gpio_Set          0x9d006a90           0x4c          76   
.text.__out             0x9d006adc           0x4c          76   
.text.write             0x9d006b28           0x4c          76   
.text.putUSBUSART       0x9d006b74           0x48          72   
.text.softWDT_Tasks     0x9d006bbc           0x48          72   
.rodata.APP_Main_Initia 0x9d006c04           0x48          72   
.text.CORETIMER_Initial 0x9d006c4c           0x44          68   
.text.main_entry        0x9d006c90           0x44          68   
.text                   0x9d006cd4           0x40          64  App's exec code 
.text.debug_systime_sta 0x9d006d14           0x3c          60   
.text.softWDT_Enable    0x9d006d50           0x3c          60   
.text                   0x9d006d8c           0x3c          60  App's exec code 
.text.DTRPin_SetHandler 0x9d006dc8           0x38          56   
.text.SYSTEM_Initialize 0x9d006e00           0x38          56   
.text.VCP_Debug_Init    0x9d006e38           0x38          56   
.text.__fmt_state       0x9d006e70           0x38          56   
.text.USBIncrement1msIn 0x9d006ea8           0x34          52   
.text.UART2_Read        0x9d006edc           0x34          52   
.text._bootstrap_except 0x9d006f10           0x34          52   
.text.USER_USB_CALLBACK 0x9d006f44           0x30          48   
.text.softWDT_SetLedInd 0x9d006f74           0x30          48   
.vector_default         0x9d006fa4           0x30          48   
.text.__pop_float       0x9d006fd4           0x30          48   
.text.TaskManager_Add_T 0x9d007004           0x2c          44   
.text.UART3_IsTxReady   0x9d007030           0x28          40   
.text.UART2_IsTxReady   0x9d007058           0x28          40   
.text.debug             0x9d007080           0x28          40   
.text.__wrap_printf     0x9d0070a8           0x28          40   
.text.LIGHT_INT_SetInte 0x9d0070d0           0x24          36   
.text.ACC_INT1_SetInter 0x9d0070f4           0x24          36   
.text.TEMP_INT_SetInter 0x9d007118           0x24          36   
.text.UNO_INT1_SetInter 0x9d00713c           0x24          36   
.text.ACC_INT2_SetInter 0x9d007160           0x24          36   
.text.UNO_INT0_SetInter 0x9d007184           0x24          36   
.text.slen              0x9d0071a8           0x24          36   
.rodata.sd002           0x9d0071cc           0x20          32   
.rodata.sd001           0x9d0071ec           0x20          32   
.text.str_1st_index     0x9d00720c           0x20          32   
.text.__vfprintf        0x9d00722c           0x20          32   
.text._mon_putc         0x9d00724c           0x1c          28   
.text._general_exceptio 0x9d007268           0x1c          28   
.text.UART2_IsTxDone    0x9d007284           0x1c          28   
.text.dbsh              0x9d0072a0           0x1c          28   
.text.str_1st_contain_i 0x9d0072bc           0x1c          28   
.rodata.APP_Main_Tasks. 0x9d0072d8           0x1c          28   
.text                   0x9d0072f4           0x1c          28  App's exec code 
.MIPS.abiflags          0x9d007310           0x18          24   
.text                   0x9d007328           0x18          24  App's exec code 
.rodata                 0x9d007340           0x18          24  Read-only const 
.text.memcpy            0x9d007358           0x18          24   
.rodata.device_dsc      0x9d007370           0x14          20   
.text.Bcd2AHex          0x9d007384           0x14          20   
.rodata                 0x9d007398           0x14          20  Read-only const 
.text.tolower           0x9d0073ac           0x14          20   
.text.toupper           0x9d0073c0           0x14          20   
.text.__fwrite_min      0x9d0073d4           0x14          20   
.text.debug_port_write  0x9d0073e8           0x10          16   
.rodata.USB_SD_Ptr      0x9d0073f8           0x10          16   
.text.UART2_IsRxReady   0x9d007408           0x10          16   
.text.VCP_Init          0x9d007418           0x10          16   
.text.DTRPinHandler     0x9d007428           0x10          16   
.text                   0x9d007438           0x10          16  App's exec code 
.rodata.send_cmd.str1.4 0x9d007448            0xc          12   
.rodata.get_res.str1.4  0x9d007454            0xc          12   
.rodata.str1.4          0x9d007460            0xc          12   
.text.CORETIMER_SetInte 0x9d00746c            0x8           8   
.text.softWDT_SetCbBefo 0x9d007474            0x8           8   
.text.Tick_Timer_SetFnc 0x9d00747c            0x8           8   
.rodata.USB_CD_Ptr      0x9d007484            0x4           4   
.rodata.sd000           0x9d007488            0x4           4   
.text.DTRPin_DefaultHan 0x9d00748c            0x4           4   
.text.CTSPin_DefaultHan 0x9d007490            0x4           4   
.text.USB_CDC_DefaultLi 0x9d007494            0x4           4   
.text.LIGHT_INT_CallBac 0x9d007498            0x4           4   
.text.ACC_INT1_CallBack 0x9d00749c            0x4           4   
.text.TEMP_INT_CallBack 0x9d0074a0            0x4           4   
.text.UNO_INT1_CallBack 0x9d0074a4            0x4           4   
.text.ACC_INT2_CallBack 0x9d0074a8            0x4           4   
.text.UNO_INT0_CallBack 0x9d0074ac            0x4           4   
.text.UART2_Transmit_Ca 0x9d0074b0            0x4           4   
.text.UART2_Receive_Cal 0x9d0074b4            0x4           4   
.text._on_reset         0x9d0074b8            0x4           4   
.text._on_bootstrap     0x9d0074bc            0x4           4   
.text.__dummy_fmt3      0x9d0074c0            0x4           4   
.text.__dummy_fmt4      0x9d0074c4            0x4           4   
.text.__dummy           0x9d0074c8            0x4           4   
.text.lseek             0x9d0074cc            0x4           4   
.text.close             0x9d0074d0            0x4           4   
      Total kseg0_program_mem used  :      0x64d4       25812  10.9% of 0x3a000

kseg0 Boot-Memory Usage
section                    address  length [bytes]      (dec)  Description
-------                 ----------  -------------------------  -----------
         Total kseg0_boot_mem used  :           0           0  

kseg1 Boot-Memory Usage
section                    address  length [bytes]      (dec)  Description
-------                 ----------  -------------------------  -----------
         Total kseg1_boot_mem used  :           0           0  <1% of 0x490
        --------------------------------------------------------------------------
         Total Program Memory used  :      0x64d4       25812  10.8% of 0x3a490
        --------------------------------------------------------------------------


Data-Memory Usage
section                    address  length [bytes]      (dec)  Description
-------                 ----------  -------------------------  -----------
.sdata                  0x80000000           0x10          16  Small init data 
.sbss                   0x80000010          0x110         272  Small uninit data 
.data                   0x80000120           0x68         104  Initialized data 
.data.sd003             0x80000188           0x22          34   
.data.Tick              0x800001ac            0x9           9   
.data._stdout           0x800001b8            0x4           4   
.bss.RxBuff             0x800001bc          0x100         256   
.bss.rxQueue            0x800002bc           0xff         255   
.bss.txQueue            0x800003bc           0xff         255   
.bss.rxQueue            0x800004bc           0xff         255   
.bss.txQueue            0x800005bc           0xff         255   
.bss.VcpDbgTxBuf        0x800006bc           0x4c          76   
.bss.VcpDbgRxBuf        0x80000708           0x48          72   
.bss.cdc_data_rx        0x80000750           0x40          64   
.bss.cdc_data_tx        0x80000790           0x40          64   
.bss.AppCxt             0x800007d0           0x18          24   
.bss.__TaskCxt_softWDT_ 0x800007e8           0x14          20   
.bss.errno              0x800007fc            0x4           4   
.bss.BDT                0x80000800           0x60          96   
.bss.__TaskCxt_VCP_Debu 0x80000860           0x14          20   
.bss.inPipes            0x80000878           0x10          16   
.bss.pBDTEntryIn        0x80000888            0xc          12   
.bss.pBDTEntryOut       0x80000894            0xc          12   
.bss.outPipes           0x800008a0            0xb          11   
.bss.cdc_notice         0x800008ac            0xa          10   
.bss._digit             0x800008b8            0xa          10   
.bss.RxTick             0x800008c4            0x9           9   
         Total kseg0/kseg1 data_mem used  :       0x8bb        2235  6.8% of 0x8000
        --------------------------------------------------------------------------
            Total Data Memory used  :       0x8bb        2235  6.8% of 0x8000
        --------------------------------------------------------------------------


Dynamic Data-Memory Reservation
section                    address  length [bytes]      (dec)  Description
-------                 ----------  -------------------------  -----------
heap                    0x800008d0         0x1000        4096  Reserved for heap 
stack                   0x800018e8         0x6708       26376  Reserved for stack 

        --------------------------------------------------------------------------

Note: Microchip PIC32 Memory-Usage Report By Module might not be accurate when used in conjunction with LTO!
Microchip PIC32 Memory-Usage Report By Module

        text        data         bss         dec         hex    basename                                 filename
--------------------------------------------------------------------------------
        5552           0         206        5758        167e    usb_device.o                         build/default/debug/mcc_generated_files/usb/usb_device.o
        2408           0           0        2408         968    main.o                               build/default/debug/main.o
        1820           0          24        1844         734    pin_manager.o                        build/default/debug/mcc_generated_files/pin_manager.o
        1276           0         535        1811         713    uart2.o                              build/default/debug/mcc_generated_files/uart2.o
        1100           0         535        1635         663    uart3.o                              build/default/debug/mcc_generated_files/uart3.o
        1400           0         190        1590         636    usb_device_cdc.o                     build/default/debug/mcc_generated_files/usb/usb_device_cdc.o
        1344           0           0        1344         540    __printf_core.o                      libc-musl.a
         836           0         294        1130         46a    AppMain.o                            build/default/debug/User/AppMain.o
         864           0           0         864         360    data_init                            data_init
         788           0           0         788         314    _umoddi3.o                           libgcc.a
         784           0           0         784         310    _udivdi3.o                           libgcc.a
         484           0         169         653         28d    VCP_Debug.o                          build/default/debug/User/VCP_Debug.o
         576           0          12         588         24c    i2c1_driver.o                        build/default/debug/mcc_generated_files/i2c1_driver.o
         472           1          12         485         1e5    Debug.o                              build/default/debug/_ext/1124510853/Debug.o
         412           0           0         412         19c    ccMUuKnQ.o                           C:\Users\ADMIN\AppData\Local\Temp\ccMUuKnQ.o
         320          17          28         365         16d    softWdt.o                            build/default/debug/_ext/657024065/softWdt.o
         364           0           0         364         16c    interrupt_manager.o                  build/default/debug/mcc_generated_files/interrupt_manager.o
         304          34           0         338         152    usb_descriptors.o                    build/default/debug/mcc_generated_files/usb/usb_descriptors.o
         336           0           0         336         150    __fmt_x.o                            libc-musl.a
         336           0           0         336         150    strcpy.o                             libpic32.a
         316           4           4         324         144    coretimer.o                          build/default/debug/mcc_generated_files/coretimer.o
         272           0           0         272         110    strlen.o                             libpic32.a
         252           0           0         252          fc    __pop_int.o                          libc-musl.a
         236           0           0         236          ec    usb_device_events.o                  build/default/debug/mcc_generated_files/usb/usb_device_events.o
         204           0           0         204          cc    __fmt_d.o                            libc-musl.a
         196           0           0         196          c4    Utils.o                              build/default/debug/_ext/1124510853/Utils.o
         168           0           0         168          a8    __cvt_u.o                            libc-musl.a
         156           0           0         156          9c    __pop_ptr.o                          libc-musl.a
         148           0           4         152          98    TickTimer.o                          build/default/debug/_ext/657024065/TickTimer.o
         136           0           0         136          88    clock.o                              build/default/debug/mcc_generated_files/clock.o
         128           0           0         128          80    general-exception.o                  libpic32.a
         124           0           0         124          7c    memset.o                             libpic32.a
           4         108           0         112          70    stdout.o                             libc-musl.a
         112           0           0         112          70    pic32_data_init_core.o               libpic32.a
         108           0           0         108          6c    __stdio_close.o                      libc-musl.a
          96           0           0          96          60    __out.o                              libc-musl.a
          92           0           0          92          5c    __fmt_s.o                            libc-musl.a
          88           0           0          88          58    atoi.o                               libc-musl.a
          76           0           0          76          4c    PIC32MM_Gpio.o                       build/default/debug/_ext/657024065/PIC32MM_Gpio.o
          76           0           0          76          4c    write.o                              libpic32.a
          64           0           0          64          40    pic32_software_reset.o               c:/program files/microchip/xc32/v4.40/bin/bin/../../lib/gcc/pic32mx/8.3.1/../../../../pic32mx/lib/micromips\pic32_software_reset.o
          60           0           0          60          3c    pic32_data_init_decompress.o         libpic32.a
          56           0           0          56          38    system.o                             build/default/debug/mcc_generated_files/system.o
          52           0           0          52          34    default-bootstrap-exception-handler.olibpic32.a
          44           0           5          49          31    TaskManager.o                        build/default/debug/_ext/657024065/TaskManager.o
          48           0           0          48          30    defaultinterrupt.o                   libpic32.a
          48           0           0          48          30    __pop_float.o                        libc-musl.a
          40           0           0          40          28    __sio_printf_cdnpsxX.o               libc-musl.a
          28           0           4          32          20    exceptions.o                         build/default/debug/mcc_generated_files/exceptions.o
          32           0           0          32          20    __int_vfprintf.o                     libc-musl.a
          28           0           0          28          1c    pic32_data_init_copy.o               libpic32.a
          24           0           0          24          18    debug-exception-return.o             c:/program files/microchip/xc32/v4.40/bin/bin/../../lib/gcc/pic32mx/8.3.1/../../../../pic32mx/lib/micromips\debug-exception-return.o
          24           0           0          24          18    memcpy.o                             libc-musl.a
          24           0           0          24          18    default-nmi-handler.o                libpic32.a
          20           0           0          20          14    tolower.o                            libc-musl.a
          20           0           0          20          14    toupper.o                            libc-musl.a
          16           0           0          16          10    Debug_Cfg.o                          build/default/debug/Cfg/Debug_Cfg.o
          16           0           0          16          10    pic32_data_init_clear.o              libpic32.a
          16           0           0          16          10    VCP.o                                build/default/debug/User/VCP.o
           8           0           0           8           8    vector77.o                           libpic32.a
           8           0           0           8           8    vector76.o                           libpic32.a
           8           0           0           8           8    vector75.o                           libpic32.a
           8           0           0           8           8    vector74.o                           libpic32.a
           8           0           0           8           8    vector73.o                           libpic32.a
           8           0           0           8           8    vector72.o                           libpic32.a
           8           0           0           8           8    vector71.o                           libpic32.a
           8           0           0           8           8    vector70.o                           libpic32.a
           8           0           0           8           8    vector69.o                           libpic32.a
           8           0           0           8           8    vector68.o                           libpic32.a
           8           0           0           8           8    vector64.o                           libpic32.a
           8           0           0           8           8    vector63.o                           libpic32.a
           8           0           0           8           8    vector62.o                           libpic32.a
           8           0           0           8           8    vector55.o                           libpic32.a
           8           0           0           8           8    vector54.o                           libpic32.a
           8           0           0           8           8    vector53.o                           libpic32.a
           8           0           0           8           8    vector52.o                           libpic32.a
           8           0           0           8           8    vector51.o                           libpic32.a
           8           0           0           8           8    vector50.o                           libpic32.a
           8           0           0           8           8    vector49.o                           libpic32.a
           8           0           0           8           8    vector48.o                           libpic32.a
           8           0           0           8           8    vector47.o                           libpic32.a
           8           0           0           8           8    vector46.o                           libpic32.a
           8           0           0           8           8    vector45.o                           libpic32.a
           8           0           0           8           8    vector44.o                           libpic32.a
           8           0           0           8           8    vector43.o                           libpic32.a
           8           0           0           8           8    vector42.o                           libpic32.a
           8           0           0           8           8    vector41.o                           libpic32.a
           8           0           0           8           8    vector40.o                           libpic32.a
           8           0           0           8           8    vector39.o                           libpic32.a
           8           0           0           8           8    vector38.o                           libpic32.a
           8           0           0           8           8    vector37.o                           libpic32.a
           8           0           0           8           8    vector36.o                           libpic32.a
           8           0           0           8           8    vector35.o                           libpic32.a
           8           0           0           8           8    vector34.o                           libpic32.a
           8           0           0           8           8    vector33.o                           libpic32.a
           8           0           0           8           8    vector32.o                           libpic32.a
           8           0           0           8           8    vector31.o                           libpic32.a
           8           0           0           8           8    vector30.o                           libpic32.a
           8           0           0           8           8    vector28.o                           libpic32.a
           8           0           0           8           8    vector27.o                           libpic32.a
           8           0           0           8           8    vector26.o                           libpic32.a
           8           0           0           8           8    vector25.o                           libpic32.a
           8           0           0           8           8    vector24.o                           libpic32.a
           8           0           0           8           8    vector23.o                           libpic32.a
           8           0           0           8           8    vector22.o                           libpic32.a
           8           0           0           8           8    vector21.o                           libpic32.a
           8           0           0           8           8    vector20.o                           libpic32.a
           8           0           0           8           8    vector19.o                           libpic32.a
           8           0           0           8           8    vector18.o                           libpic32.a
           8           0           0           8           8    vector17.o                           libpic32.a
           8           0           0           8           8    vector16.o                           libpic32.a
           8           0           0           8           8    vector15.o                           libpic32.a
           8           0           0           8           8    vector14.o                           libpic32.a
           8           0           0           8           8    vector13.o                           libpic32.a
           8           0           0           8           8    vector12.o                           libpic32.a
           8           0           0           8           8    vector11.o                           libpic32.a
           8           0           0           8           8    vector7.o                            libpic32.a
           8           0           0           8           8    vector6.o                            libpic32.a
           8           0           0           8           8    vector5.o                            libpic32.a
           8           0           0           8           8    vector4.o                            libpic32.a
           8           0           0           8           8    vector3.o                            libpic32.a
           8           0           0           8           8    vector2.o                            libpic32.a
           8           0           0           8           8    vector1.o                            libpic32.a
           8           0           0           8           8    vector78.o                           libpic32.a
           8           0           0           8           8    vector79.o                           libpic32.a
           8           0           0           8           8    vector80.o                           libpic32.a
           8           0           0           8           8    vector97.o                           libpic32.a
           8           0           0           8           8    vector101.o                          libpic32.a
           8           0           0           8           8    vector81.o                           libpic32.a
           8           0           0           8           8    vector82.o                           libpic32.a
           8           0           0           8           8    vector83.o                           libpic32.a
           8           0           0           8           8    vector84.o                           libpic32.a
           8           0           0           8           8    vector85.o                           libpic32.a
           8           0           0           8           8    vector100.o                          libpic32.a
           8           0           0           8           8    vector99.o                           libpic32.a
           8           0           0           8           8    vector98.o                           libpic32.a
           8           0           0           8           8    vector86.o                           libpic32.a
           8           0           0           8           8    vector87.o                           libpic32.a
           8           0           0           8           8    vector88.o                           libpic32.a
           8           0           0           8           8    vector89.o                           libpic32.a
           8           0           0           8           8    vector90.o                           libpic32.a
           8           0           0           8           8    vector91.o                           libpic32.a
           8           0           0           8           8    vector92.o                           libpic32.a
           8           0           0           8           8    vector93.o                           libpic32.a
           8           0           0           8           8    vector94.o                           libpic32.a
           8           0           0           8           8    vector95.o                           libpic32.a
           8           0           0           8           8    vector96.o                           libpic32.a
           4           0           0           4           4    default-on-reset.o                   libpic32.a
           4           0           0           4           4    lseek.o                              libpic32.a
           0           0           4           4           4    errno.o                              libpic32.a
           4           0           0           4           4    close.o                              libpic32.a
           4           0           0           4           4    default-on-bootstrap.o               libpic32.a
           0           0           0          45          2d    padding                              padding
--------------------------------------------------------------------------------
       26144         164        2026       28379        6edb    dist/default/debug/SPI.X_-_Copy.debug.elf


Discarded input sections

 .text          0x0000000000000000        0x0 c:/program files/microchip/xc32/v4.40/bin/bin/../../lib/gcc/pic32mx/8.3.1/../../../../pic32mx/lib/micromips\debug-exception-return.o
 .data          0x0000000000000000        0x0 c:/program files/microchip/xc32/v4.40/bin/bin/../../lib/gcc/pic32mx/8.3.1/../../../../pic32mx/lib/micromips\debug-exception-return.o
 .bss           0x0000000000000000        0x0 c:/program files/microchip/xc32/v4.40/bin/bin/../../lib/gcc/pic32mx/8.3.1/../../../../pic32mx/lib/micromips\debug-exception-return.o
 .xc_stack_usage.hdr
                0x0000000000000000        0xe c:/program files/microchip/xc32/v4.40/bin/bin/../../lib/gcc/pic32mx/8.3.1/../../../../pic32mx/lib/micromips\debug-exception-return.o
 .xc_stack_usage
                0x0000000000000000       0x1d c:/program files/microchip/xc32/v4.40/bin/bin/../../lib/gcc/pic32mx/8.3.1/../../../../pic32mx/lib/micromips\debug-exception-return.o
 .text          0x0000000000000000        0x0 build/default/debug/Cfg/Debug_Cfg.o
 .data          0x0000000000000000        0x0 build/default/debug/Cfg/Debug_Cfg.o
 .bss           0x0000000000000000        0x0 build/default/debug/Cfg/Debug_Cfg.o
 .reginfo       0x0000000000000000       0x18 build/default/debug/Cfg/Debug_Cfg.o
 .MIPS.abiflags
                0x0000000000000000       0x18 build/default/debug/Cfg/Debug_Cfg.o
 .text          0x0000000000000000        0x0 build/default/debug/mcc_generated_files/drivers/i2c_types.o
 .data          0x0000000000000000        0x0 build/default/debug/mcc_generated_files/drivers/i2c_types.o
 .bss           0x0000000000000000        0x0 build/default/debug/mcc_generated_files/drivers/i2c_types.o
 .reginfo       0x0000000000000000       0x18 build/default/debug/mcc_generated_files/drivers/i2c_types.o
 .MIPS.abiflags
                0x0000000000000000       0x18 build/default/debug/mcc_generated_files/drivers/i2c_types.o
 .text.i2c_returnStop
                0x0000000000000000        0x4 build/default/debug/mcc_generated_files/drivers/i2c_types.o
 .text.i2c_returnReset
                0x0000000000000000        0x4 build/default/debug/mcc_generated_files/drivers/i2c_types.o
 .text.i2c_restartWrite
                0x0000000000000000        0x4 build/default/debug/mcc_generated_files/drivers/i2c_types.o
 .text.i2c_restartRead
                0x0000000000000000        0x4 build/default/debug/mcc_generated_files/drivers/i2c_types.o
 .text          0x0000000000000000        0x0 build/default/debug/mcc_generated_files/drivers/i2c_master.o
 .data          0x0000000000000000        0x0 build/default/debug/mcc_generated_files/drivers/i2c_master.o
 .bss           0x0000000000000000        0x0 build/default/debug/mcc_generated_files/drivers/i2c_master.o
 .reginfo       0x0000000000000000       0x18 build/default/debug/mcc_generated_files/drivers/i2c_master.o
 .MIPS.abiflags
                0x0000000000000000       0x18 build/default/debug/mcc_generated_files/drivers/i2c_master.o
 .text.do_I2C_IDLE
                0x0000000000000000       0x1c build/default/debug/mcc_generated_files/drivers/i2c_master.o
 .text.returnStop
                0x0000000000000000        0x4 build/default/debug/mcc_generated_files/drivers/i2c_master.o
 .text.returnReset
                0x0000000000000000        0x4 build/default/debug/mcc_generated_files/drivers/i2c_master.o
 .text.setCallBack
                0x0000000000000000       0x40 build/default/debug/mcc_generated_files/drivers/i2c_master.o
 .text.do_I2C_RESET
                0x0000000000000000       0x28 build/default/debug/mcc_generated_files/drivers/i2c_master.o
 .text.do_I2C_DO_NACK_RESTART
                0x0000000000000000       0x14 build/default/debug/mcc_generated_files/drivers/i2c_master.o
 .text.do_I2C_DO_NACK_STOP
                0x0000000000000000       0x14 build/default/debug/mcc_generated_files/drivers/i2c_master.o
 .text.do_I2C_DO_ACK
                0x0000000000000000       0x14 build/default/debug/mcc_generated_files/drivers/i2c_master.o
 .text.do_I2C_SEND_STOP
                0x0000000000000000       0x14 build/default/debug/mcc_generated_files/drivers/i2c_master.o
 .text.do_I2C_SEND_RESTART
                0x0000000000000000       0x14 build/default/debug/mcc_generated_files/drivers/i2c_master.o
 .text.do_I2C_SEND_RESTART_WRITE
                0x0000000000000000       0x14 build/default/debug/mcc_generated_files/drivers/i2c_master.o
 .text.do_I2C_SEND_RESTART_READ
                0x0000000000000000       0x14 build/default/debug/mcc_generated_files/drivers/i2c_master.o
 .text.do_I2C_RCEN
                0x0000000000000000       0x20 build/default/debug/mcc_generated_files/drivers/i2c_master.o
 .text.i2c_ISR  0x0000000000000000       0x50 build/default/debug/mcc_generated_files/drivers/i2c_master.o
 .text.do_I2C_SEND_ADR_WRITE
                0x0000000000000000       0x30 build/default/debug/mcc_generated_files/drivers/i2c_master.o
 .text.do_I2C_SEND_ADR_READ
                0x0000000000000000       0x30 build/default/debug/mcc_generated_files/drivers/i2c_master.o
 .text.i2c_busCollisionISR
                0x0000000000000000       0x10 build/default/debug/mcc_generated_files/drivers/i2c_master.o
 .text.do_I2C_RX
                0x0000000000000000       0x68 build/default/debug/mcc_generated_files/drivers/i2c_master.o
 .text.do_I2C_TX_EMPTY
                0x0000000000000000       0x58 build/default/debug/mcc_generated_files/drivers/i2c_master.o
 .text.do_I2C_DO_ADDRESS_NACK
                0x0000000000000000       0x44 build/default/debug/mcc_generated_files/drivers/i2c_master.o
 .text.do_I2C_TX
                0x0000000000000000       0x80 build/default/debug/mcc_generated_files/drivers/i2c_master.o
 .text.i2c_setDataCompleteCallback
                0x0000000000000000       0x14 build/default/debug/mcc_generated_files/drivers/i2c_master.o
 .text.i2c_setWriteCollisionCallback
                0x0000000000000000       0x14 build/default/debug/mcc_generated_files/drivers/i2c_master.o
 .text.i2c_setAddressNACKCallback
                0x0000000000000000       0x14 build/default/debug/mcc_generated_files/drivers/i2c_master.o
 .text.i2c_setDataNACKCallback
                0x0000000000000000       0x14 build/default/debug/mcc_generated_files/drivers/i2c_master.o
 .text.i2c_setTimeOutCallback
                0x0000000000000000       0x14 build/default/debug/mcc_generated_files/drivers/i2c_master.o
 .text.i2c_open
                0x0000000000000000       0xa0 build/default/debug/mcc_generated_files/drivers/i2c_master.o
 .text.i2c_setAddress
                0x0000000000000000        0xc build/default/debug/mcc_generated_files/drivers/i2c_master.o
 .text.i2c_close
                0x0000000000000000       0x40 build/default/debug/mcc_generated_files/drivers/i2c_master.o
 .text.i2c_setTimeOut
                0x0000000000000000       0x1c build/default/debug/mcc_generated_files/drivers/i2c_master.o
 .text.i2c_setBuffer
                0x0000000000000000       0x28 build/default/debug/mcc_generated_files/drivers/i2c_master.o
 .text.i2c_masterOperation
                0x0000000000000000       0x74 build/default/debug/mcc_generated_files/drivers/i2c_master.o
 .text.i2c_masterRead
                0x0000000000000000       0x10 build/default/debug/mcc_generated_files/drivers/i2c_master.o
 .text.i2c_masterWrite
                0x0000000000000000       0x10 build/default/debug/mcc_generated_files/drivers/i2c_master.o
 .data.fsmStateTable
                0x0000000000000000       0x40 build/default/debug/mcc_generated_files/drivers/i2c_master.o
 .bss.i2c_status
                0x0000000000000000       0x48 build/default/debug/mcc_generated_files/drivers/i2c_master.o
 .text          0x0000000000000000        0x0 build/default/debug/mcc_generated_files/drivers/i2c_simple_master.o
 .data          0x0000000000000000        0x0 build/default/debug/mcc_generated_files/drivers/i2c_simple_master.o
 .bss           0x0000000000000000        0x0 build/default/debug/mcc_generated_files/drivers/i2c_simple_master.o
 .reginfo       0x0000000000000000       0x18 build/default/debug/mcc_generated_files/drivers/i2c_simple_master.o
 .MIPS.abiflags
                0x0000000000000000       0x18 build/default/debug/mcc_generated_files/drivers/i2c_simple_master.o
 .text.wr1RegCompleteHandler
                0x0000000000000000       0x1c build/default/debug/mcc_generated_files/drivers/i2c_simple_master.o
 .text.rd1RegCompleteHandler
                0x0000000000000000       0x1c build/default/debug/mcc_generated_files/drivers/i2c_simple_master.o
 .text.rd2RegCompleteHandler
                0x0000000000000000       0x1c build/default/debug/mcc_generated_files/drivers/i2c_simple_master.o
 .text.wr2RegCompleteHandler
                0x0000000000000000       0x1c build/default/debug/mcc_generated_files/drivers/i2c_simple_master.o
 .text.rdBlkRegCompleteHandler
                0x0000000000000000       0x1c build/default/debug/mcc_generated_files/drivers/i2c_simple_master.o
 .text.i2c_write1ByteRegister
                0x0000000000000000       0x54 build/default/debug/mcc_generated_files/drivers/i2c_simple_master.o
 .text.i2c_writeNBytes
                0x0000000000000000       0x40 build/default/debug/mcc_generated_files/drivers/i2c_simple_master.o
 .text.i2c_read1ByteRegister
                0x0000000000000000       0x70 build/default/debug/mcc_generated_files/drivers/i2c_simple_master.o
 .text.i2c_read2ByteRegister
                0x0000000000000000       0x58 build/default/debug/mcc_generated_files/drivers/i2c_simple_master.o
 .text.i2c_write2ByteRegister
                0x0000000000000000       0x54 build/default/debug/mcc_generated_files/drivers/i2c_simple_master.o
 .text.i2c_readDataBlock
                0x0000000000000000       0x54 build/default/debug/mcc_generated_files/drivers/i2c_simple_master.o
 .text.i2c_readNBytes
                0x0000000000000000       0x34 build/default/debug/mcc_generated_files/drivers/i2c_simple_master.o
 .text          0x0000000000000000        0x0 build/default/debug/mcc_generated_files/drivers/spi_master.o
 .data          0x0000000000000000        0x0 build/default/debug/mcc_generated_files/drivers/spi_master.o
 .bss           0x0000000000000000        0x0 build/default/debug/mcc_generated_files/drivers/spi_master.o
 .reginfo       0x0000000000000000       0x18 build/default/debug/mcc_generated_files/drivers/spi_master.o
 .MIPS.abiflags
                0x0000000000000000       0x18 build/default/debug/mcc_generated_files/drivers/spi_master.o
 .text.MASTER3_open
                0x0000000000000000       0x10 build/default/debug/mcc_generated_files/drivers/spi_master.o
 .text.MASTER2_open
                0x0000000000000000       0x10 build/default/debug/mcc_generated_files/drivers/spi_master.o
 .text.MASTER1_open
                0x0000000000000000       0x10 build/default/debug/mcc_generated_files/drivers/spi_master.o
 .text.MASTER0_open
                0x0000000000000000       0x10 build/default/debug/mcc_generated_files/drivers/spi_master.o
 .text.spi_master_open
                0x0000000000000000       0x50 build/default/debug/mcc_generated_files/drivers/spi_master.o
 .rodata.spiMaster
                0x0000000000000000       0xa0 build/default/debug/mcc_generated_files/drivers/spi_master.o
 .text          0x0000000000000000        0x0 build/default/debug/mcc_generated_files/memory/flash_demo.o
 .data          0x0000000000000000        0x0 build/default/debug/mcc_generated_files/memory/flash_demo.o
 .bss           0x0000000000000000        0x0 build/default/debug/mcc_generated_files/memory/flash_demo.o
 .reginfo       0x0000000000000000       0x18 build/default/debug/mcc_generated_files/memory/flash_demo.o
 .MIPS.abiflags
                0x0000000000000000       0x18 build/default/debug/mcc_generated_files/memory/flash_demo.o
 .text.FlashDemo
                0x0000000000000000      0x11c build/default/debug/mcc_generated_files/memory/flash_demo.o
 .rodata.flashTestPage
                0x0000000000000000      0x800 build/default/debug/mcc_generated_files/memory/flash_demo.o
 .text          0x0000000000000000        0x0 build/default/debug/mcc_generated_files/memory/flash.o
 .data          0x0000000000000000        0x0 build/default/debug/mcc_generated_files/memory/flash.o
 .bss           0x0000000000000000        0x0 build/default/debug/mcc_generated_files/memory/flash.o
 .reginfo       0x0000000000000000       0x18 build/default/debug/mcc_generated_files/memory/flash.o
 .MIPS.abiflags
                0x0000000000000000       0x18 build/default/debug/mcc_generated_files/memory/flash.o
 .text.FLASH_NVMUnlock
                0x0000000000000000       0x68 build/default/debug/mcc_generated_files/memory/flash.o
 .text.FLASH_Unlock
                0x0000000000000000        0xc build/default/debug/mcc_generated_files/memory/flash.o
 .text.FLASH_Lock
                0x0000000000000000        0xc build/default/debug/mcc_generated_files/memory/flash.o
 .text.FLASH_ClearError
                0x0000000000000000       0x20 build/default/debug/mcc_generated_files/memory/flash.o
 .text.FLASH_ErasePage
                0x0000000000000000       0x2c build/default/debug/mcc_generated_files/memory/flash.o
 .text.FLASH_ReadWord
                0x0000000000000000        0x4 build/default/debug/mcc_generated_files/memory/flash.o
 .text.FLASH_WriteDoubleWord
                0x0000000000000000       0x3c build/default/debug/mcc_generated_files/memory/flash.o
 .text.FLASH_WriteRow
                0x0000000000000000       0x38 build/default/debug/mcc_generated_files/memory/flash.o
 .text.FLASH_GetErasePageOffset
                0x0000000000000000        0x8 build/default/debug/mcc_generated_files/memory/flash.o
 .text.FLASH_GetErasePageAddress
                0x0000000000000000        0x8 build/default/debug/mcc_generated_files/memory/flash.o
 .sbss.FlashKeys
                0x0000000000000000        0x8 build/default/debug/mcc_generated_files/memory/flash.o
 .text          0x0000000000000000        0x0 build/default/debug/flashfunc.o
 .data          0x0000000000000000        0x0 build/default/debug/flashfunc.o
 .bss           0x0000000000000000        0x0 build/default/debug/flashfunc.o
 .reginfo       0x0000000000000000       0x18 build/default/debug/flashfunc.o
 .MIPS.abiflags
                0x0000000000000000       0x18 build/default/debug/flashfunc.o
 .text.Flash_ExchangeNByte
                0x0000000000000000       0x40 build/default/debug/flashfunc.o
 .text.Busy_flag
                0x0000000000000000       0x14 build/default/debug/flashfunc.o
 .text.Write_Enable
                0x0000000000000000       0x14 build/default/debug/flashfunc.o
 .text.Write_Disable
                0x0000000000000000       0x14 build/default/debug/flashfunc.o
 .text.Flash_Init
                0x0000000000000000       0x44 build/default/debug/flashfunc.o
 .rodata.Erase_full_mem.str1.4
                0x0000000000000000       0x10 build/default/debug/flashfunc.o
 .text.Erase_full_mem
                0x0000000000000000       0x40 build/default/debug/flashfunc.o
 .rodata.Flash_Read.str1.4
                0x0000000000000000       0x28 build/default/debug/flashfunc.o
 .text.Flash_Read
                0x0000000000000000       0xa4 build/default/debug/flashfunc.o
 .text.Flash_Sector_Program
                0x0000000000000000       0x68 build/default/debug/flashfunc.o
 .text.Flash_Read_Sector
                0x0000000000000000       0x54 build/default/debug/flashfunc.o
 .text.Modify_Byte_In_RAM
                0x0000000000000000        0xc build/default/debug/flashfunc.o
 .text.Flash_Write_Sector
                0x0000000000000000       0x68 build/default/debug/flashfunc.o
 .rodata.DeleteSector.str1.4
                0x0000000000000000       0x14 build/default/debug/flashfunc.o
 .text.DeleteSector
                0x0000000000000000       0x64 build/default/debug/flashfunc.o
 .sbss.i_extra  0x0000000000000000        0x4 build/default/debug/flashfunc.o
 .bss.Extra_Sector
                0x0000000000000000     0x1000 build/default/debug/flashfunc.o
 .text          0x0000000000000000        0x0 build/default/debug/mcc_generated_files/usb/usb_device_generic.o
 .data          0x0000000000000000        0x0 build/default/debug/mcc_generated_files/usb/usb_device_generic.o
 .bss           0x0000000000000000        0x0 build/default/debug/mcc_generated_files/usb/usb_device_generic.o
 .reginfo       0x0000000000000000       0x18 build/default/debug/mcc_generated_files/usb/usb_device_generic.o
 .MIPS.abiflags
                0x0000000000000000       0x18 build/default/debug/mcc_generated_files/usb/usb_device_generic.o
 .text          0x0000000000000000        0x0 build/default/debug/mcc_generated_files/usb/usb_device_events.o
 .data          0x0000000000000000        0x0 build/default/debug/mcc_generated_files/usb/usb_device_events.o
 .bss           0x0000000000000000        0x0 build/default/debug/mcc_generated_files/usb/usb_device_events.o
 .reginfo       0x0000000000000000       0x18 build/default/debug/mcc_generated_files/usb/usb_device_events.o
 .MIPS.abiflags
                0x0000000000000000       0x18 build/default/debug/mcc_generated_files/usb/usb_device_events.o
 .text          0x0000000000000000        0x0 build/default/debug/mcc_generated_files/usb/usb_device.o
 .data          0x0000000000000000        0x0 build/default/debug/mcc_generated_files/usb/usb_device.o
 .bss           0x0000000000000000        0x0 build/default/debug/mcc_generated_files/usb/usb_device.o
 .reginfo       0x0000000000000000       0x18 build/default/debug/mcc_generated_files/usb/usb_device.o
 .MIPS.abiflags
                0x0000000000000000       0x18 build/default/debug/mcc_generated_files/usb/usb_device.o
 .text.USBStallEndpoint
                0x0000000000000000       0xa8 build/default/debug/mcc_generated_files/usb/usb_device.o
 .text.USBCancelIO
                0x0000000000000000       0x9c build/default/debug/mcc_generated_files/usb/usb_device.o
 .text.USBDeviceDetach
                0x0000000000000000       0x18 build/default/debug/mcc_generated_files/usb/usb_device.o
 .text.USBGet1msTickCount
                0x0000000000000000       0x10 build/default/debug/mcc_generated_files/usb/usb_device.o
 .text          0x0000000000000000        0x0 build/default/debug/mcc_generated_files/usb/usb_descriptors.o
 .data          0x0000000000000000        0x0 build/default/debug/mcc_generated_files/usb/usb_descriptors.o
 .bss           0x0000000000000000        0x0 build/default/debug/mcc_generated_files/usb/usb_descriptors.o
 .reginfo       0x0000000000000000       0x18 build/default/debug/mcc_generated_files/usb/usb_descriptors.o
 .MIPS.abiflags
                0x0000000000000000       0x18 build/default/debug/mcc_generated_files/usb/usb_descriptors.o
 .text          0x0000000000000000        0x0 build/default/debug/mcc_generated_files/usb/usb_device_cdc.o
 .data          0x0000000000000000        0x0 build/default/debug/mcc_generated_files/usb/usb_device_cdc.o
 .bss           0x0000000000000000        0x0 build/default/debug/mcc_generated_files/usb/usb_device_cdc.o
 .reginfo       0x0000000000000000       0x18 build/default/debug/mcc_generated_files/usb/usb_device_cdc.o
 .MIPS.abiflags
                0x0000000000000000       0x18 build/default/debug/mcc_generated_files/usb/usb_device_cdc.o
 .text.CTSPin_SetHandler
                0x0000000000000000       0x38 build/default/debug/mcc_generated_files/usb/usb_device_cdc.o
 .text.USB_CDC_SetLineCodingHandler
                0x0000000000000000       0x38 build/default/debug/mcc_generated_files/usb/usb_device_cdc.o
 .text.getsUSBUSART
                0x0000000000000000       0x9c build/default/debug/mcc_generated_files/usb/usb_device_cdc.o
 .text          0x0000000000000000        0x0 build/default/debug/mcc_generated_files/uart3.o
 .data          0x0000000000000000        0x0 build/default/debug/mcc_generated_files/uart3.o
 .bss           0x0000000000000000        0x0 build/default/debug/mcc_generated_files/uart3.o
 .reginfo       0x0000000000000000       0x18 build/default/debug/mcc_generated_files/uart3.o
 .MIPS.abiflags
                0x0000000000000000       0x18 build/default/debug/mcc_generated_files/uart3.o
 .text.UART3_RxDataAvailable
                0x0000000000000000       0x2c build/default/debug/mcc_generated_files/uart3.o
 .text.UART3_TxDataAvailable
                0x0000000000000000       0x34 build/default/debug/mcc_generated_files/uart3.o
 .text.UART3_SetTxInterruptHandler
                0x0000000000000000        0x8 build/default/debug/mcc_generated_files/uart3.o
 .text.UART3_SetRxInterruptHandler
                0x0000000000000000        0x8 build/default/debug/mcc_generated_files/uart3.o
 .text.UART3_Read
                0x0000000000000000       0x34 build/default/debug/mcc_generated_files/uart3.o
 .text.UART3_IsRxReady
                0x0000000000000000       0x10 build/default/debug/mcc_generated_files/uart3.o
 .text.UART3_IsTxDone
                0x0000000000000000       0x1c build/default/debug/mcc_generated_files/uart3.o
 .text.UART3_is_rx_ready
                0x0000000000000000       0x10 build/default/debug/mcc_generated_files/uart3.o
 .text.UART3_is_tx_ready
                0x0000000000000000       0x10 build/default/debug/mcc_generated_files/uart3.o
 .text.UART3_is_tx_done
                0x0000000000000000       0x10 build/default/debug/mcc_generated_files/uart3.o
 .text.UART3_ReadBuffer
                0x0000000000000000       0x34 build/default/debug/mcc_generated_files/uart3.o
 .text.UART3_WriteBuffer
                0x0000000000000000       0x38 build/default/debug/mcc_generated_files/uart3.o
 .text.UART3_TransferStatusGet
                0x0000000000000000       0x40 build/default/debug/mcc_generated_files/uart3.o
 .text.UART3_Peek
                0x0000000000000000       0x30 build/default/debug/mcc_generated_files/uart3.o
 .text.UART3_ReceiveBufferIsEmpty
                0x0000000000000000       0x14 build/default/debug/mcc_generated_files/uart3.o
 .text.UART3_TransmitBufferIsFull
                0x0000000000000000       0x14 build/default/debug/mcc_generated_files/uart3.o
 .text.UART3_StatusGet
                0x0000000000000000        0xc build/default/debug/mcc_generated_files/uart3.o
 .text          0x0000000000000000        0x0 build/default/debug/mcc_generated_files/system.o
 .data          0x0000000000000000        0x0 build/default/debug/mcc_generated_files/system.o
 .bss           0x0000000000000000        0x0 build/default/debug/mcc_generated_files/system.o
 .reginfo       0x0000000000000000       0x18 build/default/debug/mcc_generated_files/system.o
 .MIPS.abiflags
                0x0000000000000000       0x18 build/default/debug/mcc_generated_files/system.o
 .text          0x0000000000000000        0x0 build/default/debug/mcc_generated_files/coretimer.o
 .data          0x0000000000000000        0x0 build/default/debug/mcc_generated_files/coretimer.o
 .bss           0x0000000000000000        0x0 build/default/debug/mcc_generated_files/coretimer.o
 .reginfo       0x0000000000000000       0x18 build/default/debug/mcc_generated_files/coretimer.o
 .MIPS.abiflags
                0x0000000000000000       0x18 build/default/debug/mcc_generated_files/coretimer.o
 .text.CORETIMER_EnableInterrupt
                0x0000000000000000       0x14 build/default/debug/mcc_generated_files/coretimer.o
 .text.CORETIMER_DisableInterrupt
                0x0000000000000000       0x14 build/default/debug/mcc_generated_files/coretimer.o
 .text.CORETIMER_CountGet
                0x0000000000000000       0x10 build/default/debug/mcc_generated_files/coretimer.o
 .text          0x0000000000000000        0x0 build/default/debug/mcc_generated_files/clock.o
 .data          0x0000000000000000        0x0 build/default/debug/mcc_generated_files/clock.o
 .bss           0x0000000000000000        0x0 build/default/debug/mcc_generated_files/clock.o
 .reginfo       0x0000000000000000       0x18 build/default/debug/mcc_generated_files/clock.o
 .MIPS.abiflags
                0x0000000000000000       0x18 build/default/debug/mcc_generated_files/clock.o
 .text          0x0000000000000000        0x0 build/default/debug/mcc_generated_files/exceptions.o
 .data          0x0000000000000000        0x0 build/default/debug/mcc_generated_files/exceptions.o
 .bss           0x0000000000000000        0x0 build/default/debug/mcc_generated_files/exceptions.o
 .reginfo       0x0000000000000000       0x18 build/default/debug/mcc_generated_files/exceptions.o
 .MIPS.abiflags
                0x0000000000000000       0x18 build/default/debug/mcc_generated_files/exceptions.o
 .text          0x0000000000000000        0x0 build/default/debug/mcc_generated_files/interrupt_manager.o
 .data          0x0000000000000000        0x0 build/default/debug/mcc_generated_files/interrupt_manager.o
 .bss           0x0000000000000000        0x0 build/default/debug/mcc_generated_files/interrupt_manager.o
 .reginfo       0x0000000000000000       0x18 build/default/debug/mcc_generated_files/interrupt_manager.o
 .MIPS.abiflags
                0x0000000000000000       0x18 build/default/debug/mcc_generated_files/interrupt_manager.o
 .text          0x0000000000000000        0x0 build/default/debug/mcc_generated_files/mcc.o
 .data          0x0000000000000000        0x0 build/default/debug/mcc_generated_files/mcc.o
 .bss           0x0000000000000000        0x0 build/default/debug/mcc_generated_files/mcc.o
 .reginfo       0x0000000000000000       0x18 build/default/debug/mcc_generated_files/mcc.o
 .MIPS.abiflags
                0x0000000000000000       0x18 build/default/debug/mcc_generated_files/mcc.o
 .text          0x0000000000000000        0x0 build/default/debug/mcc_generated_files/pin_manager.o
 .data          0x0000000000000000        0x0 build/default/debug/mcc_generated_files/pin_manager.o
 .bss           0x0000000000000000        0x0 build/default/debug/mcc_generated_files/pin_manager.o
 .reginfo       0x0000000000000000       0x18 build/default/debug/mcc_generated_files/pin_manager.o
 .MIPS.abiflags
                0x0000000000000000       0x18 build/default/debug/mcc_generated_files/pin_manager.o
 .text.LIGHT_INT_SetIOCInterruptHandler
                0x0000000000000000       0x10 build/default/debug/mcc_generated_files/pin_manager.o
 .text.ACC_INT1_SetIOCInterruptHandler
                0x0000000000000000       0x10 build/default/debug/mcc_generated_files/pin_manager.o
 .text.TEMP_INT_SetIOCInterruptHandler
                0x0000000000000000       0x10 build/default/debug/mcc_generated_files/pin_manager.o
 .text.UNO_INT1_SetIOCInterruptHandler
                0x0000000000000000       0x10 build/default/debug/mcc_generated_files/pin_manager.o
 .text.ACC_INT2_SetIOCInterruptHandler
                0x0000000000000000       0x10 build/default/debug/mcc_generated_files/pin_manager.o
 .text.UNO_INT0_SetIOCInterruptHandler
                0x0000000000000000       0x10 build/default/debug/mcc_generated_files/pin_manager.o
 .text          0x0000000000000000        0x0 build/default/debug/mcc_generated_files/i2c1_driver.o
 .data          0x0000000000000000        0x0 build/default/debug/mcc_generated_files/i2c1_driver.o
 .bss           0x0000000000000000        0x0 build/default/debug/mcc_generated_files/i2c1_driver.o
 .reginfo       0x0000000000000000       0x18 build/default/debug/mcc_generated_files/i2c1_driver.o
 .MIPS.abiflags
                0x0000000000000000       0x18 build/default/debug/mcc_generated_files/i2c1_driver.o
 .text.i2c1_driver_close
                0x0000000000000000       0x14 build/default/debug/mcc_generated_files/i2c1_driver.o
 .text.i2c1_enableIRQ
                0x0000000000000000       0x2c build/default/debug/mcc_generated_files/i2c1_driver.o
 .text.i2c1_IRQisEnabled
                0x0000000000000000       0x30 build/default/debug/mcc_generated_files/i2c1_driver.o
 .text.i2c1_disableIRQ
                0x0000000000000000       0x2c build/default/debug/mcc_generated_files/i2c1_driver.o
 .text.i2c1_clearIRQ
                0x0000000000000000       0x2c build/default/debug/mcc_generated_files/i2c1_driver.o
 .text.i2c1_setIRQ
                0x0000000000000000       0x2c build/default/debug/mcc_generated_files/i2c1_driver.o
 .text.i2c1_waitForEvent
                0x0000000000000000       0x54 build/default/debug/mcc_generated_files/i2c1_driver.o
 .text.i2c1_driver_driver_open
                0x0000000000000000       0x34 build/default/debug/mcc_generated_files/i2c1_driver.o
 .text.i2c1_driver_initSlaveHardware
                0x0000000000000000       0x34 build/default/debug/mcc_generated_files/i2c1_driver.o
 .text.i2c1_driver_resetBus
                0x0000000000000000        0x4 build/default/debug/mcc_generated_files/i2c1_driver.o
 .text.i2c1_driver_start
                0x0000000000000000       0x14 build/default/debug/mcc_generated_files/i2c1_driver.o
 .text.i2c1_driver_restart
                0x0000000000000000       0x14 build/default/debug/mcc_generated_files/i2c1_driver.o
 .text.i2c1_driver_stop
                0x0000000000000000       0x14 build/default/debug/mcc_generated_files/i2c1_driver.o
 .text.i2c1_driver_isNACK
                0x0000000000000000       0x10 build/default/debug/mcc_generated_files/i2c1_driver.o
 .text.i2c1_driver_startRX
                0x0000000000000000       0x14 build/default/debug/mcc_generated_files/i2c1_driver.o
 .text.i2c1_driver_getRXData
                0x0000000000000000        0xc build/default/debug/mcc_generated_files/i2c1_driver.o
 .text.i2c1_driver_TXData
                0x0000000000000000        0xc build/default/debug/mcc_generated_files/i2c1_driver.o
 .text.i2c1_driver_sendACK
                0x0000000000000000       0x20 build/default/debug/mcc_generated_files/i2c1_driver.o
 .text.i2c1_driver_sendNACK
                0x0000000000000000       0x20 build/default/debug/mcc_generated_files/i2c1_driver.o
 .text.i2c1_driver_releaseClock
                0x0000000000000000       0x14 build/default/debug/mcc_generated_files/i2c1_driver.o
 .text.i2c1_driver_isBuferFull
                0x0000000000000000       0x1c build/default/debug/mcc_generated_files/i2c1_driver.o
 .text.i2c1_driver_isStart
                0x0000000000000000       0x10 build/default/debug/mcc_generated_files/i2c1_driver.o
 .text.i2c1_driver_isAddress
                0x0000000000000000       0x14 build/default/debug/mcc_generated_files/i2c1_driver.o
 .text.i2c1_driver_isStop
                0x0000000000000000       0x10 build/default/debug/mcc_generated_files/i2c1_driver.o
 .text.i2c1_driver_isData
                0x0000000000000000       0x10 build/default/debug/mcc_generated_files/i2c1_driver.o
 .text.i2c1_driver_isRead
                0x0000000000000000       0x10 build/default/debug/mcc_generated_files/i2c1_driver.o
 .text.i2c1_driver_clearBusCollision
                0x0000000000000000       0x14 build/default/debug/mcc_generated_files/i2c1_driver.o
 .text.i2c1_driver_enableStartIRQ
                0x0000000000000000       0x14 build/default/debug/mcc_generated_files/i2c1_driver.o
 .text.i2c1_driver_disableStartIRQ
                0x0000000000000000       0x14 build/default/debug/mcc_generated_files/i2c1_driver.o
 .text.i2c1_driver_enableStopIRQ
                0x0000000000000000       0x14 build/default/debug/mcc_generated_files/i2c1_driver.o
 .text.i2c1_driver_disableStopIRQ
                0x0000000000000000       0x14 build/default/debug/mcc_generated_files/i2c1_driver.o
 .text.i2c1_driver_setBusCollisionISR
                0x0000000000000000        0x8 build/default/debug/mcc_generated_files/i2c1_driver.o
 .text.i2c1_driver_setMasterI2cISR
                0x0000000000000000        0x8 build/default/debug/mcc_generated_files/i2c1_driver.o
 .text.i2c1_driver_setSlaveI2cISR
                0x0000000000000000        0x8 build/default/debug/mcc_generated_files/i2c1_driver.o
 .text          0x0000000000000000        0x0 build/default/debug/mcc_generated_files/spi2_driver.o
 .data          0x0000000000000000        0x0 build/default/debug/mcc_generated_files/spi2_driver.o
 .bss           0x0000000000000000        0x0 build/default/debug/mcc_generated_files/spi2_driver.o
 .reginfo       0x0000000000000000       0x18 build/default/debug/mcc_generated_files/spi2_driver.o
 .MIPS.abiflags
                0x0000000000000000       0x18 build/default/debug/mcc_generated_files/spi2_driver.o
 .text.spi2_open
                0x0000000000000000       0x78 build/default/debug/mcc_generated_files/spi2_driver.o
 .text.spi2_exchangeByte
                0x0000000000000000       0x20 build/default/debug/mcc_generated_files/spi2_driver.o
 .text.spi2_exchangeBlock
                0x0000000000000000       0x28 build/default/debug/mcc_generated_files/spi2_driver.o
 .text.spi2_writeBlock
                0x0000000000000000       0x24 build/default/debug/mcc_generated_files/spi2_driver.o
 .text.spi2_readBlock
                0x0000000000000000       0x24 build/default/debug/mcc_generated_files/spi2_driver.o
 .text.spi2_writeByte
                0x0000000000000000        0xc build/default/debug/mcc_generated_files/spi2_driver.o
 .text.spi2_readByte
                0x0000000000000000        0xc build/default/debug/mcc_generated_files/spi2_driver.o
 .text.spi2_isr
                0x0000000000000000       0x38 build/default/debug/mcc_generated_files/spi2_driver.o
 .text.spi2_setSpiISR
                0x0000000000000000        0x8 build/default/debug/mcc_generated_files/spi2_driver.o
 .rodata.spi2_configuration
                0x0000000000000000       0x64 build/default/debug/mcc_generated_files/spi2_driver.o
 .sbss.spi2_interruptHandler
                0x0000000000000000        0x4 build/default/debug/mcc_generated_files/spi2_driver.o
 .text          0x0000000000000000        0x0 build/default/debug/mcc_generated_files/uart2.o
 .data          0x0000000000000000        0x0 build/default/debug/mcc_generated_files/uart2.o
 .bss           0x0000000000000000        0x0 build/default/debug/mcc_generated_files/uart2.o
 .reginfo       0x0000000000000000       0x18 build/default/debug/mcc_generated_files/uart2.o
 .MIPS.abiflags
                0x0000000000000000       0x18 build/default/debug/mcc_generated_files/uart2.o
 .text.UART2_RxDataAvailable
                0x0000000000000000       0x2c build/default/debug/mcc_generated_files/uart2.o
 .text.UART2_TxDataAvailable
                0x0000000000000000       0x34 build/default/debug/mcc_generated_files/uart2.o
 .text.UART2_SetTxInterruptHandler
                0x0000000000000000       0x14 build/default/debug/mcc_generated_files/uart2.o
 .text.UART2_SetRxInterruptHandler
                0x0000000000000000       0x14 build/default/debug/mcc_generated_files/uart2.o
 .text.UART2_ReadBuffer
                0x0000000000000000       0x34 build/default/debug/mcc_generated_files/uart2.o
 .text.UART2_WriteBuffer
                0x0000000000000000       0x38 build/default/debug/mcc_generated_files/uart2.o
 .text.UART2_TransferStatusGet
                0x0000000000000000       0x40 build/default/debug/mcc_generated_files/uart2.o
 .text.UART2_Peek
                0x0000000000000000       0x30 build/default/debug/mcc_generated_files/uart2.o
 .text.UART2_ReceiveBufferIsEmpty
                0x0000000000000000       0x14 build/default/debug/mcc_generated_files/uart2.o
 .text.UART2_TransmitBufferIsFull
                0x0000000000000000       0x14 build/default/debug/mcc_generated_files/uart2.o
 .text.UART2_StatusGet
                0x0000000000000000        0xc build/default/debug/mcc_generated_files/uart2.o
 .text.UART2_TransmitBufferSizeGet
                0x0000000000000000       0x3c build/default/debug/mcc_generated_files/uart2.o
 .text.UART2_ReceiveBufferSizeGet
                0x0000000000000000       0x3c build/default/debug/mcc_generated_files/uart2.o
 .text.UART2_Enable
                0x0000000000000000       0x24 build/default/debug/mcc_generated_files/uart2.o
 .text.UART2_Disable
                0x0000000000000000       0x24 build/default/debug/mcc_generated_files/uart2.o
 .text          0x0000000000000000        0x0 build/default/debug/_ext/1209153551/Buttons.o
 .data          0x0000000000000000        0x0 build/default/debug/_ext/1209153551/Buttons.o
 .bss           0x0000000000000000        0x0 build/default/debug/_ext/1209153551/Buttons.o
 .reginfo       0x0000000000000000       0x18 build/default/debug/_ext/1209153551/Buttons.o
 .MIPS.abiflags
                0x0000000000000000       0x18 build/default/debug/_ext/1209153551/Buttons.o
 .text.BUTTON_GetState
                0x0000000000000000      0x114 build/default/debug/_ext/1209153551/Buttons.o
 .bss.ModeBtCxt
                0x0000000000000000       0x14 build/default/debug/_ext/1209153551/Buttons.o
 .text          0x0000000000000000        0x0 build/default/debug/_ext/1362353914/TelitAtCmd.o
 .data          0x0000000000000000        0x0 build/default/debug/_ext/1362353914/TelitAtCmd.o
 .bss           0x0000000000000000        0x0 build/default/debug/_ext/1362353914/TelitAtCmd.o
 .reginfo       0x0000000000000000       0x18 build/default/debug/_ext/1362353914/TelitAtCmd.o
 .MIPS.abiflags
                0x0000000000000000       0x18 build/default/debug/_ext/1362353914/TelitAtCmd.o
 .text.ATCMD_Init
                0x0000000000000000       0x40 build/default/debug/_ext/1362353914/TelitAtCmd.o
 .text.ATCMD_SendRaw
                0x0000000000000000       0x78 build/default/debug/_ext/1362353914/TelitAtCmd.o
 .text.ATCMD_GetRaw
                0x0000000000000000       0xb8 build/default/debug/_ext/1362353914/TelitAtCmd.o
 .text.ATCMD_SendGetDat
                0x0000000000000000       0x98 build/default/debug/_ext/1362353914/TelitAtCmd.o
 .text.ATCMD_SendGetAck
                0x0000000000000000      0x1b0 build/default/debug/_ext/1362353914/TelitAtCmd.o
 .text.ATCMD_GetAck
                0x0000000000000000      0x154 build/default/debug/_ext/1362353914/TelitAtCmd.o
 .rodata.__ATCMD_Test.str1.4
                0x0000000000000000        0x4 build/default/debug/_ext/1362353914/TelitAtCmd.o
 .text.__ATCMD_Test
                0x0000000000000000      0x11c build/default/debug/_ext/1362353914/TelitAtCmd.o
 .text.ATCMD_Delay
                0x0000000000000000       0x18 build/default/debug/_ext/1362353914/TelitAtCmd.o
 .sbss.NAckCount.11274
                0x0000000000000000        0x4 build/default/debug/_ext/1362353914/TelitAtCmd.o
 .sbss.AckCount.11273
                0x0000000000000000        0x4 build/default/debug/_ext/1362353914/TelitAtCmd.o
 .sbss.NAckCount.11254
                0x0000000000000000        0x4 build/default/debug/_ext/1362353914/TelitAtCmd.o
 .sbss.AckCount.11253
                0x0000000000000000        0x4 build/default/debug/_ext/1362353914/TelitAtCmd.o
 .data.TickRaw  0x0000000000000000        0x9 build/default/debug/_ext/1362353914/TelitAtCmd.o
 .sdata.Tdelay  0x0000000000000000        0x4 build/default/debug/_ext/1362353914/TelitAtCmd.o
 .sbss.DoNext   0x0000000000000000        0x1 build/default/debug/_ext/1362353914/TelitAtCmd.o
 .sbss.TestCount
                0x0000000000000000        0x1 build/default/debug/_ext/1362353914/TelitAtCmd.o
 .sbss.ReTry    0x0000000000000000        0x1 build/default/debug/_ext/1362353914/TelitAtCmd.o
 .sbss.RxCount  0x0000000000000000        0x4 build/default/debug/_ext/1362353914/TelitAtCmd.o
 .data.AtCmdRxBuff
                0x0000000000000000        0xc build/default/debug/_ext/1362353914/TelitAtCmd.o
 .bss.AtCmdData
                0x0000000000000000      0x200 build/default/debug/_ext/1362353914/TelitAtCmd.o
 .rodata.RES_ERROR
                0x0000000000000000        0xc build/default/debug/_ext/1362353914/TelitAtCmd.o
 .rodata.RES_OK
                0x0000000000000000        0x8 build/default/debug/_ext/1362353914/TelitAtCmd.o
 .text          0x0000000000000000        0x0 build/default/debug/_ext/1362353914/TelitPwrCtrl.o
 .data          0x0000000000000000        0x0 build/default/debug/_ext/1362353914/TelitPwrCtrl.o
 .bss           0x0000000000000000        0x0 build/default/debug/_ext/1362353914/TelitPwrCtrl.o
 .reginfo       0x0000000000000000       0x18 build/default/debug/_ext/1362353914/TelitPwrCtrl.o
 .MIPS.abiflags
                0x0000000000000000       0x18 build/default/debug/_ext/1362353914/TelitPwrCtrl.o
 .text.Telit_PwrCtrl_Tasks
                0x0000000000000000      0x58c build/default/debug/_ext/1362353914/TelitPwrCtrl.o
 .text.Telit_TurnOn
                0x0000000000000000       0x68 build/default/debug/_ext/1362353914/TelitPwrCtrl.o
 .text.Telit_TurnOff
                0x0000000000000000       0x44 build/default/debug/_ext/1362353914/TelitPwrCtrl.o
 .text.Telit_PwrCtrl_IsError
                0x0000000000000000       0x18 build/default/debug/_ext/1362353914/TelitPwrCtrl.o
 .text.Telit_PwrCtrl_Init
                0x0000000000000000       0x18 build/default/debug/_ext/1362353914/TelitPwrCtrl.o
 .bss.__TaskCxt_Telit_PwrCtrl_Tasks
                0x0000000000000000       0x14 build/default/debug/_ext/1362353914/TelitPwrCtrl.o
 .sbss.TelitState
                0x0000000000000000        0x4 build/default/debug/_ext/1362353914/TelitPwrCtrl.o
 .bss.PwrCtrlCxt
                0x0000000000000000       0x18 build/default/debug/_ext/1362353914/TelitPwrCtrl.o
 .text          0x0000000000000000        0x0 build/default/debug/_ext/1124510853/Debug.o
 .data          0x0000000000000000        0x0 build/default/debug/_ext/1124510853/Debug.o
 .bss           0x0000000000000000        0x0 build/default/debug/_ext/1124510853/Debug.o
 .reginfo       0x0000000000000000       0x18 build/default/debug/_ext/1124510853/Debug.o
 .MIPS.abiflags
                0x0000000000000000       0x18 build/default/debug/_ext/1124510853/Debug.o
 .text.debug_hexs
                0x0000000000000000       0x40 build/default/debug/_ext/1124510853/Debug.o
 .rodata.debug_hexf.str1.4
                0x0000000000000000        0xc build/default/debug/_ext/1124510853/Debug.o
 .text.debug_hexf
                0x0000000000000000       0x9c build/default/debug/_ext/1124510853/Debug.o
 .text.debug_i32
                0x0000000000000000       0x20 build/default/debug/_ext/1124510853/Debug.o
 .text.debug_data
                0x0000000000000000       0x4c build/default/debug/_ext/1124510853/Debug.o
 .text.debug_time
                0x0000000000000000       0x2c build/default/debug/_ext/1124510853/Debug.o
 .text.debug_date
                0x0000000000000000       0x2c build/default/debug/_ext/1124510853/Debug.o
 .text.dbsi     0x0000000000000000       0x18 build/default/debug/_ext/1124510853/Debug.o
 .text.dbsu     0x0000000000000000       0x18 build/default/debug/_ext/1124510853/Debug.o
 .text.dbsc     0x0000000000000000       0x18 build/default/debug/_ext/1124510853/Debug.o
 .text.dbss     0x0000000000000000       0x1c build/default/debug/_ext/1124510853/Debug.o
 .text.dbstime  0x0000000000000000       0x20 build/default/debug/_ext/1124510853/Debug.o
 .text.dbsdate  0x0000000000000000       0x20 build/default/debug/_ext/1124510853/Debug.o
 .text.dbsdata  0x0000000000000000       0x1c build/default/debug/_ext/1124510853/Debug.o
 .text          0x0000000000000000        0x0 build/default/debug/_ext/1124510853/Utils.o
 .data          0x0000000000000000        0x0 build/default/debug/_ext/1124510853/Utils.o
 .bss           0x0000000000000000        0x0 build/default/debug/_ext/1124510853/Utils.o
 .reginfo       0x0000000000000000       0x18 build/default/debug/_ext/1124510853/Utils.o
 .MIPS.abiflags
                0x0000000000000000       0x18 build/default/debug/_ext/1124510853/Utils.o
 .text.mymemset
                0x0000000000000000       0x18 build/default/debug/_ext/1124510853/Utils.o
 .text.mymemcpy
                0x0000000000000000       0x18 build/default/debug/_ext/1124510853/Utils.o
 .text.mystrchr
                0x0000000000000000       0x24 build/default/debug/_ext/1124510853/Utils.o
 .text.mystrcpy
                0x0000000000000000       0x14 build/default/debug/_ext/1124510853/Utils.o
 .text.random8  0x0000000000000000       0x3c build/default/debug/_ext/1124510853/Utils.o
 .text.random8s
                0x0000000000000000       0x44 build/default/debug/_ext/1124510853/Utils.o
 .text.UpperCase
                0x0000000000000000       0x14 build/default/debug/_ext/1124510853/Utils.o
 .text.str_uppercase
                0x0000000000000000       0x24 build/default/debug/_ext/1124510853/Utils.o
 .text.LowerCase
                0x0000000000000000       0x14 build/default/debug/_ext/1124510853/Utils.o
 .text.str_lowercase
                0x0000000000000000       0x24 build/default/debug/_ext/1124510853/Utils.o
 .text.FindString
                0x0000000000000000       0x3c build/default/debug/_ext/1124510853/Utils.o
 .text.Copy_Str2Break
                0x0000000000000000       0x24 build/default/debug/_ext/1124510853/Utils.o
 .text.str_len2break
                0x0000000000000000       0x28 build/default/debug/_ext/1124510853/Utils.o
 .text.str_cmp  0x0000000000000000       0x44 build/default/debug/_ext/1124510853/Utils.o
 .text.str_cmp_without_case
                0x0000000000000000       0x4c build/default/debug/_ext/1124510853/Utils.o
 .text.findSString
                0x0000000000000000       0x40 build/default/debug/_ext/1124510853/Utils.o
 .text.remove_1st_Substring
                0x0000000000000000       0x70 build/default/debug/_ext/1124510853/Utils.o
 .text.delSString
                0x0000000000000000       0x1c build/default/debug/_ext/1124510853/Utils.o
 .text.str_remove
                0x0000000000000000       0x54 build/default/debug/_ext/1124510853/Utils.o
 .text.str_sremove
                0x0000000000000000       0x74 build/default/debug/_ext/1124510853/Utils.o
 .text.str_nremove
                0x0000000000000000       0x88 build/default/debug/_ext/1124510853/Utils.o
 .text.str_is_number
                0x0000000000000000       0x18 build/default/debug/_ext/1124510853/Utils.o
 .text.str_count
                0x0000000000000000       0x1c build/default/debug/_ext/1124510853/Utils.o
 .text.str_n_index
                0x0000000000000000       0x38 build/default/debug/_ext/1124510853/Utils.o
 .text.str_last_contain
                0x0000000000000000       0x6c build/default/debug/_ext/1124510853/Utils.o
 .text.str_last_contain_idx
                0x0000000000000000       0x1c build/default/debug/_ext/1124510853/Utils.o
 .text.str_n_contain
                0x0000000000000000       0x24 build/default/debug/_ext/1124510853/Utils.o
 .text.str_sub  0x0000000000000000       0x58 build/default/debug/_ext/1124510853/Utils.o
 .text.str_first
                0x0000000000000000       0x24 build/default/debug/_ext/1124510853/Utils.o
 .text.str_last
                0x0000000000000000       0x18 build/default/debug/_ext/1124510853/Utils.o
 .text.IntParse
                0x0000000000000000       0x4c build/default/debug/_ext/1124510853/Utils.o
 .text.UIntParse
                0x0000000000000000       0x34 build/default/debug/_ext/1124510853/Utils.o
 .text.HexParse
                0x0000000000000000       0x3c build/default/debug/_ext/1124510853/Utils.o
 .text.is_hex_data
                0x0000000000000000       0x20 build/default/debug/_ext/1124510853/Utils.o
 .text.is_printable
                0x0000000000000000        0xc build/default/debug/_ext/1124510853/Utils.o
 .text.StrCmp   0x0000000000000000       0x28 build/default/debug/_ext/1124510853/Utils.o
 .text.crc_ccitt
                0x0000000000000000       0x34 build/default/debug/_ext/1124510853/Utils.o
 .text.Crc16_Calc
                0x0000000000000000       0x4c build/default/debug/_ext/1124510853/Utils.o
 .text.Mask     0x0000000000000000       0x6c build/default/debug/_ext/1124510853/Utils.o
 .text.UnMask   0x0000000000000000       0x48 build/default/debug/_ext/1124510853/Utils.o
 .text.CalcSum8
                0x0000000000000000       0x1c build/default/debug/_ext/1124510853/Utils.o
 .text.Swap_nBits
                0x0000000000000000       0x20 build/default/debug/_ext/1124510853/Utils.o
 .text.Swap_2Bytes
                0x0000000000000000        0x8 build/default/debug/_ext/1124510853/Utils.o
 .text.Convert16to2x8
                0x0000000000000000        0x8 build/default/debug/_ext/1124510853/Utils.o
 .text.Convert32to4x8
                0x0000000000000000       0x14 build/default/debug/_ext/1124510853/Utils.o
 .text.Convert2x8to16
                0x0000000000000000        0xc build/default/debug/_ext/1124510853/Utils.o
 .text.Convert4x8to32
                0x0000000000000000       0x18 build/default/debug/_ext/1124510853/Utils.o
 .text.ConvertStr2Integer
                0x0000000000000000       0x40 build/default/debug/_ext/1124510853/Utils.o
 .text.chr2int  0x0000000000000000       0x18 build/default/debug/_ext/1124510853/Utils.o
 .text.StrHex2Int
                0x0000000000000000       0x6c build/default/debug/_ext/1124510853/Utils.o
 .text.BinSearch
                0x0000000000000000       0x44 build/default/debug/_ext/1124510853/Utils.o
 .text.bits_reverse_8
                0x0000000000000000       0x34 build/default/debug/_ext/1124510853/Utils.o
 .text.bits_reverse_16
                0x0000000000000000       0x3c build/default/debug/_ext/1124510853/Utils.o
 .text.bits_reverse_32
                0x0000000000000000       0x70 build/default/debug/_ext/1124510853/Utils.o
 .text.bits_mask_32
                0x0000000000000000        0xc build/default/debug/_ext/1124510853/Utils.o
 .text.bits_insert_32
                0x0000000000000000       0x1c build/default/debug/_ext/1124510853/Utils.o
 .text.AHex2Bcd
                0x0000000000000000       0x44 build/default/debug/_ext/1124510853/Utils.o
 .text.Array2AHex
                0x0000000000000000       0x44 build/default/debug/_ext/1124510853/Utils.o
 .text.AHex2Array
                0x0000000000000000       0x48 build/default/debug/_ext/1124510853/Utils.o
 .text.u32str   0x0000000000000000       0x60 build/default/debug/_ext/1124510853/Utils.o
 .text.i32str   0x0000000000000000       0x20 build/default/debug/_ext/1124510853/Utils.o
 .text.CheckLeapYear
                0x0000000000000000       0x4c build/default/debug/_ext/1124510853/Utils.o
 .rodata        0x0000000000000000        0xc build/default/debug/_ext/1124510853/Utils.o
 .text.Calc_DayOfWeek
                0x0000000000000000       0x64 build/default/debug/_ext/1124510853/Utils.o
 .text.Dec2BCD  0x0000000000000000       0x20 build/default/debug/_ext/1124510853/Utils.o
 .text.BCD2Dec  0x0000000000000000       0x10 build/default/debug/_ext/1124510853/Utils.o
 .text.iir      0x0000000000000000       0x30 build/default/debug/_ext/1124510853/Utils.o
 .rodata.DayOfMonth
                0x0000000000000000        0xc build/default/debug/_ext/1124510853/Utils.o
 .text          0x0000000000000000        0x0 build/default/debug/_ext/657024065/PIC32MM_Gpio.o
 .data          0x0000000000000000        0x0 build/default/debug/_ext/657024065/PIC32MM_Gpio.o
 .bss           0x0000000000000000        0x0 build/default/debug/_ext/657024065/PIC32MM_Gpio.o
 .reginfo       0x0000000000000000       0x18 build/default/debug/_ext/657024065/PIC32MM_Gpio.o
 .MIPS.abiflags
                0x0000000000000000       0x18 build/default/debug/_ext/657024065/PIC32MM_Gpio.o
 .text.Gpio_Get
                0x0000000000000000       0x44 build/default/debug/_ext/657024065/PIC32MM_Gpio.o
 .text.Gpio_GetPinName
                0x0000000000000000       0x54 build/default/debug/_ext/657024065/PIC32MM_Gpio.o
 .text          0x0000000000000000        0x0 build/default/debug/_ext/657024065/softWdt.o
 .data          0x0000000000000000        0x0 build/default/debug/_ext/657024065/softWdt.o
 .bss           0x0000000000000000        0x0 build/default/debug/_ext/657024065/softWdt.o
 .reginfo       0x0000000000000000       0x18 build/default/debug/_ext/657024065/softWdt.o
 .MIPS.abiflags
                0x0000000000000000       0x18 build/default/debug/_ext/657024065/softWdt.o
 .text.SYS_SoftReset
                0x0000000000000000       0x38 build/default/debug/_ext/657024065/softWdt.o
 .text.softWDT_Disable
                0x0000000000000000       0x28 build/default/debug/_ext/657024065/softWdt.o
 .text          0x0000000000000000        0x0 build/default/debug/_ext/657024065/TaskManager.o
 .data          0x0000000000000000        0x0 build/default/debug/_ext/657024065/TaskManager.o
 .bss           0x0000000000000000        0x0 build/default/debug/_ext/657024065/TaskManager.o
 .reginfo       0x0000000000000000       0x18 build/default/debug/_ext/657024065/TaskManager.o
 .MIPS.abiflags
                0x0000000000000000       0x18 build/default/debug/_ext/657024065/TaskManager.o
 .text.TaskManager_Remove_Task
                0x0000000000000000       0x44 build/default/debug/_ext/657024065/TaskManager.o
 .text.TaskManager_SendMessage
                0x0000000000000000       0x38 build/default/debug/_ext/657024065/TaskManager.o
 .text.TaskManager_IsTaskReady
                0x0000000000000000       0x34 build/default/debug/_ext/657024065/TaskManager.o
 .text.TaskManager_Init
                0x0000000000000000        0xc build/default/debug/_ext/657024065/TaskManager.o
 .text          0x0000000000000000        0x0 build/default/debug/_ext/657024065/TickTimer.o
 .data          0x0000000000000000        0x0 build/default/debug/_ext/657024065/TickTimer.o
 .bss           0x0000000000000000        0x0 build/default/debug/_ext/657024065/TickTimer.o
 .reginfo       0x0000000000000000       0x18 build/default/debug/_ext/657024065/TickTimer.o
 .MIPS.abiflags
                0x0000000000000000       0x18 build/default/debug/_ext/657024065/TickTimer.o
 .text.Delay    0x0000000000000000       0x5c build/default/debug/_ext/657024065/TickTimer.o
 .text          0x0000000000000000        0x0 build/default/debug/User/AppMain.o
 .data          0x0000000000000000        0x0 build/default/debug/User/AppMain.o
 .bss           0x0000000000000000        0x0 build/default/debug/User/AppMain.o
 .reginfo       0x0000000000000000       0x18 build/default/debug/User/AppMain.o
 .MIPS.abiflags
                0x0000000000000000       0x18 build/default/debug/User/AppMain.o
 .rodata.I2C_Scan.str1.4
                0x0000000000000000       0x1c build/default/debug/User/AppMain.o
 .text.I2C_Scan
                0x0000000000000000      0x114 build/default/debug/User/AppMain.o
 .rodata.Display_Volatge.str1.4
                0x0000000000000000       0x4c build/default/debug/User/AppMain.o
 .text.Display_Volatge
                0x0000000000000000      0x264 build/default/debug/User/AppMain.o
 .text.Telit_SendDataBack
                0x0000000000000000       0x1c build/default/debug/User/AppMain.o
 .text.Telit_ReceiveData
                0x0000000000000000       0x2c build/default/debug/User/AppMain.o
 .sbss.b        0x0000000000000000        0x4 build/default/debug/User/AppMain.o
 .sbss.a        0x0000000000000000        0x4 build/default/debug/User/AppMain.o
 .sbss.space_Flag
                0x0000000000000000        0x4 build/default/debug/User/AppMain.o
 .data.data     0x0000000000000000      0x100 build/default/debug/User/AppMain.o
 .bss.buffer    0x0000000000000000      0x100 build/default/debug/User/AppMain.o
 .sdata.state_flag
                0x0000000000000000        0x1 build/default/debug/User/AppMain.o
 .sbss.add      0x0000000000000000        0x4 build/default/debug/User/AppMain.o
 .text          0x0000000000000000        0x0 build/default/debug/User/VCP.o
 .data          0x0000000000000000        0x0 build/default/debug/User/VCP.o
 .bss           0x0000000000000000        0x0 build/default/debug/User/VCP.o
 .reginfo       0x0000000000000000       0x18 build/default/debug/User/VCP.o
 .MIPS.abiflags
                0x0000000000000000       0x18 build/default/debug/User/VCP.o
 .text          0x0000000000000000        0x0 build/default/debug/User/VCP_Debug.o
 .data          0x0000000000000000        0x0 build/default/debug/User/VCP_Debug.o
 .bss           0x0000000000000000        0x0 build/default/debug/User/VCP_Debug.o
 .reginfo       0x0000000000000000       0x18 build/default/debug/User/VCP_Debug.o
 .MIPS.abiflags
                0x0000000000000000       0x18 build/default/debug/User/VCP_Debug.o
 .text.VCP_Debug_SetRxCallback
                0x0000000000000000        0xc build/default/debug/User/VCP_Debug.o
 .text          0x0000000000000000        0x0 build/default/debug/main.o
 .data          0x0000000000000000        0x0 build/default/debug/main.o
 .bss           0x0000000000000000        0x0 build/default/debug/main.o
 .reginfo       0x0000000000000000       0x18 build/default/debug/main.o
 .MIPS.abiflags
                0x0000000000000000       0x18 build/default/debug/main.o
 .text          0x0000000000000000        0x0 C:\Users\ADMIN\AppData\Local\Temp\ccMUuKnQ.o
 .data          0x0000000000000000        0x0 C:\Users\ADMIN\AppData\Local\Temp\ccMUuKnQ.o
 .bss           0x0000000000000000        0x0 C:\Users\ADMIN\AppData\Local\Temp\ccMUuKnQ.o
 .reginfo       0x0000000000000000       0x18 C:\Users\ADMIN\AppData\Local\Temp\ccMUuKnQ.o
 .MIPS.abiflags
                0x0000000000000000       0x18 C:\Users\ADMIN\AppData\Local\Temp\ccMUuKnQ.o
 .text          0x0000000000000000        0x0 C:\Users\ADMIN\AppData\Local\Temp\ccvzJgnR.o
 .data          0x0000000000000000        0x0 C:\Users\ADMIN\AppData\Local\Temp\ccvzJgnR.o
 .bss           0x0000000000000000        0x0 C:\Users\ADMIN\AppData\Local\Temp\ccvzJgnR.o
 .reginfo       0x0000000000000000       0x18 C:\Users\ADMIN\AppData\Local\Temp\ccvzJgnR.o
 .MIPS.abiflags
                0x0000000000000000       0x18 C:\Users\ADMIN\AppData\Local\Temp\ccvzJgnR.o
 .text          0x0000000000000000        0x0 C:\Users\ADMIN\AppData\Local\Temp\ccUDEFaV.o
 .data          0x0000000000000000        0x0 C:\Users\ADMIN\AppData\Local\Temp\ccUDEFaV.o
 .bss           0x0000000000000000        0x0 C:\Users\ADMIN\AppData\Local\Temp\ccUDEFaV.o
 .reginfo       0x0000000000000000       0x18 C:\Users\ADMIN\AppData\Local\Temp\ccUDEFaV.o
 .MIPS.abiflags
                0x0000000000000000       0x18 C:\Users\ADMIN\AppData\Local\Temp\ccUDEFaV.o
 .discard       0x0000000000000000      0x198 C:\Users\ADMIN\AppData\Local\Temp\ccUDEFaV.o
 .text          0x0000000000000000        0x0 c:/program files/microchip/xc32/v4.40/bin/bin/../../lib/gcc/pic32mx/8.3.1/../../../../pic32mx/lib/./proc/32MM0256GPM048\default_isr_vectors.o
 .data          0x0000000000000000        0x0 c:/program files/microchip/xc32/v4.40/bin/bin/../../lib/gcc/pic32mx/8.3.1/../../../../pic32mx/lib/./proc/32MM0256GPM048\default_isr_vectors.o
 .bss           0x0000000000000000        0x0 c:/program files/microchip/xc32/v4.40/bin/bin/../../lib/gcc/pic32mx/8.3.1/../../../../pic32mx/lib/./proc/32MM0256GPM048\default_isr_vectors.o
 .reginfo       0x0000000000000000       0x18 c:/program files/microchip/xc32/v4.40/bin/bin/../../lib/gcc/pic32mx/8.3.1/../../../../pic32mx/lib/./proc/32MM0256GPM048\default_isr_vectors.o
 .MIPS.abiflags
                0x0000000000000000       0x18 c:/program files/microchip/xc32/v4.40/bin/bin/../../lib/gcc/pic32mx/8.3.1/../../../../pic32mx/lib/./proc/32MM0256GPM048\default_isr_vectors.o
 .discard       0x0000000000000000      0x198 c:/program files/microchip/xc32/v4.40/bin/bin/../../lib/gcc/pic32mx/8.3.1/../../../../pic32mx/lib/./proc/32MM0256GPM048\default_isr_vectors.o
 .data          0x0000000000000000        0x0 c:/program files/microchip/xc32/v4.40/bin/bin/../../lib/gcc/pic32mx/8.3.1/../../../../pic32mx/lib/micromips\pic32_software_reset.o
 .bss           0x0000000000000000        0x0 c:/program files/microchip/xc32/v4.40/bin/bin/../../lib/gcc/pic32mx/8.3.1/../../../../pic32mx/lib/micromips\pic32_software_reset.o
 .reginfo       0x0000000000000000       0x18 c:/program files/microchip/xc32/v4.40/bin/bin/../../lib/gcc/pic32mx/8.3.1/../../../../pic32mx/lib/micromips\pic32_software_reset.o
 .MIPS.abiflags
                0x0000000000000000       0x18 c:/program files/microchip/xc32/v4.40/bin/bin/../../lib/gcc/pic32mx/8.3.1/../../../../pic32mx/lib/micromips\pic32_software_reset.o
 .xc_stack_usage.hdr
                0x0000000000000000        0xe c:/program files/microchip/xc32/v4.40/bin/bin/../../lib/gcc/pic32mx/8.3.1/../../../../pic32mx/lib/micromips\pic32_software_reset.o
 .xc_stack_usage
                0x0000000000000000       0x24 c:/program files/microchip/xc32/v4.40/bin/bin/../../lib/gcc/pic32mx/8.3.1/../../../../pic32mx/lib/micromips\pic32_software_reset.o
 .data          0x0000000000000000        0x0 c:/program files/microchip/xc32/v4.40/bin/bin/../../lib/gcc/pic32mx/8.3.1/../../../../pic32mx/lib/micromips\libpic32.a(memset.o)
 .bss           0x0000000000000000        0x0 c:/program files/microchip/xc32/v4.40/bin/bin/../../lib/gcc/pic32mx/8.3.1/../../../../pic32mx/lib/micromips\libpic32.a(memset.o)
 .reginfo       0x0000000000000000       0x18 c:/program files/microchip/xc32/v4.40/bin/bin/../../lib/gcc/pic32mx/8.3.1/../../../../pic32mx/lib/micromips\libpic32.a(memset.o)
 .MIPS.abiflags
                0x0000000000000000       0x18 c:/program files/microchip/xc32/v4.40/bin/bin/../../lib/gcc/pic32mx/8.3.1/../../../../pic32mx/lib/micromips\libpic32.a(memset.o)
 .xc_stack_usage.hdr
                0x0000000000000000        0xe c:/program files/microchip/xc32/v4.40/bin/bin/../../lib/gcc/pic32mx/8.3.1/../../../../pic32mx/lib/micromips\libpic32.a(memset.o)
 .xc_stack_usage
                0x0000000000000000       0x14 c:/program files/microchip/xc32/v4.40/bin/bin/../../lib/gcc/pic32mx/8.3.1/../../../../pic32mx/lib/micromips\libpic32.a(memset.o)
 .data          0x0000000000000000        0x0 c:/program files/microchip/xc32/v4.40/bin/bin/../../lib/gcc/pic32mx/8.3.1/../../../../pic32mx/lib/micromips\libpic32.a(strcpy.o)
 .bss           0x0000000000000000        0x0 c:/program files/microchip/xc32/v4.40/bin/bin/../../lib/gcc/pic32mx/8.3.1/../../../../pic32mx/lib/micromips\libpic32.a(strcpy.o)
 .reginfo       0x0000000000000000       0x18 c:/program files/microchip/xc32/v4.40/bin/bin/../../lib/gcc/pic32mx/8.3.1/../../../../pic32mx/lib/micromips\libpic32.a(strcpy.o)
 .MIPS.abiflags
                0x0000000000000000       0x18 c:/program files/microchip/xc32/v4.40/bin/bin/../../lib/gcc/pic32mx/8.3.1/../../../../pic32mx/lib/micromips\libpic32.a(strcpy.o)
 .xc_stack_usage.hdr
                0x0000000000000000        0xe c:/program files/microchip/xc32/v4.40/bin/bin/../../lib/gcc/pic32mx/8.3.1/../../../../pic32mx/lib/micromips\libpic32.a(strcpy.o)
 .xc_stack_usage
                0x0000000000000000       0x14 c:/program files/microchip/xc32/v4.40/bin/bin/../../lib/gcc/pic32mx/8.3.1/../../../../pic32mx/lib/micromips\libpic32.a(strcpy.o)
 .data          0x0000000000000000        0x0 c:/program files/microchip/xc32/v4.40/bin/bin/../../lib/gcc/pic32mx/8.3.1/../../../../pic32mx/lib/micromips\libpic32.a(strlen.o)
 .bss           0x0000000000000000        0x0 c:/program files/microchip/xc32/v4.40/bin/bin/../../lib/gcc/pic32mx/8.3.1/../../../../pic32mx/lib/micromips\libpic32.a(strlen.o)
 .reginfo       0x0000000000000000       0x18 c:/program files/microchip/xc32/v4.40/bin/bin/../../lib/gcc/pic32mx/8.3.1/../../../../pic32mx/lib/micromips\libpic32.a(strlen.o)
 .MIPS.abiflags
                0x0000000000000000       0x18 c:/program files/microchip/xc32/v4.40/bin/bin/../../lib/gcc/pic32mx/8.3.1/../../../../pic32mx/lib/micromips\libpic32.a(strlen.o)
 .xc_stack_usage.hdr
                0x0000000000000000        0xe c:/program files/microchip/xc32/v4.40/bin/bin/../../lib/gcc/pic32mx/8.3.1/../../../../pic32mx/lib/micromips\libpic32.a(strlen.o)
 .xc_stack_usage
                0x0000000000000000       0x14 c:/program files/microchip/xc32/v4.40/bin/bin/../../lib/gcc/pic32mx/8.3.1/../../../../pic32mx/lib/micromips\libpic32.a(strlen.o)
 .text          0x0000000000000000        0x0 c:/program files/microchip/xc32/v4.40/bin/bin/../../lib/gcc/pic32mx/8.3.1/../../../../pic32mx/lib/micromips\libpic32.a(default-bootstrap-exception-handler.o)
 .data          0x0000000000000000        0x0 c:/program files/microchip/xc32/v4.40/bin/bin/../../lib/gcc/pic32mx/8.3.1/../../../../pic32mx/lib/micromips\libpic32.a(default-bootstrap-exception-handler.o)
 .bss           0x0000000000000000        0x0 c:/program files/microchip/xc32/v4.40/bin/bin/../../lib/gcc/pic32mx/8.3.1/../../../../pic32mx/lib/micromips\libpic32.a(default-bootstrap-exception-handler.o)
 .reginfo       0x0000000000000000       0x18 c:/program files/microchip/xc32/v4.40/bin/bin/../../lib/gcc/pic32mx/8.3.1/../../../../pic32mx/lib/micromips\libpic32.a(default-bootstrap-exception-handler.o)
 .MIPS.abiflags
                0x0000000000000000       0x18 c:/program files/microchip/xc32/v4.40/bin/bin/../../lib/gcc/pic32mx/8.3.1/../../../../pic32mx/lib/micromips\libpic32.a(default-bootstrap-exception-handler.o)
 .xc_stack_usage
                0x0000000000000000       0x2a c:/program files/microchip/xc32/v4.40/bin/bin/../../lib/gcc/pic32mx/8.3.1/../../../../pic32mx/lib/micromips\libpic32.a(default-bootstrap-exception-handler.o)
 .xc_stack_usage.hdr
                0x0000000000000000        0xe c:/program files/microchip/xc32/v4.40/bin/bin/../../lib/gcc/pic32mx/8.3.1/../../../../pic32mx/lib/micromips\libpic32.a(default-bootstrap-exception-handler.o)
 .text          0x0000000000000000        0x0 c:/program files/microchip/xc32/v4.40/bin/bin/../../lib/gcc/pic32mx/8.3.1/../../../../pic32mx/lib/micromips\libpic32.a(default-on-reset.o)
 .data          0x0000000000000000        0x0 c:/program files/microchip/xc32/v4.40/bin/bin/../../lib/gcc/pic32mx/8.3.1/../../../../pic32mx/lib/micromips\libpic32.a(default-on-reset.o)
 .bss           0x0000000000000000        0x0 c:/program files/microchip/xc32/v4.40/bin/bin/../../lib/gcc/pic32mx/8.3.1/../../../../pic32mx/lib/micromips\libpic32.a(default-on-reset.o)
 .reginfo       0x0000000000000000       0x18 c:/program files/microchip/xc32/v4.40/bin/bin/../../lib/gcc/pic32mx/8.3.1/../../../../pic32mx/lib/micromips\libpic32.a(default-on-reset.o)
 .MIPS.abiflags
                0x0000000000000000       0x18 c:/program files/microchip/xc32/v4.40/bin/bin/../../lib/gcc/pic32mx/8.3.1/../../../../pic32mx/lib/micromips\libpic32.a(default-on-reset.o)
 .xc_stack_usage
                0x0000000000000000       0x17 c:/program files/microchip/xc32/v4.40/bin/bin/../../lib/gcc/pic32mx/8.3.1/../../../../pic32mx/lib/micromips\libpic32.a(default-on-reset.o)
 .xc_stack_usage.hdr
                0x0000000000000000        0xe c:/program files/microchip/xc32/v4.40/bin/bin/../../lib/gcc/pic32mx/8.3.1/../../../../pic32mx/lib/micromips\libpic32.a(default-on-reset.o)
 .text          0x0000000000000000        0x0 c:/program files/microchip/xc32/v4.40/bin/bin/../../lib/gcc/pic32mx/8.3.1/../../../../pic32mx/lib/micromips\libpic32.a(default-on-bootstrap.o)
 .data          0x0000000000000000        0x0 c:/program files/microchip/xc32/v4.40/bin/bin/../../lib/gcc/pic32mx/8.3.1/../../../../pic32mx/lib/micromips\libpic32.a(default-on-bootstrap.o)
 .bss           0x0000000000000000        0x0 c:/program files/microchip/xc32/v4.40/bin/bin/../../lib/gcc/pic32mx/8.3.1/../../../../pic32mx/lib/micromips\libpic32.a(default-on-bootstrap.o)
 .reginfo       0x0000000000000000       0x18 c:/program files/microchip/xc32/v4.40/bin/bin/../../lib/gcc/pic32mx/8.3.1/../../../../pic32mx/lib/micromips\libpic32.a(default-on-bootstrap.o)
 .MIPS.abiflags
                0x0000000000000000       0x18 c:/program files/microchip/xc32/v4.40/bin/bin/../../lib/gcc/pic32mx/8.3.1/../../../../pic32mx/lib/micromips\libpic32.a(default-on-bootstrap.o)
 .xc_stack_usage
                0x0000000000000000       0x1b c:/program files/microchip/xc32/v4.40/bin/bin/../../lib/gcc/pic32mx/8.3.1/../../../../pic32mx/lib/micromips\libpic32.a(default-on-bootstrap.o)
 .xc_stack_usage.hdr
                0x0000000000000000        0xe c:/program files/microchip/xc32/v4.40/bin/bin/../../lib/gcc/pic32mx/8.3.1/../../../../pic32mx/lib/micromips\libpic32.a(default-on-bootstrap.o)
 .data          0x0000000000000000        0x0 c:/program files/microchip/xc32/v4.40/bin/bin/../../lib/gcc/pic32mx/8.3.1/../../../../pic32mx/lib/micromips\libpic32.a(default-nmi-handler.o)
 .bss           0x0000000000000000        0x0 c:/program files/microchip/xc32/v4.40/bin/bin/../../lib/gcc/pic32mx/8.3.1/../../../../pic32mx/lib/micromips\libpic32.a(default-nmi-handler.o)
 .reginfo       0x0000000000000000       0x18 c:/program files/microchip/xc32/v4.40/bin/bin/../../lib/gcc/pic32mx/8.3.1/../../../../pic32mx/lib/micromips\libpic32.a(default-nmi-handler.o)
 .MIPS.abiflags
                0x0000000000000000       0x18 c:/program files/microchip/xc32/v4.40/bin/bin/../../lib/gcc/pic32mx/8.3.1/../../../../pic32mx/lib/micromips\libpic32.a(default-nmi-handler.o)
 .xc_stack_usage.hdr
                0x0000000000000000        0xe c:/program files/microchip/xc32/v4.40/bin/bin/../../lib/gcc/pic32mx/8.3.1/../../../../pic32mx/lib/micromips\libpic32.a(default-nmi-handler.o)
 .xc_stack_usage
                0x0000000000000000       0x1a c:/program files/microchip/xc32/v4.40/bin/bin/../../lib/gcc/pic32mx/8.3.1/../../../../pic32mx/lib/micromips\libpic32.a(default-nmi-handler.o)
 .data          0x0000000000000000        0x0 c:/program files/microchip/xc32/v4.40/bin/bin/../../lib/gcc/pic32mx/8.3.1/../../../../pic32mx/lib/micromips\libpic32.a(pic32_data_init_core.o)
 .bss           0x0000000000000000        0x0 c:/program files/microchip/xc32/v4.40/bin/bin/../../lib/gcc/pic32mx/8.3.1/../../../../pic32mx/lib/micromips\libpic32.a(pic32_data_init_core.o)
 .reginfo       0x0000000000000000       0x18 c:/program files/microchip/xc32/v4.40/bin/bin/../../lib/gcc/pic32mx/8.3.1/../../../../pic32mx/lib/micromips\libpic32.a(pic32_data_init_core.o)
 .MIPS.abiflags
                0x0000000000000000       0x18 c:/program files/microchip/xc32/v4.40/bin/bin/../../lib/gcc/pic32mx/8.3.1/../../../../pic32mx/lib/micromips\libpic32.a(pic32_data_init_core.o)
 .xc_stack_usage.hdr
                0x0000000000000000        0xe c:/program files/microchip/xc32/v4.40/bin/bin/../../lib/gcc/pic32mx/8.3.1/../../../../pic32mx/lib/micromips\libpic32.a(pic32_data_init_core.o)
 .xc_stack_usage
                0x0000000000000000       0x41 c:/program files/microchip/xc32/v4.40/bin/bin/../../lib/gcc/pic32mx/8.3.1/../../../../pic32mx/lib/micromips\libpic32.a(pic32_data_init_core.o)
 .text          0x0000000000000000        0x0 c:/program files/microchip/xc32/v4.40/bin/bin/../../lib/gcc/pic32mx/8.3.1/../../../../pic32mx/lib/micromips\libpic32.a(general-exception.o)
 .data          0x0000000000000000        0x0 c:/program files/microchip/xc32/v4.40/bin/bin/../../lib/gcc/pic32mx/8.3.1/../../../../pic32mx/lib/micromips\libpic32.a(general-exception.o)
 .bss           0x0000000000000000        0x0 c:/program files/microchip/xc32/v4.40/bin/bin/../../lib/gcc/pic32mx/8.3.1/../../../../pic32mx/lib/micromips\libpic32.a(general-exception.o)
 .reginfo       0x0000000000000000       0x18 c:/program files/microchip/xc32/v4.40/bin/bin/../../lib/gcc/pic32mx/8.3.1/../../../../pic32mx/lib/micromips\libpic32.a(general-exception.o)
 .MIPS.abiflags
                0x0000000000000000       0x18 c:/program files/microchip/xc32/v4.40/bin/bin/../../lib/gcc/pic32mx/8.3.1/../../../../pic32mx/lib/micromips\libpic32.a(general-exception.o)
 .xc_stack_usage.hdr
                0x0000000000000000        0xe c:/program files/microchip/xc32/v4.40/bin/bin/../../lib/gcc/pic32mx/8.3.1/../../../../pic32mx/lib/micromips\libpic32.a(general-exception.o)
 .xc_stack_usage
                0x0000000000000000       0x28 c:/program files/microchip/xc32/v4.40/bin/bin/../../lib/gcc/pic32mx/8.3.1/../../../../pic32mx/lib/micromips\libpic32.a(general-exception.o)
 .text          0x0000000000000000        0x0 c:/program files/microchip/xc32/v4.40/bin/bin/../../lib/gcc/pic32mx/8.3.1/../../../../pic32mx/lib/micromips\libpic32.a(vector1.o)
 .data          0x0000000000000000        0x0 c:/program files/microchip/xc32/v4.40/bin/bin/../../lib/gcc/pic32mx/8.3.1/../../../../pic32mx/lib/micromips\libpic32.a(vector1.o)
 .bss           0x0000000000000000        0x0 c:/program files/microchip/xc32/v4.40/bin/bin/../../lib/gcc/pic32mx/8.3.1/../../../../pic32mx/lib/micromips\libpic32.a(vector1.o)
 .reginfo       0x0000000000000000       0x18 c:/program files/microchip/xc32/v4.40/bin/bin/../../lib/gcc/pic32mx/8.3.1/../../../../pic32mx/lib/micromips\libpic32.a(vector1.o)
 .MIPS.abiflags
                0x0000000000000000       0x18 c:/program files/microchip/xc32/v4.40/bin/bin/../../lib/gcc/pic32mx/8.3.1/../../../../pic32mx/lib/micromips\libpic32.a(vector1.o)
 .xc_stack_usage.hdr
                0x0000000000000000        0xe c:/program files/microchip/xc32/v4.40/bin/bin/../../lib/gcc/pic32mx/8.3.1/../../../../pic32mx/lib/micromips\libpic32.a(vector1.o)
 .xc_stack_usage
                0x0000000000000000       0x21 c:/program files/microchip/xc32/v4.40/bin/bin/../../lib/gcc/pic32mx/8.3.1/../../../../pic32mx/lib/micromips\libpic32.a(vector1.o)
 .text          0x0000000000000000        0x0 c:/program files/microchip/xc32/v4.40/bin/bin/../../lib/gcc/pic32mx/8.3.1/../../../../pic32mx/lib/micromips\libpic32.a(vector2.o)
 .data          0x0000000000000000        0x0 c:/program files/microchip/xc32/v4.40/bin/bin/../../lib/gcc/pic32mx/8.3.1/../../../../pic32mx/lib/micromips\libpic32.a(vector2.o)
 .bss           0x0000000000000000        0x0 c:/program files/microchip/xc32/v4.40/bin/bin/../../lib/gcc/pic32mx/8.3.1/../../../../pic32mx/lib/micromips\libpic32.a(vector2.o)
 .reginfo       0x0000000000000000       0x18 c:/program files/microchip/xc32/v4.40/bin/bin/../../lib/gcc/pic32mx/8.3.1/../../../../pic32mx/lib/micromips\libpic32.a(vector2.o)
 .MIPS.abiflags
                0x0000000000000000       0x18 c:/program files/microchip/xc32/v4.40/bin/bin/../../lib/gcc/pic32mx/8.3.1/../../../../pic32mx/lib/micromips\libpic32.a(vector2.o)
 .xc_stack_usage.hdr
                0x0000000000000000        0xe c:/program files/microchip/xc32/v4.40/bin/bin/../../lib/gcc/pic32mx/8.3.1/../../../../pic32mx/lib/micromips\libpic32.a(vector2.o)
 .xc_stack_usage
                0x0000000000000000       0x21 c:/program files/microchip/xc32/v4.40/bin/bin/../../lib/gcc/pic32mx/8.3.1/../../../../pic32mx/lib/micromips\libpic32.a(vector2.o)
 .text          0x0000000000000000        0x0 c:/program files/microchip/xc32/v4.40/bin/bin/../../lib/gcc/pic32mx/8.3.1/../../../../pic32mx/lib/micromips\libpic32.a(vector3.o)
 .data          0x0000000000000000        0x0 c:/program files/microchip/xc32/v4.40/bin/bin/../../lib/gcc/pic32mx/8.3.1/../../../../pic32mx/lib/micromips\libpic32.a(vector3.o)
 .bss           0x0000000000000000        0x0 c:/program files/microchip/xc32/v4.40/bin/bin/../../lib/gcc/pic32mx/8.3.1/../../../../pic32mx/lib/micromips\libpic32.a(vector3.o)
 .reginfo       0x0000000000000000       0x18 c:/program files/microchip/xc32/v4.40/bin/bin/../../lib/gcc/pic32mx/8.3.1/../../../../pic32mx/lib/micromips\libpic32.a(vector3.o)
 .MIPS.abiflags
                0x0000000000000000       0x18 c:/program files/microchip/xc32/v4.40/bin/bin/../../lib/gcc/pic32mx/8.3.1/../../../../pic32mx/lib/micromips\libpic32.a(vector3.o)
 .xc_stack_usage.hdr
                0x0000000000000000        0xe c:/program files/microchip/xc32/v4.40/bin/bin/../../lib/gcc/pic32mx/8.3.1/../../../../pic32mx/lib/micromips\libpic32.a(vector3.o)
 .xc_stack_usage
                0x0000000000000000       0x21 c:/program files/microchip/xc32/v4.40/bin/bin/../../lib/gcc/pic32mx/8.3.1/../../../../pic32mx/lib/micromips\libpic32.a(vector3.o)
 .text          0x0000000000000000        0x0 c:/program files/microchip/xc32/v4.40/bin/bin/../../lib/gcc/pic32mx/8.3.1/../../../../pic32mx/lib/micromips\libpic32.a(vector4.o)
 .data          0x0000000000000000        0x0 c:/program files/microchip/xc32/v4.40/bin/bin/../../lib/gcc/pic32mx/8.3.1/../../../../pic32mx/lib/micromips\libpic32.a(vector4.o)
 .bss           0x0000000000000000        0x0 c:/program files/microchip/xc32/v4.40/bin/bin/../../lib/gcc/pic32mx/8.3.1/../../../../pic32mx/lib/micromips\libpic32.a(vector4.o)
 .reginfo       0x0000000000000000       0x18 c:/program files/microchip/xc32/v4.40/bin/bin/../../lib/gcc/pic32mx/8.3.1/../../../../pic32mx/lib/micromips\libpic32.a(vector4.o)
 .MIPS.abiflags
                0x0000000000000000       0x18 c:/program files/microchip/xc32/v4.40/bin/bin/../../lib/gcc/pic32mx/8.3.1/../../../../pic32mx/lib/micromips\libpic32.a(vector4.o)
 .xc_stack_usage.hdr
                0x0000000000000000        0xe c:/program files/microchip/xc32/v4.40/bin/bin/../../lib/gcc/pic32mx/8.3.1/../../../../pic32mx/lib/micromips\libpic32.a(vector4.o)
 .xc_stack_usage
                0x0000000000000000       0x21 c:/program files/microchip/xc32/v4.40/bin/bin/../../lib/gcc/pic32mx/8.3.1/../../../../pic32mx/lib/micromips\libpic32.a(vector4.o)
 .text          0x0000000000000000        0x0 c:/program files/microchip/xc32/v4.40/bin/bin/../../lib/gcc/pic32mx/8.3.1/../../../../pic32mx/lib/micromips\libpic32.a(vector5.o)
 .data          0x0000000000000000        0x0 c:/program files/microchip/xc32/v4.40/bin/bin/../../lib/gcc/pic32mx/8.3.1/../../../../pic32mx/lib/micromips\libpic32.a(vector5.o)
 .bss           0x0000000000000000        0x0 c:/program files/microchip/xc32/v4.40/bin/bin/../../lib/gcc/pic32mx/8.3.1/../../../../pic32mx/lib/micromips\libpic32.a(vector5.o)
 .reginfo       0x0000000000000000       0x18 c:/program files/microchip/xc32/v4.40/bin/bin/../../lib/gcc/pic32mx/8.3.1/../../../../pic32mx/lib/micromips\libpic32.a(vector5.o)
 .MIPS.abiflags
                0x0000000000000000       0x18 c:/program files/microchip/xc32/v4.40/bin/bin/../../lib/gcc/pic32mx/8.3.1/../../../../pic32mx/lib/micromips\libpic32.a(vector5.o)
 .xc_stack_usage.hdr
                0x0000000000000000        0xe c:/program files/microchip/xc32/v4.40/bin/bin/../../lib/gcc/pic32mx/8.3.1/../../../../pic32mx/lib/micromips\libpic32.a(vector5.o)
 .xc_stack_usage
                0x0000000000000000       0x21 c:/program files/microchip/xc32/v4.40/bin/bin/../../lib/gcc/pic32mx/8.3.1/../../../../pic32mx/lib/micromips\libpic32.a(vector5.o)
 .text          0x0000000000000000        0x0 c:/program files/microchip/xc32/v4.40/bin/bin/../../lib/gcc/pic32mx/8.3.1/../../../../pic32mx/lib/micromips\libpic32.a(vector6.o)
 .data          0x0000000000000000        0x0 c:/program files/microchip/xc32/v4.40/bin/bin/../../lib/gcc/pic32mx/8.3.1/../../../../pic32mx/lib/micromips\libpic32.a(vector6.o)
 .bss           0x0000000000000000        0x0 c:/program files/microchip/xc32/v4.40/bin/bin/../../lib/gcc/pic32mx/8.3.1/../../../../pic32mx/lib/micromips\libpic32.a(vector6.o)
 .reginfo       0x0000000000000000       0x18 c:/program files/microchip/xc32/v4.40/bin/bin/../../lib/gcc/pic32mx/8.3.1/../../../../pic32mx/lib/micromips\libpic32.a(vector6.o)
 .MIPS.abiflags
                0x0000000000000000       0x18 c:/program files/microchip/xc32/v4.40/bin/bin/../../lib/gcc/pic32mx/8.3.1/../../../../pic32mx/lib/micromips\libpic32.a(vector6.o)
 .xc_stack_usage.hdr
                0x0000000000000000        0xe c:/program files/microchip/xc32/v4.40/bin/bin/../../lib/gcc/pic32mx/8.3.1/../../../../pic32mx/lib/micromips\libpic32.a(vector6.o)
 .xc_stack_usage
                0x0000000000000000       0x21 c:/program files/microchip/xc32/v4.40/bin/bin/../../lib/gcc/pic32mx/8.3.1/../../../../pic32mx/lib/micromips\libpic32.a(vector6.o)
 .text          0x0000000000000000        0x0 c:/program files/microchip/xc32/v4.40/bin/bin/../../lib/gcc/pic32mx/8.3.1/../../../../pic32mx/lib/micromips\libpic32.a(vector7.o)
 .data          0x0000000000000000        0x0 c:/program files/microchip/xc32/v4.40/bin/bin/../../lib/gcc/pic32mx/8.3.1/../../../../pic32mx/lib/micromips\libpic32.a(vector7.o)
 .bss           0x0000000000000000        0x0 c:/program files/microchip/xc32/v4.40/bin/bin/../../lib/gcc/pic32mx/8.3.1/../../../../pic32mx/lib/micromips\libpic32.a(vector7.o)
 .reginfo       0x0000000000000000       0x18 c:/program files/microchip/xc32/v4.40/bin/bin/../../lib/gcc/pic32mx/8.3.1/../../../../pic32mx/lib/micromips\libpic32.a(vector7.o)
 .MIPS.abiflags
                0x0000000000000000       0x18 c:/program files/microchip/xc32/v4.40/bin/bin/../../lib/gcc/pic32mx/8.3.1/../../../../pic32mx/lib/micromips\libpic32.a(vector7.o)
 .xc_stack_usage.hdr
                0x0000000000000000        0xe c:/program files/microchip/xc32/v4.40/bin/bin/../../lib/gcc/pic32mx/8.3.1/../../../../pic32mx/lib/micromips\libpic32.a(vector7.o)
 .xc_stack_usage
                0x0000000000000000       0x21 c:/program files/microchip/xc32/v4.40/bin/bin/../../lib/gcc/pic32mx/8.3.1/../../../../pic32mx/lib/micromips\libpic32.a(vector7.o)
 .text          0x0000000000000000        0x0 c:/program files/microchip/xc32/v4.40/bin/bin/../../lib/gcc/pic32mx/8.3.1/../../../../pic32mx/lib/micromips\libpic32.a(vector11.o)
 .data          0x0000000000000000        0x0 c:/program files/microchip/xc32/v4.40/bin/bin/../../lib/gcc/pic32mx/8.3.1/../../../../pic32mx/lib/micromips\libpic32.a(vector11.o)
 .bss           0x0000000000000000        0x0 c:/program files/microchip/xc32/v4.40/bin/bin/../../lib/gcc/pic32mx/8.3.1/../../../../pic32mx/lib/micromips\libpic32.a(vector11.o)
 .reginfo       0x0000000000000000       0x18 c:/program files/microchip/xc32/v4.40/bin/bin/../../lib/gcc/pic32mx/8.3.1/../../../../pic32mx/lib/micromips\libpic32.a(vector11.o)
 .MIPS.abiflags
                0x0000000000000000       0x18 c:/program files/microchip/xc32/v4.40/bin/bin/../../lib/gcc/pic32mx/8.3.1/../../../../pic32mx/lib/micromips\libpic32.a(vector11.o)
 .xc_stack_usage.hdr
                0x0000000000000000        0xe c:/program files/microchip/xc32/v4.40/bin/bin/../../lib/gcc/pic32mx/8.3.1/../../../../pic32mx/lib/micromips\libpic32.a(vector11.o)
 .xc_stack_usage
                0x0000000000000000       0x22 c:/program files/microchip/xc32/v4.40/bin/bin/../../lib/gcc/pic32mx/8.3.1/../../../../pic32mx/lib/micromips\libpic32.a(vector11.o)
 .text          0x0000000000000000        0x0 c:/program files/microchip/xc32/v4.40/bin/bin/../../lib/gcc/pic32mx/8.3.1/../../../../pic32mx/lib/micromips\libpic32.a(vector12.o)
 .data          0x0000000000000000        0x0 c:/program files/microchip/xc32/v4.40/bin/bin/../../lib/gcc/pic32mx/8.3.1/../../../../pic32mx/lib/micromips\libpic32.a(vector12.o)
 .bss           0x0000000000000000        0x0 c:/program files/microchip/xc32/v4.40/bin/bin/../../lib/gcc/pic32mx/8.3.1/../../../../pic32mx/lib/micromips\libpic32.a(vector12.o)
 .reginfo       0x0000000000000000       0x18 c:/program files/microchip/xc32/v4.40/bin/bin/../../lib/gcc/pic32mx/8.3.1/../../../../pic32mx/lib/micromips\libpic32.a(vector12.o)
 .MIPS.abiflags
                0x0000000000000000       0x18 c:/program files/microchip/xc32/v4.40/bin/bin/../../lib/gcc/pic32mx/8.3.1/../../../../pic32mx/lib/micromips\libpic32.a(vector12.o)
 .xc_stack_usage.hdr
                0x0000000000000000        0xe c:/program files/microchip/xc32/v4.40/bin/bin/../../lib/gcc/pic32mx/8.3.1/../../../../pic32mx/lib/micromips\libpic32.a(vector12.o)
 .xc_stack_usage
                0x0000000000000000       0x22 c:/program files/microchip/xc32/v4.40/bin/bin/../../lib/gcc/pic32mx/8.3.1/../../../../pic32mx/lib/micromips\libpic32.a(vector12.o)
 .text          0x0000000000000000        0x0 c:/program files/microchip/xc32/v4.40/bin/bin/../../lib/gcc/pic32mx/8.3.1/../../../../pic32mx/lib/micromips\libpic32.a(vector13.o)
 .data          0x0000000000000000        0x0 c:/program files/microchip/xc32/v4.40/bin/bin/../../lib/gcc/pic32mx/8.3.1/../../../../pic32mx/lib/micromips\libpic32.a(vector13.o)
 .bss           0x0000000000000000        0x0 c:/program files/microchip/xc32/v4.40/bin/bin/../../lib/gcc/pic32mx/8.3.1/../../../../pic32mx/lib/micromips\libpic32.a(vector13.o)
 .reginfo       0x0000000000000000       0x18 c:/program files/microchip/xc32/v4.40/bin/bin/../../lib/gcc/pic32mx/8.3.1/../../../../pic32mx/lib/micromips\libpic32.a(vector13.o)
 .MIPS.abiflags
                0x0000000000000000       0x18 c:/program files/microchip/xc32/v4.40/bin/bin/../../lib/gcc/pic32mx/8.3.1/../../../../pic32mx/lib/micromips\libpic32.a(vector13.o)
 .xc_stack_usage.hdr
                0x0000000000000000        0xe c:/program files/microchip/xc32/v4.40/bin/bin/../../lib/gcc/pic32mx/8.3.1/../../../../pic32mx/lib/micromips\libpic32.a(vector13.o)
 .xc_stack_usage
                0x0000000000000000       0x22 c:/program files/microchip/xc32/v4.40/bin/bin/../../lib/gcc/pic32mx/8.3.1/../../../../pic32mx/lib/micromips\libpic32.a(vector13.o)
 .text          0x0000000000000000        0x0 c:/program files/microchip/xc32/v4.40/bin/bin/../../lib/gcc/pic32mx/8.3.1/../../../../pic32mx/lib/micromips\libpic32.a(vector14.o)
 .data          0x0000000000000000        0x0 c:/program files/microchip/xc32/v4.40/bin/bin/../../lib/gcc/pic32mx/8.3.1/../../../../pic32mx/lib/micromips\libpic32.a(vector14.o)
 .bss           0x0000000000000000        0x0 c:/program files/microchip/xc32/v4.40/bin/bin/../../lib/gcc/pic32mx/8.3.1/../../../../pic32mx/lib/micromips\libpic32.a(vector14.o)
 .reginfo       0x0000000000000000       0x18 c:/program files/microchip/xc32/v4.40/bin/bin/../../lib/gcc/pic32mx/8.3.1/../../../../pic32mx/lib/micromips\libpic32.a(vector14.o)
 .MIPS.abiflags
                0x0000000000000000       0x18 c:/program files/microchip/xc32/v4.40/bin/bin/../../lib/gcc/pic32mx/8.3.1/../../../../pic32mx/lib/micromips\libpic32.a(vector14.o)
 .xc_stack_usage.hdr
                0x0000000000000000        0xe c:/program files/microchip/xc32/v4.40/bin/bin/../../lib/gcc/pic32mx/8.3.1/../../../../pic32mx/lib/micromips\libpic32.a(vector14.o)
 .xc_stack_usage
                0x0000000000000000       0x22 c:/program files/microchip/xc32/v4.40/bin/bin/../../lib/gcc/pic32mx/8.3.1/../../../../pic32mx/lib/micromips\libpic32.a(vector14.o)
 .text          0x0000000000000000        0x0 c:/program files/microchip/xc32/v4.40/bin/bin/../../lib/gcc/pic32mx/8.3.1/../../../../pic32mx/lib/micromips\libpic32.a(vector15.o)
 .data          0x0000000000000000        0x0 c:/program files/microchip/xc32/v4.40/bin/bin/../../lib/gcc/pic32mx/8.3.1/../../../../pic32mx/lib/micromips\libpic32.a(vector15.o)
 .bss           0x0000000000000000        0x0 c:/program files/microchip/xc32/v4.40/bin/bin/../../lib/gcc/pic32mx/8.3.1/../../../../pic32mx/lib/micromips\libpic32.a(vector15.o)
 .reginfo       0x0000000000000000       0x18 c:/program files/microchip/xc32/v4.40/bin/bin/../../lib/gcc/pic32mx/8.3.1/../../../../pic32mx/lib/micromips\libpic32.a(vector15.o)
 .MIPS.abiflags
                0x0000000000000000       0x18 c:/program files/microchip/xc32/v4.40/bin/bin/../../lib/gcc/pic32mx/8.3.1/../../../../pic32mx/lib/micromips\libpic32.a(vector15.o)
 .xc_stack_usage.hdr
                0x0000000000000000        0xe c:/program files/microchip/xc32/v4.40/bin/bin/../../lib/gcc/pic32mx/8.3.1/../../../../pic32mx/lib/micromips\libpic32.a(vector15.o)
 .xc_stack_usage
                0x0000000000000000       0x22 c:/program files/microchip/xc32/v4.40/bin/bin/../../lib/gcc/pic32mx/8.3.1/../../../../pic32mx/lib/micromips\libpic32.a(vector15.o)
 .text          0x0000000000000000        0x0 c:/program files/microchip/xc32/v4.40/bin/bin/../../lib/gcc/pic32mx/8.3.1/../../../../pic32mx/lib/micromips\libpic32.a(vector16.o)
 .data          0x0000000000000000        0x0 c:/program files/microchip/xc32/v4.40/bin/bin/../../lib/gcc/pic32mx/8.3.1/../../../../pic32mx/lib/micromips\libpic32.a(vector16.o)
 .bss           0x0000000000000000        0x0 c:/program files/microchip/xc32/v4.40/bin/bin/../../lib/gcc/pic32mx/8.3.1/../../../../pic32mx/lib/micromips\libpic32.a(vector16.o)
 .reginfo       0x0000000000000000       0x18 c:/program files/microchip/xc32/v4.40/bin/bin/../../lib/gcc/pic32mx/8.3.1/../../../../pic32mx/lib/micromips\libpic32.a(vector16.o)
 .MIPS.abiflags
                0x0000000000000000       0x18 c:/program files/microchip/xc32/v4.40/bin/bin/../../lib/gcc/pic32mx/8.3.1/../../../../pic32mx/lib/micromips\libpic32.a(vector16.o)
 .xc_stack_usage.hdr
                0x0000000000000000        0xe c:/program files/microchip/xc32/v4.40/bin/bin/../../lib/gcc/pic32mx/8.3.1/../../../../pic32mx/lib/micromips\libpic32.a(vector16.o)
 .xc_stack_usage
                0x0000000000000000       0x22 c:/program files/microchip/xc32/v4.40/bin/bin/../../lib/gcc/pic32mx/8.3.1/../../../../pic32mx/lib/micromips\libpic32.a(vector16.o)
 .text          0x0000000000000000        0x0 c:/program files/microchip/xc32/v4.40/bin/bin/../../lib/gcc/pic32mx/8.3.1/../../../../pic32mx/lib/micromips\libpic32.a(vector17.o)
 .data          0x0000000000000000        0x0 c:/program files/microchip/xc32/v4.40/bin/bin/../../lib/gcc/pic32mx/8.3.1/../../../../pic32mx/lib/micromips\libpic32.a(vector17.o)
 .bss           0x0000000000000000        0x0 c:/program files/microchip/xc32/v4.40/bin/bin/../../lib/gcc/pic32mx/8.3.1/../../../../pic32mx/lib/micromips\libpic32.a(vector17.o)
 .reginfo       0x0000000000000000       0x18 c:/program files/microchip/xc32/v4.40/bin/bin/../../lib/gcc/pic32mx/8.3.1/../../../../pic32mx/lib/micromips\libpic32.a(vector17.o)
 .MIPS.abiflags
                0x0000000000000000       0x18 c:/program files/microchip/xc32/v4.40/bin/bin/../../lib/gcc/pic32mx/8.3.1/../../../../pic32mx/lib/micromips\libpic32.a(vector17.o)
 .xc_stack_usage.hdr
                0x0000000000000000        0xe c:/program files/microchip/xc32/v4.40/bin/bin/../../lib/gcc/pic32mx/8.3.1/../../../../pic32mx/lib/micromips\libpic32.a(vector17.o)
 .xc_stack_usage
                0x0000000000000000       0x22 c:/program files/microchip/xc32/v4.40/bin/bin/../../lib/gcc/pic32mx/8.3.1/../../../../pic32mx/lib/micromips\libpic32.a(vector17.o)
 .text          0x0000000000000000        0x0 c:/program files/microchip/xc32/v4.40/bin/bin/../../lib/gcc/pic32mx/8.3.1/../../../../pic32mx/lib/micromips\libpic32.a(vector18.o)
 .data          0x0000000000000000        0x0 c:/program files/microchip/xc32/v4.40/bin/bin/../../lib/gcc/pic32mx/8.3.1/../../../../pic32mx/lib/micromips\libpic32.a(vector18.o)
 .bss           0x0000000000000000        0x0 c:/program files/microchip/xc32/v4.40/bin/bin/../../lib/gcc/pic32mx/8.3.1/../../../../pic32mx/lib/micromips\libpic32.a(vector18.o)
 .reginfo       0x0000000000000000       0x18 c:/program files/microchip/xc32/v4.40/bin/bin/../../lib/gcc/pic32mx/8.3.1/../../../../pic32mx/lib/micromips\libpic32.a(vector18.o)
 .MIPS.abiflags
                0x0000000000000000       0x18 c:/program files/microchip/xc32/v4.40/bin/bin/../../lib/gcc/pic32mx/8.3.1/../../../../pic32mx/lib/micromips\libpic32.a(vector18.o)
 .xc_stack_usage.hdr
                0x0000000000000000        0xe c:/program files/microchip/xc32/v4.40/bin/bin/../../lib/gcc/pic32mx/8.3.1/../../../../pic32mx/lib/micromips\libpic32.a(vector18.o)
 .xc_stack_usage
                0x0000000000000000       0x22 c:/program files/microchip/xc32/v4.40/bin/bin/../../lib/gcc/pic32mx/8.3.1/../../../../pic32mx/lib/micromips\libpic32.a(vector18.o)
 .text          0x0000000000000000        0x0 c:/program files/microchip/xc32/v4.40/bin/bin/../../lib/gcc/pic32mx/8.3.1/../../../../pic32mx/lib/micromips\libpic32.a(vector19.o)
 .data          0x0000000000000000        0x0 c:/program files/microchip/xc32/v4.40/bin/bin/../../lib/gcc/pic32mx/8.3.1/../../../../pic32mx/lib/micromips\libpic32.a(vector19.o)
 .bss           0x0000000000000000        0x0 c:/program files/microchip/xc32/v4.40/bin/bin/../../lib/gcc/pic32mx/8.3.1/../../../../pic32mx/lib/micromips\libpic32.a(vector19.o)
 .reginfo       0x0000000000000000       0x18 c:/program files/microchip/xc32/v4.40/bin/bin/../../lib/gcc/pic32mx/8.3.1/../../../../pic32mx/lib/micromips\libpic32.a(vector19.o)
 .MIPS.abiflags
                0x0000000000000000       0x18 c:/program files/microchip/xc32/v4.40/bin/bin/../../lib/gcc/pic32mx/8.3.1/../../../../pic32mx/lib/micromips\libpic32.a(vector19.o)
 .xc_stack_usage.hdr
                0x0000000000000000        0xe c:/program files/microchip/xc32/v4.40/bin/bin/../../lib/gcc/pic32mx/8.3.1/../../../../pic32mx/lib/micromips\libpic32.a(vector19.o)
 .xc_stack_usage
                0x0000000000000000       0x22 c:/program files/microchip/xc32/v4.40/bin/bin/../../lib/gcc/pic32mx/8.3.1/../../../../pic32mx/lib/micromips\libpic32.a(vector19.o)
 .text          0x0000000000000000        0x0 c:/program files/microchip/xc32/v4.40/bin/bin/../../lib/gcc/pic32mx/8.3.1/../../../../pic32mx/lib/micromips\libpic32.a(vector20.o)
 .data          0x0000000000000000        0x0 c:/program files/microchip/xc32/v4.40/bin/bin/../../lib/gcc/pic32mx/8.3.1/../../../../pic32mx/lib/micromips\libpic32.a(vector20.o)
 .bss           0x0000000000000000        0x0 c:/program files/microchip/xc32/v4.40/bin/bin/../../lib/gcc/pic32mx/8.3.1/../../../../pic32mx/lib/micromips\libpic32.a(vector20.o)
 .reginfo       0x0000000000000000       0x18 c:/program files/microchip/xc32/v4.40/bin/bin/../../lib/gcc/pic32mx/8.3.1/../../../../pic32mx/lib/micromips\libpic32.a(vector20.o)
 .MIPS.abiflags
                0x0000000000000000       0x18 c:/program files/microchip/xc32/v4.40/bin/bin/../../lib/gcc/pic32mx/8.3.1/../../../../pic32mx/lib/micromips\libpic32.a(vector20.o)
 .xc_stack_usage.hdr
                0x0000000000000000        0xe c:/program files/microchip/xc32/v4.40/bin/bin/../../lib/gcc/pic32mx/8.3.1/../../../../pic32mx/lib/micromips\libpic32.a(vector20.o)
 .xc_stack_usage
                0x0000000000000000       0x22 c:/program files/microchip/xc32/v4.40/bin/bin/../../lib/gcc/pic32mx/8.3.1/../../../../pic32mx/lib/micromips\libpic32.a(vector20.o)
 .text          0x0000000000000000        0x0 c:/program files/microchip/xc32/v4.40/bin/bin/../../lib/gcc/pic32mx/8.3.1/../../../../pic32mx/lib/micromips\libpic32.a(vector21.o)
 .data          0x0000000000000000        0x0 c:/program files/microchip/xc32/v4.40/bin/bin/../../lib/gcc/pic32mx/8.3.1/../../../../pic32mx/lib/micromips\libpic32.a(vector21.o)
 .bss           0x0000000000000000        0x0 c:/program files/microchip/xc32/v4.40/bin/bin/../../lib/gcc/pic32mx/8.3.1/../../../../pic32mx/lib/micromips\libpic32.a(vector21.o)
 .reginfo       0x0000000000000000       0x18 c:/program files/microchip/xc32/v4.40/bin/bin/../../lib/gcc/pic32mx/8.3.1/../../../../pic32mx/lib/micromips\libpic32.a(vector21.o)
 .MIPS.abiflags
                0x0000000000000000       0x18 c:/program files/microchip/xc32/v4.40/bin/bin/../../lib/gcc/pic32mx/8.3.1/../../../../pic32mx/lib/micromips\libpic32.a(vector21.o)
 .xc_stack_usage.hdr
                0x0000000000000000        0xe c:/program files/microchip/xc32/v4.40/bin/bin/../../lib/gcc/pic32mx/8.3.1/../../../../pic32mx/lib/micromips\libpic32.a(vector21.o)
 .xc_stack_usage
                0x0000000000000000       0x22 c:/program files/microchip/xc32/v4.40/bin/bin/../../lib/gcc/pic32mx/8.3.1/../../../../pic32mx/lib/micromips\libpic32.a(vector21.o)
 .text          0x0000000000000000        0x0 c:/program files/microchip/xc32/v4.40/bin/bin/../../lib/gcc/pic32mx/8.3.1/../../../../pic32mx/lib/micromips\libpic32.a(vector22.o)
 .data          0x0000000000000000        0x0 c:/program files/microchip/xc32/v4.40/bin/bin/../../lib/gcc/pic32mx/8.3.1/../../../../pic32mx/lib/micromips\libpic32.a(vector22.o)
 .bss           0x0000000000000000        0x0 c:/program files/microchip/xc32/v4.40/bin/bin/../../lib/gcc/pic32mx/8.3.1/../../../../pic32mx/lib/micromips\libpic32.a(vector22.o)
 .reginfo       0x0000000000000000       0x18 c:/program files/microchip/xc32/v4.40/bin/bin/../../lib/gcc/pic32mx/8.3.1/../../../../pic32mx/lib/micromips\libpic32.a(vector22.o)
 .MIPS.abiflags
                0x0000000000000000       0x18 c:/program files/microchip/xc32/v4.40/bin/bin/../../lib/gcc/pic32mx/8.3.1/../../../../pic32mx/lib/micromips\libpic32.a(vector22.o)
 .xc_stack_usage.hdr
                0x0000000000000000        0xe c:/program files/microchip/xc32/v4.40/bin/bin/../../lib/gcc/pic32mx/8.3.1/../../../../pic32mx/lib/micromips\libpic32.a(vector22.o)
 .xc_stack_usage
                0x0000000000000000       0x22 c:/program files/microchip/xc32/v4.40/bin/bin/../../lib/gcc/pic32mx/8.3.1/../../../../pic32mx/lib/micromips\libpic32.a(vector22.o)
 .text          0x0000000000000000        0x0 c:/program files/microchip/xc32/v4.40/bin/bin/../../lib/gcc/pic32mx/8.3.1/../../../../pic32mx/lib/micromips\libpic32.a(vector23.o)
 .data          0x0000000000000000        0x0 c:/program files/microchip/xc32/v4.40/bin/bin/../../lib/gcc/pic32mx/8.3.1/../../../../pic32mx/lib/micromips\libpic32.a(vector23.o)
 .bss           0x0000000000000000        0x0 c:/program files/microchip/xc32/v4.40/bin/bin/../../lib/gcc/pic32mx/8.3.1/../../../../pic32mx/lib/micromips\libpic32.a(vector23.o)
 .reginfo       0x0000000000000000       0x18 c:/program files/microchip/xc32/v4.40/bin/bin/../../lib/gcc/pic32mx/8.3.1/../../../../pic32mx/lib/micromips\libpic32.a(vector23.o)
 .MIPS.abiflags
                0x0000000000000000       0x18 c:/program files/microchip/xc32/v4.40/bin/bin/../../lib/gcc/pic32mx/8.3.1/../../../../pic32mx/lib/micromips\libpic32.a(vector23.o)
 .xc_stack_usage.hdr
                0x0000000000000000        0xe c:/program files/microchip/xc32/v4.40/bin/bin/../../lib/gcc/pic32mx/8.3.1/../../../../pic32mx/lib/micromips\libpic32.a(vector23.o)
 .xc_stack_usage
                0x0000000000000000       0x22 c:/program files/microchip/xc32/v4.40/bin/bin/../../lib/gcc/pic32mx/8.3.1/../../../../pic32mx/lib/micromips\libpic32.a(vector23.o)
 .text          0x0000000000000000        0x0 c:/program files/microchip/xc32/v4.40/bin/bin/../../lib/gcc/pic32mx/8.3.1/../../../../pic32mx/lib/micromips\libpic32.a(vector24.o)
 .data          0x0000000000000000        0x0 c:/program files/microchip/xc32/v4.40/bin/bin/../../lib/gcc/pic32mx/8.3.1/../../../../pic32mx/lib/micromips\libpic32.a(vector24.o)
 .bss           0x0000000000000000        0x0 c:/program files/microchip/xc32/v4.40/bin/bin/../../lib/gcc/pic32mx/8.3.1/../../../../pic32mx/lib/micromips\libpic32.a(vector24.o)
 .reginfo       0x0000000000000000       0x18 c:/program files/microchip/xc32/v4.40/bin/bin/../../lib/gcc/pic32mx/8.3.1/../../../../pic32mx/lib/micromips\libpic32.a(vector24.o)
 .MIPS.abiflags
                0x0000000000000000       0x18 c:/program files/microchip/xc32/v4.40/bin/bin/../../lib/gcc/pic32mx/8.3.1/../../../../pic32mx/lib/micromips\libpic32.a(vector24.o)
 .xc_stack_usage.hdr
                0x0000000000000000        0xe c:/program files/microchip/xc32/v4.40/bin/bin/../../lib/gcc/pic32mx/8.3.1/../../../../pic32mx/lib/micromips\libpic32.a(vector24.o)
 .xc_stack_usage
                0x0000000000000000       0x22 c:/program files/microchip/xc32/v4.40/bin/bin/../../lib/gcc/pic32mx/8.3.1/../../../../pic32mx/lib/micromips\libpic32.a(vector24.o)
 .text          0x0000000000000000        0x0 c:/program files/microchip/xc32/v4.40/bin/bin/../../lib/gcc/pic32mx/8.3.1/../../../../pic32mx/lib/micromips\libpic32.a(vector25.o)
 .data          0x0000000000000000        0x0 c:/program files/microchip/xc32/v4.40/bin/bin/../../lib/gcc/pic32mx/8.3.1/../../../../pic32mx/lib/micromips\libpic32.a(vector25.o)
 .bss           0x0000000000000000        0x0 c:/program files/microchip/xc32/v4.40/bin/bin/../../lib/gcc/pic32mx/8.3.1/../../../../pic32mx/lib/micromips\libpic32.a(vector25.o)
 .reginfo       0x0000000000000000       0x18 c:/program files/microchip/xc32/v4.40/bin/bin/../../lib/gcc/pic32mx/8.3.1/../../../../pic32mx/lib/micromips\libpic32.a(vector25.o)
 .MIPS.abiflags
                0x0000000000000000       0x18 c:/program files/microchip/xc32/v4.40/bin/bin/../../lib/gcc/pic32mx/8.3.1/../../../../pic32mx/lib/micromips\libpic32.a(vector25.o)
 .xc_stack_usage.hdr
                0x0000000000000000        0xe c:/program files/microchip/xc32/v4.40/bin/bin/../../lib/gcc/pic32mx/8.3.1/../../../../pic32mx/lib/micromips\libpic32.a(vector25.o)
 .xc_stack_usage
                0x0000000000000000       0x22 c:/program files/microchip/xc32/v4.40/bin/bin/../../lib/gcc/pic32mx/8.3.1/../../../../pic32mx/lib/micromips\libpic32.a(vector25.o)
 .text          0x0000000000000000        0x0 c:/program files/microchip/xc32/v4.40/bin/bin/../../lib/gcc/pic32mx/8.3.1/../../../../pic32mx/lib/micromips\libpic32.a(vector26.o)
 .data          0x0000000000000000        0x0 c:/program files/microchip/xc32/v4.40/bin/bin/../../lib/gcc/pic32mx/8.3.1/../../../../pic32mx/lib/micromips\libpic32.a(vector26.o)
 .bss           0x0000000000000000        0x0 c:/program files/microchip/xc32/v4.40/bin/bin/../../lib/gcc/pic32mx/8.3.1/../../../../pic32mx/lib/micromips\libpic32.a(vector26.o)
 .reginfo       0x0000000000000000       0x18 c:/program files/microchip/xc32/v4.40/bin/bin/../../lib/gcc/pic32mx/8.3.1/../../../../pic32mx/lib/micromips\libpic32.a(vector26.o)
 .MIPS.abiflags
                0x0000000000000000       0x18 c:/program files/microchip/xc32/v4.40/bin/bin/../../lib/gcc/pic32mx/8.3.1/../../../../pic32mx/lib/micromips\libpic32.a(vector26.o)
 .xc_stack_usage.hdr
                0x0000000000000000        0xe c:/program files/microchip/xc32/v4.40/bin/bin/../../lib/gcc/pic32mx/8.3.1/../../../../pic32mx/lib/micromips\libpic32.a(vector26.o)
 .xc_stack_usage
                0x0000000000000000       0x22 c:/program files/microchip/xc32/v4.40/bin/bin/../../lib/gcc/pic32mx/8.3.1/../../../../pic32mx/lib/micromips\libpic32.a(vector26.o)
 .text          0x0000000000000000        0x0 c:/program files/microchip/xc32/v4.40/bin/bin/../../lib/gcc/pic32mx/8.3.1/../../../../pic32mx/lib/micromips\libpic32.a(vector27.o)
 .data          0x0000000000000000        0x0 c:/program files/microchip/xc32/v4.40/bin/bin/../../lib/gcc/pic32mx/8.3.1/../../../../pic32mx/lib/micromips\libpic32.a(vector27.o)
 .bss           0x0000000000000000        0x0 c:/program files/microchip/xc32/v4.40/bin/bin/../../lib/gcc/pic32mx/8.3.1/../../../../pic32mx/lib/micromips\libpic32.a(vector27.o)
 .reginfo       0x0000000000000000       0x18 c:/program files/microchip/xc32/v4.40/bin/bin/../../lib/gcc/pic32mx/8.3.1/../../../../pic32mx/lib/micromips\libpic32.a(vector27.o)
 .MIPS.abiflags
                0x0000000000000000       0x18 c:/program files/microchip/xc32/v4.40/bin/bin/../../lib/gcc/pic32mx/8.3.1/../../../../pic32mx/lib/micromips\libpic32.a(vector27.o)
 .xc_stack_usage.hdr
                0x0000000000000000        0xe c:/program files/microchip/xc32/v4.40/bin/bin/../../lib/gcc/pic32mx/8.3.1/../../../../pic32mx/lib/micromips\libpic32.a(vector27.o)
 .xc_stack_usage
                0x0000000000000000       0x22 c:/program files/microchip/xc32/v4.40/bin/bin/../../lib/gcc/pic32mx/8.3.1/../../../../pic32mx/lib/micromips\libpic32.a(vector27.o)
 .text          0x0000000000000000        0x0 c:/program files/microchip/xc32/v4.40/bin/bin/../../lib/gcc/pic32mx/8.3.1/../../../../pic32mx/lib/micromips\libpic32.a(vector28.o)
 .data          0x0000000000000000        0x0 c:/program files/microchip/xc32/v4.40/bin/bin/../../lib/gcc/pic32mx/8.3.1/../../../../pic32mx/lib/micromips\libpic32.a(vector28.o)
 .bss           0x0000000000000000        0x0 c:/program files/microchip/xc32/v4.40/bin/bin/../../lib/gcc/pic32mx/8.3.1/../../../../pic32mx/lib/micromips\libpic32.a(vector28.o)
 .reginfo       0x0000000000000000       0x18 c:/program files/microchip/xc32/v4.40/bin/bin/../../lib/gcc/pic32mx/8.3.1/../../../../pic32mx/lib/micromips\libpic32.a(vector28.o)
 .MIPS.abiflags
                0x0000000000000000       0x18 c:/program files/microchip/xc32/v4.40/bin/bin/../../lib/gcc/pic32mx/8.3.1/../../../../pic32mx/lib/micromips\libpic32.a(vector28.o)
 .xc_stack_usage.hdr
                0x0000000000000000        0xe c:/program files/microchip/xc32/v4.40/bin/bin/../../lib/gcc/pic32mx/8.3.1/../../../../pic32mx/lib/micromips\libpic32.a(vector28.o)
 .xc_stack_usage
                0x0000000000000000       0x22 c:/program files/microchip/xc32/v4.40/bin/bin/../../lib/gcc/pic32mx/8.3.1/../../../../pic32mx/lib/micromips\libpic32.a(vector28.o)
 .text          0x0000000000000000        0x0 c:/program files/microchip/xc32/v4.40/bin/bin/../../lib/gcc/pic32mx/8.3.1/../../../../pic32mx/lib/micromips\libpic32.a(vector30.o)
 .data          0x0000000000000000        0x0 c:/program files/microchip/xc32/v4.40/bin/bin/../../lib/gcc/pic32mx/8.3.1/../../../../pic32mx/lib/micromips\libpic32.a(vector30.o)
 .bss           0x0000000000000000        0x0 c:/program files/microchip/xc32/v4.40/bin/bin/../../lib/gcc/pic32mx/8.3.1/../../../../pic32mx/lib/micromips\libpic32.a(vector30.o)
 .reginfo       0x0000000000000000       0x18 c:/program files/microchip/xc32/v4.40/bin/bin/../../lib/gcc/pic32mx/8.3.1/../../../../pic32mx/lib/micromips\libpic32.a(vector30.o)
 .MIPS.abiflags
                0x0000000000000000       0x18 c:/program files/microchip/xc32/v4.40/bin/bin/../../lib/gcc/pic32mx/8.3.1/../../../../pic32mx/lib/micromips\libpic32.a(vector30.o)
 .xc_stack_usage.hdr
                0x0000000000000000        0xe c:/program files/microchip/xc32/v4.40/bin/bin/../../lib/gcc/pic32mx/8.3.1/../../../../pic32mx/lib/micromips\libpic32.a(vector30.o)
 .xc_stack_usage
                0x0000000000000000       0x22 c:/program files/microchip/xc32/v4.40/bin/bin/../../lib/gcc/pic32mx/8.3.1/../../../../pic32mx/lib/micromips\libpic32.a(vector30.o)
 .text          0x0000000000000000        0x0 c:/program files/microchip/xc32/v4.40/bin/bin/../../lib/gcc/pic32mx/8.3.1/../../../../pic32mx/lib/micromips\libpic32.a(vector31.o)
 .data          0x0000000000000000        0x0 c:/program files/microchip/xc32/v4.40/bin/bin/../../lib/gcc/pic32mx/8.3.1/../../../../pic32mx/lib/micromips\libpic32.a(vector31.o)
 .bss           0x0000000000000000        0x0 c:/program files/microchip/xc32/v4.40/bin/bin/../../lib/gcc/pic32mx/8.3.1/../../../../pic32mx/lib/micromips\libpic32.a(vector31.o)
 .reginfo       0x0000000000000000       0x18 c:/program files/microchip/xc32/v4.40/bin/bin/../../lib/gcc/pic32mx/8.3.1/../../../../pic32mx/lib/micromips\libpic32.a(vector31.o)
 .MIPS.abiflags
                0x0000000000000000       0x18 c:/program files/microchip/xc32/v4.40/bin/bin/../../lib/gcc/pic32mx/8.3.1/../../../../pic32mx/lib/micromips\libpic32.a(vector31.o)
 .xc_stack_usage.hdr
                0x0000000000000000        0xe c:/program files/microchip/xc32/v4.40/bin/bin/../../lib/gcc/pic32mx/8.3.1/../../../../pic32mx/lib/micromips\libpic32.a(vector31.o)
 .xc_stack_usage
                0x0000000000000000       0x22 c:/program files/microchip/xc32/v4.40/bin/bin/../../lib/gcc/pic32mx/8.3.1/../../../../pic32mx/lib/micromips\libpic32.a(vector31.o)
 .text          0x0000000000000000        0x0 c:/program files/microchip/xc32/v4.40/bin/bin/../../lib/gcc/pic32mx/8.3.1/../../../../pic32mx/lib/micromips\libpic32.a(vector32.o)
 .data          0x0000000000000000        0x0 c:/program files/microchip/xc32/v4.40/bin/bin/../../lib/gcc/pic32mx/8.3.1/../../../../pic32mx/lib/micromips\libpic32.a(vector32.o)
 .bss           0x0000000000000000        0x0 c:/program files/microchip/xc32/v4.40/bin/bin/../../lib/gcc/pic32mx/8.3.1/../../../../pic32mx/lib/micromips\libpic32.a(vector32.o)
 .reginfo       0x0000000000000000       0x18 c:/program files/microchip/xc32/v4.40/bin/bin/../../lib/gcc/pic32mx/8.3.1/../../../../pic32mx/lib/micromips\libpic32.a(vector32.o)
 .MIPS.abiflags
                0x0000000000000000       0x18 c:/program files/microchip/xc32/v4.40/bin/bin/../../lib/gcc/pic32mx/8.3.1/../../../../pic32mx/lib/micromips\libpic32.a(vector32.o)
 .xc_stack_usage.hdr
                0x0000000000000000        0xe c:/program files/microchip/xc32/v4.40/bin/bin/../../lib/gcc/pic32mx/8.3.1/../../../../pic32mx/lib/micromips\libpic32.a(vector32.o)
 .xc_stack_usage
                0x0000000000000000       0x22 c:/program files/microchip/xc32/v4.40/bin/bin/../../lib/gcc/pic32mx/8.3.1/../../../../pic32mx/lib/micromips\libpic32.a(vector32.o)
 .text          0x0000000000000000        0x0 c:/program files/microchip/xc32/v4.40/bin/bin/../../lib/gcc/pic32mx/8.3.1/../../../../pic32mx/lib/micromips\libpic32.a(vector33.o)
 .data          0x0000000000000000        0x0 c:/program files/microchip/xc32/v4.40/bin/bin/../../lib/gcc/pic32mx/8.3.1/../../../../pic32mx/lib/micromips\libpic32.a(vector33.o)
 .bss           0x0000000000000000        0x0 c:/program files/microchip/xc32/v4.40/bin/bin/../../lib/gcc/pic32mx/8.3.1/../../../../pic32mx/lib/micromips\libpic32.a(vector33.o)
 .reginfo       0x0000000000000000       0x18 c:/program files/microchip/xc32/v4.40/bin/bin/../../lib/gcc/pic32mx/8.3.1/../../../../pic32mx/lib/micromips\libpic32.a(vector33.o)
 .MIPS.abiflags
                0x0000000000000000       0x18 c:/program files/microchip/xc32/v4.40/bin/bin/../../lib/gcc/pic32mx/8.3.1/../../../../pic32mx/lib/micromips\libpic32.a(vector33.o)
 .xc_stack_usage.hdr
                0x0000000000000000        0xe c:/program files/microchip/xc32/v4.40/bin/bin/../../lib/gcc/pic32mx/8.3.1/../../../../pic32mx/lib/micromips\libpic32.a(vector33.o)
 .xc_stack_usage
                0x0000000000000000       0x22 c:/program files/microchip/xc32/v4.40/bin/bin/../../lib/gcc/pic32mx/8.3.1/../../../../pic32mx/lib/micromips\libpic32.a(vector33.o)
 .text          0x0000000000000000        0x0 c:/program files/microchip/xc32/v4.40/bin/bin/../../lib/gcc/pic32mx/8.3.1/../../../../pic32mx/lib/micromips\libpic32.a(vector34.o)
 .data          0x0000000000000000        0x0 c:/program files/microchip/xc32/v4.40/bin/bin/../../lib/gcc/pic32mx/8.3.1/../../../../pic32mx/lib/micromips\libpic32.a(vector34.o)
 .bss           0x0000000000000000        0x0 c:/program files/microchip/xc32/v4.40/bin/bin/../../lib/gcc/pic32mx/8.3.1/../../../../pic32mx/lib/micromips\libpic32.a(vector34.o)
 .reginfo       0x0000000000000000       0x18 c:/program files/microchip/xc32/v4.40/bin/bin/../../lib/gcc/pic32mx/8.3.1/../../../../pic32mx/lib/micromips\libpic32.a(vector34.o)
 .MIPS.abiflags
                0x0000000000000000       0x18 c:/program files/microchip/xc32/v4.40/bin/bin/../../lib/gcc/pic32mx/8.3.1/../../../../pic32mx/lib/micromips\libpic32.a(vector34.o)
 .xc_stack_usage.hdr
                0x0000000000000000        0xe c:/program files/microchip/xc32/v4.40/bin/bin/../../lib/gcc/pic32mx/8.3.1/../../../../pic32mx/lib/micromips\libpic32.a(vector34.o)
 .xc_stack_usage
                0x0000000000000000       0x22 c:/program files/microchip/xc32/v4.40/bin/bin/../../lib/gcc/pic32mx/8.3.1/../../../../pic32mx/lib/micromips\libpic32.a(vector34.o)
 .text          0x0000000000000000        0x0 c:/program files/microchip/xc32/v4.40/bin/bin/../../lib/gcc/pic32mx/8.3.1/../../../../pic32mx/lib/micromips\libpic32.a(vector35.o)
 .data          0x0000000000000000        0x0 c:/program files/microchip/xc32/v4.40/bin/bin/../../lib/gcc/pic32mx/8.3.1/../../../../pic32mx/lib/micromips\libpic32.a(vector35.o)
 .bss           0x0000000000000000        0x0 c:/program files/microchip/xc32/v4.40/bin/bin/../../lib/gcc/pic32mx/8.3.1/../../../../pic32mx/lib/micromips\libpic32.a(vector35.o)
 .reginfo       0x0000000000000000       0x18 c:/program files/microchip/xc32/v4.40/bin/bin/../../lib/gcc/pic32mx/8.3.1/../../../../pic32mx/lib/micromips\libpic32.a(vector35.o)
 .MIPS.abiflags
                0x0000000000000000       0x18 c:/program files/microchip/xc32/v4.40/bin/bin/../../lib/gcc/pic32mx/8.3.1/../../../../pic32mx/lib/micromips\libpic32.a(vector35.o)
 .xc_stack_usage.hdr
                0x0000000000000000        0xe c:/program files/microchip/xc32/v4.40/bin/bin/../../lib/gcc/pic32mx/8.3.1/../../../../pic32mx/lib/micromips\libpic32.a(vector35.o)
 .xc_stack_usage
                0x0000000000000000       0x22 c:/program files/microchip/xc32/v4.40/bin/bin/../../lib/gcc/pic32mx/8.3.1/../../../../pic32mx/lib/micromips\libpic32.a(vector35.o)
 .text          0x0000000000000000        0x0 c:/program files/microchip/xc32/v4.40/bin/bin/../../lib/gcc/pic32mx/8.3.1/../../../../pic32mx/lib/micromips\libpic32.a(vector36.o)
 .data          0x0000000000000000        0x0 c:/program files/microchip/xc32/v4.40/bin/bin/../../lib/gcc/pic32mx/8.3.1/../../../../pic32mx/lib/micromips\libpic32.a(vector36.o)
 .bss           0x0000000000000000        0x0 c:/program files/microchip/xc32/v4.40/bin/bin/../../lib/gcc/pic32mx/8.3.1/../../../../pic32mx/lib/micromips\libpic32.a(vector36.o)
 .reginfo       0x0000000000000000       0x18 c:/program files/microchip/xc32/v4.40/bin/bin/../../lib/gcc/pic32mx/8.3.1/../../../../pic32mx/lib/micromips\libpic32.a(vector36.o)
 .MIPS.abiflags
                0x0000000000000000       0x18 c:/program files/microchip/xc32/v4.40/bin/bin/../../lib/gcc/pic32mx/8.3.1/../../../../pic32mx/lib/micromips\libpic32.a(vector36.o)
 .xc_stack_usage.hdr
                0x0000000000000000        0xe c:/program files/microchip/xc32/v4.40/bin/bin/../../lib/gcc/pic32mx/8.3.1/../../../../pic32mx/lib/micromips\libpic32.a(vector36.o)
 .xc_stack_usage
                0x0000000000000000       0x22 c:/program files/microchip/xc32/v4.40/bin/bin/../../lib/gcc/pic32mx/8.3.1/../../../../pic32mx/lib/micromips\libpic32.a(vector36.o)
 .text          0x0000000000000000        0x0 c:/program files/microchip/xc32/v4.40/bin/bin/../../lib/gcc/pic32mx/8.3.1/../../../../pic32mx/lib/micromips\libpic32.a(vector37.o)
 .data          0x0000000000000000        0x0 c:/program files/microchip/xc32/v4.40/bin/bin/../../lib/gcc/pic32mx/8.3.1/../../../../pic32mx/lib/micromips\libpic32.a(vector37.o)
 .bss           0x0000000000000000        0x0 c:/program files/microchip/xc32/v4.40/bin/bin/../../lib/gcc/pic32mx/8.3.1/../../../../pic32mx/lib/micromips\libpic32.a(vector37.o)
 .reginfo       0x0000000000000000       0x18 c:/program files/microchip/xc32/v4.40/bin/bin/../../lib/gcc/pic32mx/8.3.1/../../../../pic32mx/lib/micromips\libpic32.a(vector37.o)
 .MIPS.abiflags
                0x0000000000000000       0x18 c:/program files/microchip/xc32/v4.40/bin/bin/../../lib/gcc/pic32mx/8.3.1/../../../../pic32mx/lib/micromips\libpic32.a(vector37.o)
 .xc_stack_usage.hdr
                0x0000000000000000        0xe c:/program files/microchip/xc32/v4.40/bin/bin/../../lib/gcc/pic32mx/8.3.1/../../../../pic32mx/lib/micromips\libpic32.a(vector37.o)
 .xc_stack_usage
                0x0000000000000000       0x22 c:/program files/microchip/xc32/v4.40/bin/bin/../../lib/gcc/pic32mx/8.3.1/../../../../pic32mx/lib/micromips\libpic32.a(vector37.o)
 .text          0x0000000000000000        0x0 c:/program files/microchip/xc32/v4.40/bin/bin/../../lib/gcc/pic32mx/8.3.1/../../../../pic32mx/lib/micromips\libpic32.a(vector38.o)
 .data          0x0000000000000000        0x0 c:/program files/microchip/xc32/v4.40/bin/bin/../../lib/gcc/pic32mx/8.3.1/../../../../pic32mx/lib/micromips\libpic32.a(vector38.o)
 .bss           0x0000000000000000        0x0 c:/program files/microchip/xc32/v4.40/bin/bin/../../lib/gcc/pic32mx/8.3.1/../../../../pic32mx/lib/micromips\libpic32.a(vector38.o)
 .reginfo       0x0000000000000000       0x18 c:/program files/microchip/xc32/v4.40/bin/bin/../../lib/gcc/pic32mx/8.3.1/../../../../pic32mx/lib/micromips\libpic32.a(vector38.o)
 .MIPS.abiflags
                0x0000000000000000       0x18 c:/program files/microchip/xc32/v4.40/bin/bin/../../lib/gcc/pic32mx/8.3.1/../../../../pic32mx/lib/micromips\libpic32.a(vector38.o)
 .xc_stack_usage.hdr
                0x0000000000000000        0xe c:/program files/microchip/xc32/v4.40/bin/bin/../../lib/gcc/pic32mx/8.3.1/../../../../pic32mx/lib/micromips\libpic32.a(vector38.o)
 .xc_stack_usage
                0x0000000000000000       0x22 c:/program files/microchip/xc32/v4.40/bin/bin/../../lib/gcc/pic32mx/8.3.1/../../../../pic32mx/lib/micromips\libpic32.a(vector38.o)
 .text          0x0000000000000000        0x0 c:/program files/microchip/xc32/v4.40/bin/bin/../../lib/gcc/pic32mx/8.3.1/../../../../pic32mx/lib/micromips\libpic32.a(vector39.o)
 .data          0x0000000000000000        0x0 c:/program files/microchip/xc32/v4.40/bin/bin/../../lib/gcc/pic32mx/8.3.1/../../../../pic32mx/lib/micromips\libpic32.a(vector39.o)
 .bss           0x0000000000000000        0x0 c:/program files/microchip/xc32/v4.40/bin/bin/../../lib/gcc/pic32mx/8.3.1/../../../../pic32mx/lib/micromips\libpic32.a(vector39.o)
 .reginfo       0x0000000000000000       0x18 c:/program files/microchip/xc32/v4.40/bin/bin/../../lib/gcc/pic32mx/8.3.1/../../../../pic32mx/lib/micromips\libpic32.a(vector39.o)
 .MIPS.abiflags
                0x0000000000000000       0x18 c:/program files/microchip/xc32/v4.40/bin/bin/../../lib/gcc/pic32mx/8.3.1/../../../../pic32mx/lib/micromips\libpic32.a(vector39.o)
 .xc_stack_usage.hdr
                0x0000000000000000        0xe c:/program files/microchip/xc32/v4.40/bin/bin/../../lib/gcc/pic32mx/8.3.1/../../../../pic32mx/lib/micromips\libpic32.a(vector39.o)
 .xc_stack_usage
                0x0000000000000000       0x22 c:/program files/microchip/xc32/v4.40/bin/bin/../../lib/gcc/pic32mx/8.3.1/../../../../pic32mx/lib/micromips\libpic32.a(vector39.o)
 .text          0x0000000000000000        0x0 c:/program files/microchip/xc32/v4.40/bin/bin/../../lib/gcc/pic32mx/8.3.1/../../../../pic32mx/lib/micromips\libpic32.a(vector40.o)
 .data          0x0000000000000000        0x0 c:/program files/microchip/xc32/v4.40/bin/bin/../../lib/gcc/pic32mx/8.3.1/../../../../pic32mx/lib/micromips\libpic32.a(vector40.o)
 .bss           0x0000000000000000        0x0 c:/program files/microchip/xc32/v4.40/bin/bin/../../lib/gcc/pic32mx/8.3.1/../../../../pic32mx/lib/micromips\libpic32.a(vector40.o)
 .reginfo       0x0000000000000000       0x18 c:/program files/microchip/xc32/v4.40/bin/bin/../../lib/gcc/pic32mx/8.3.1/../../../../pic32mx/lib/micromips\libpic32.a(vector40.o)
 .MIPS.abiflags
                0x0000000000000000       0x18 c:/program files/microchip/xc32/v4.40/bin/bin/../../lib/gcc/pic32mx/8.3.1/../../../../pic32mx/lib/micromips\libpic32.a(vector40.o)
 .xc_stack_usage.hdr
                0x0000000000000000        0xe c:/program files/microchip/xc32/v4.40/bin/bin/../../lib/gcc/pic32mx/8.3.1/../../../../pic32mx/lib/micromips\libpic32.a(vector40.o)
 .xc_stack_usage
                0x0000000000000000       0x22 c:/program files/microchip/xc32/v4.40/bin/bin/../../lib/gcc/pic32mx/8.3.1/../../../../pic32mx/lib/micromips\libpic32.a(vector40.o)
 .text          0x0000000000000000        0x0 c:/program files/microchip/xc32/v4.40/bin/bin/../../lib/gcc/pic32mx/8.3.1/../../../../pic32mx/lib/micromips\libpic32.a(vector41.o)
 .data          0x0000000000000000        0x0 c:/program files/microchip/xc32/v4.40/bin/bin/../../lib/gcc/pic32mx/8.3.1/../../../../pic32mx/lib/micromips\libpic32.a(vector41.o)
 .bss           0x0000000000000000        0x0 c:/program files/microchip/xc32/v4.40/bin/bin/../../lib/gcc/pic32mx/8.3.1/../../../../pic32mx/lib/micromips\libpic32.a(vector41.o)
 .reginfo       0x0000000000000000       0x18 c:/program files/microchip/xc32/v4.40/bin/bin/../../lib/gcc/pic32mx/8.3.1/../../../../pic32mx/lib/micromips\libpic32.a(vector41.o)
 .MIPS.abiflags
                0x0000000000000000       0x18 c:/program files/microchip/xc32/v4.40/bin/bin/../../lib/gcc/pic32mx/8.3.1/../../../../pic32mx/lib/micromips\libpic32.a(vector41.o)
 .xc_stack_usage.hdr
                0x0000000000000000        0xe c:/program files/microchip/xc32/v4.40/bin/bin/../../lib/gcc/pic32mx/8.3.1/../../../../pic32mx/lib/micromips\libpic32.a(vector41.o)
 .xc_stack_usage
                0x0000000000000000       0x22 c:/program files/microchip/xc32/v4.40/bin/bin/../../lib/gcc/pic32mx/8.3.1/../../../../pic32mx/lib/micromips\libpic32.a(vector41.o)
 .text          0x0000000000000000        0x0 c:/program files/microchip/xc32/v4.40/bin/bin/../../lib/gcc/pic32mx/8.3.1/../../../../pic32mx/lib/micromips\libpic32.a(vector42.o)
 .data          0x0000000000000000        0x0 c:/program files/microchip/xc32/v4.40/bin/bin/../../lib/gcc/pic32mx/8.3.1/../../../../pic32mx/lib/micromips\libpic32.a(vector42.o)
 .bss           0x0000000000000000        0x0 c:/program files/microchip/xc32/v4.40/bin/bin/../../lib/gcc/pic32mx/8.3.1/../../../../pic32mx/lib/micromips\libpic32.a(vector42.o)
 .reginfo       0x0000000000000000       0x18 c:/program files/microchip/xc32/v4.40/bin/bin/../../lib/gcc/pic32mx/8.3.1/../../../../pic32mx/lib/micromips\libpic32.a(vector42.o)
 .MIPS.abiflags
                0x0000000000000000       0x18 c:/program files/microchip/xc32/v4.40/bin/bin/../../lib/gcc/pic32mx/8.3.1/../../../../pic32mx/lib/micromips\libpic32.a(vector42.o)
 .xc_stack_usage.hdr
                0x0000000000000000        0xe c:/program files/microchip/xc32/v4.40/bin/bin/../../lib/gcc/pic32mx/8.3.1/../../../../pic32mx/lib/micromips\libpic32.a(vector42.o)
 .xc_stack_usage
                0x0000000000000000       0x22 c:/program files/microchip/xc32/v4.40/bin/bin/../../lib/gcc/pic32mx/8.3.1/../../../../pic32mx/lib/micromips\libpic32.a(vector42.o)
 .text          0x0000000000000000        0x0 c:/program files/microchip/xc32/v4.40/bin/bin/../../lib/gcc/pic32mx/8.3.1/../../../../pic32mx/lib/micromips\libpic32.a(vector43.o)
 .data          0x0000000000000000        0x0 c:/program files/microchip/xc32/v4.40/bin/bin/../../lib/gcc/pic32mx/8.3.1/../../../../pic32mx/lib/micromips\libpic32.a(vector43.o)
 .bss           0x0000000000000000        0x0 c:/program files/microchip/xc32/v4.40/bin/bin/../../lib/gcc/pic32mx/8.3.1/../../../../pic32mx/lib/micromips\libpic32.a(vector43.o)
 .reginfo       0x0000000000000000       0x18 c:/program files/microchip/xc32/v4.40/bin/bin/../../lib/gcc/pic32mx/8.3.1/../../../../pic32mx/lib/micromips\libpic32.a(vector43.o)
 .MIPS.abiflags
                0x0000000000000000       0x18 c:/program files/microchip/xc32/v4.40/bin/bin/../../lib/gcc/pic32mx/8.3.1/../../../../pic32mx/lib/micromips\libpic32.a(vector43.o)
 .xc_stack_usage.hdr
                0x0000000000000000        0xe c:/program files/microchip/xc32/v4.40/bin/bin/../../lib/gcc/pic32mx/8.3.1/../../../../pic32mx/lib/micromips\libpic32.a(vector43.o)
 .xc_stack_usage
                0x0000000000000000       0x22 c:/program files/microchip/xc32/v4.40/bin/bin/../../lib/gcc/pic32mx/8.3.1/../../../../pic32mx/lib/micromips\libpic32.a(vector43.o)
 .text          0x0000000000000000        0x0 c:/program files/microchip/xc32/v4.40/bin/bin/../../lib/gcc/pic32mx/8.3.1/../../../../pic32mx/lib/micromips\libpic32.a(vector44.o)
 .data          0x0000000000000000        0x0 c:/program files/microchip/xc32/v4.40/bin/bin/../../lib/gcc/pic32mx/8.3.1/../../../../pic32mx/lib/micromips\libpic32.a(vector44.o)
 .bss           0x0000000000000000        0x0 c:/program files/microchip/xc32/v4.40/bin/bin/../../lib/gcc/pic32mx/8.3.1/../../../../pic32mx/lib/micromips\libpic32.a(vector44.o)
 .reginfo       0x0000000000000000       0x18 c:/program files/microchip/xc32/v4.40/bin/bin/../../lib/gcc/pic32mx/8.3.1/../../../../pic32mx/lib/micromips\libpic32.a(vector44.o)
 .MIPS.abiflags
                0x0000000000000000       0x18 c:/program files/microchip/xc32/v4.40/bin/bin/../../lib/gcc/pic32mx/8.3.1/../../../../pic32mx/lib/micromips\libpic32.a(vector44.o)
 .xc_stack_usage.hdr
                0x0000000000000000        0xe c:/program files/microchip/xc32/v4.40/bin/bin/../../lib/gcc/pic32mx/8.3.1/../../../../pic32mx/lib/micromips\libpic32.a(vector44.o)
 .xc_stack_usage
                0x0000000000000000       0x22 c:/program files/microchip/xc32/v4.40/bin/bin/../../lib/gcc/pic32mx/8.3.1/../../../../pic32mx/lib/micromips\libpic32.a(vector44.o)
 .text          0x0000000000000000        0x0 c:/program files/microchip/xc32/v4.40/bin/bin/../../lib/gcc/pic32mx/8.3.1/../../../../pic32mx/lib/micromips\libpic32.a(vector45.o)
 .data          0x0000000000000000        0x0 c:/program files/microchip/xc32/v4.40/bin/bin/../../lib/gcc/pic32mx/8.3.1/../../../../pic32mx/lib/micromips\libpic32.a(vector45.o)
 .bss           0x0000000000000000        0x0 c:/program files/microchip/xc32/v4.40/bin/bin/../../lib/gcc/pic32mx/8.3.1/../../../../pic32mx/lib/micromips\libpic32.a(vector45.o)
 .reginfo       0x0000000000000000       0x18 c:/program files/microchip/xc32/v4.40/bin/bin/../../lib/gcc/pic32mx/8.3.1/../../../../pic32mx/lib/micromips\libpic32.a(vector45.o)
 .MIPS.abiflags
                0x0000000000000000       0x18 c:/program files/microchip/xc32/v4.40/bin/bin/../../lib/gcc/pic32mx/8.3.1/../../../../pic32mx/lib/micromips\libpic32.a(vector45.o)
 .xc_stack_usage.hdr
                0x0000000000000000        0xe c:/program files/microchip/xc32/v4.40/bin/bin/../../lib/gcc/pic32mx/8.3.1/../../../../pic32mx/lib/micromips\libpic32.a(vector45.o)
 .xc_stack_usage
                0x0000000000000000       0x22 c:/program files/microchip/xc32/v4.40/bin/bin/../../lib/gcc/pic32mx/8.3.1/../../../../pic32mx/lib/micromips\libpic32.a(vector45.o)
 .text          0x0000000000000000        0x0 c:/program files/microchip/xc32/v4.40/bin/bin/../../lib/gcc/pic32mx/8.3.1/../../../../pic32mx/lib/micromips\libpic32.a(vector46.o)
 .data          0x0000000000000000        0x0 c:/program files/microchip/xc32/v4.40/bin/bin/../../lib/gcc/pic32mx/8.3.1/../../../../pic32mx/lib/micromips\libpic32.a(vector46.o)
 .bss           0x0000000000000000        0x0 c:/program files/microchip/xc32/v4.40/bin/bin/../../lib/gcc/pic32mx/8.3.1/../../../../pic32mx/lib/micromips\libpic32.a(vector46.o)
 .reginfo       0x0000000000000000       0x18 c:/program files/microchip/xc32/v4.40/bin/bin/../../lib/gcc/pic32mx/8.3.1/../../../../pic32mx/lib/micromips\libpic32.a(vector46.o)
 .MIPS.abiflags
                0x0000000000000000       0x18 c:/program files/microchip/xc32/v4.40/bin/bin/../../lib/gcc/pic32mx/8.3.1/../../../../pic32mx/lib/micromips\libpic32.a(vector46.o)
 .xc_stack_usage.hdr
                0x0000000000000000        0xe c:/program files/microchip/xc32/v4.40/bin/bin/../../lib/gcc/pic32mx/8.3.1/../../../../pic32mx/lib/micromips\libpic32.a(vector46.o)
 .xc_stack_usage
                0x0000000000000000       0x22 c:/program files/microchip/xc32/v4.40/bin/bin/../../lib/gcc/pic32mx/8.3.1/../../../../pic32mx/lib/micromips\libpic32.a(vector46.o)
 .text          0x0000000000000000        0x0 c:/program files/microchip/xc32/v4.40/bin/bin/../../lib/gcc/pic32mx/8.3.1/../../../../pic32mx/lib/micromips\libpic32.a(vector47.o)
 .data          0x0000000000000000        0x0 c:/program files/microchip/xc32/v4.40/bin/bin/../../lib/gcc/pic32mx/8.3.1/../../../../pic32mx/lib/micromips\libpic32.a(vector47.o)
 .bss           0x0000000000000000        0x0 c:/program files/microchip/xc32/v4.40/bin/bin/../../lib/gcc/pic32mx/8.3.1/../../../../pic32mx/lib/micromips\libpic32.a(vector47.o)
 .reginfo       0x0000000000000000       0x18 c:/program files/microchip/xc32/v4.40/bin/bin/../../lib/gcc/pic32mx/8.3.1/../../../../pic32mx/lib/micromips\libpic32.a(vector47.o)
 .MIPS.abiflags
                0x0000000000000000       0x18 c:/program files/microchip/xc32/v4.40/bin/bin/../../lib/gcc/pic32mx/8.3.1/../../../../pic32mx/lib/micromips\libpic32.a(vector47.o)
 .xc_stack_usage.hdr
                0x0000000000000000        0xe c:/program files/microchip/xc32/v4.40/bin/bin/../../lib/gcc/pic32mx/8.3.1/../../../../pic32mx/lib/micromips\libpic32.a(vector47.o)
 .xc_stack_usage
                0x0000000000000000       0x22 c:/program files/microchip/xc32/v4.40/bin/bin/../../lib/gcc/pic32mx/8.3.1/../../../../pic32mx/lib/micromips\libpic32.a(vector47.o)
 .text          0x0000000000000000        0x0 c:/program files/microchip/xc32/v4.40/bin/bin/../../lib/gcc/pic32mx/8.3.1/../../../../pic32mx/lib/micromips\libpic32.a(vector48.o)
 .data          0x0000000000000000        0x0 c:/program files/microchip/xc32/v4.40/bin/bin/../../lib/gcc/pic32mx/8.3.1/../../../../pic32mx/lib/micromips\libpic32.a(vector48.o)
 .bss           0x0000000000000000        0x0 c:/program files/microchip/xc32/v4.40/bin/bin/../../lib/gcc/pic32mx/8.3.1/../../../../pic32mx/lib/micromips\libpic32.a(vector48.o)
 .reginfo       0x0000000000000000       0x18 c:/program files/microchip/xc32/v4.40/bin/bin/../../lib/gcc/pic32mx/8.3.1/../../../../pic32mx/lib/micromips\libpic32.a(vector48.o)
 .MIPS.abiflags
                0x0000000000000000       0x18 c:/program files/microchip/xc32/v4.40/bin/bin/../../lib/gcc/pic32mx/8.3.1/../../../../pic32mx/lib/micromips\libpic32.a(vector48.o)
 .xc_stack_usage.hdr
                0x0000000000000000        0xe c:/program files/microchip/xc32/v4.40/bin/bin/../../lib/gcc/pic32mx/8.3.1/../../../../pic32mx/lib/micromips\libpic32.a(vector48.o)
 .xc_stack_usage
                0x0000000000000000       0x22 c:/program files/microchip/xc32/v4.40/bin/bin/../../lib/gcc/pic32mx/8.3.1/../../../../pic32mx/lib/micromips\libpic32.a(vector48.o)
 .text          0x0000000000000000        0x0 c:/program files/microchip/xc32/v4.40/bin/bin/../../lib/gcc/pic32mx/8.3.1/../../../../pic32mx/lib/micromips\libpic32.a(vector49.o)
 .data          0x0000000000000000        0x0 c:/program files/microchip/xc32/v4.40/bin/bin/../../lib/gcc/pic32mx/8.3.1/../../../../pic32mx/lib/micromips\libpic32.a(vector49.o)
 .bss           0x0000000000000000        0x0 c:/program files/microchip/xc32/v4.40/bin/bin/../../lib/gcc/pic32mx/8.3.1/../../../../pic32mx/lib/micromips\libpic32.a(vector49.o)
 .reginfo       0x0000000000000000       0x18 c:/program files/microchip/xc32/v4.40/bin/bin/../../lib/gcc/pic32mx/8.3.1/../../../../pic32mx/lib/micromips\libpic32.a(vector49.o)
 .MIPS.abiflags
                0x0000000000000000       0x18 c:/program files/microchip/xc32/v4.40/bin/bin/../../lib/gcc/pic32mx/8.3.1/../../../../pic32mx/lib/micromips\libpic32.a(vector49.o)
 .xc_stack_usage.hdr
                0x0000000000000000        0xe c:/program files/microchip/xc32/v4.40/bin/bin/../../lib/gcc/pic32mx/8.3.1/../../../../pic32mx/lib/micromips\libpic32.a(vector49.o)
 .xc_stack_usage
                0x0000000000000000       0x22 c:/program files/microchip/xc32/v4.40/bin/bin/../../lib/gcc/pic32mx/8.3.1/../../../../pic32mx/lib/micromips\libpic32.a(vector49.o)
 .text          0x0000000000000000        0x0 c:/program files/microchip/xc32/v4.40/bin/bin/../../lib/gcc/pic32mx/8.3.1/../../../../pic32mx/lib/micromips\libpic32.a(vector50.o)
 .data          0x0000000000000000        0x0 c:/program files/microchip/xc32/v4.40/bin/bin/../../lib/gcc/pic32mx/8.3.1/../../../../pic32mx/lib/micromips\libpic32.a(vector50.o)
 .bss           0x0000000000000000        0x0 c:/program files/microchip/xc32/v4.40/bin/bin/../../lib/gcc/pic32mx/8.3.1/../../../../pic32mx/lib/micromips\libpic32.a(vector50.o)
 .reginfo       0x0000000000000000       0x18 c:/program files/microchip/xc32/v4.40/bin/bin/../../lib/gcc/pic32mx/8.3.1/../../../../pic32mx/lib/micromips\libpic32.a(vector50.o)
 .MIPS.abiflags
                0x0000000000000000       0x18 c:/program files/microchip/xc32/v4.40/bin/bin/../../lib/gcc/pic32mx/8.3.1/../../../../pic32mx/lib/micromips\libpic32.a(vector50.o)
 .xc_stack_usage.hdr
                0x0000000000000000        0xe c:/program files/microchip/xc32/v4.40/bin/bin/../../lib/gcc/pic32mx/8.3.1/../../../../pic32mx/lib/micromips\libpic32.a(vector50.o)
 .xc_stack_usage
                0x0000000000000000       0x22 c:/program files/microchip/xc32/v4.40/bin/bin/../../lib/gcc/pic32mx/8.3.1/../../../../pic32mx/lib/micromips\libpic32.a(vector50.o)
 .text          0x0000000000000000        0x0 c:/program files/microchip/xc32/v4.40/bin/bin/../../lib/gcc/pic32mx/8.3.1/../../../../pic32mx/lib/micromips\libpic32.a(vector51.o)
 .data          0x0000000000000000        0x0 c:/program files/microchip/xc32/v4.40/bin/bin/../../lib/gcc/pic32mx/8.3.1/../../../../pic32mx/lib/micromips\libpic32.a(vector51.o)
 .bss           0x0000000000000000        0x0 c:/program files/microchip/xc32/v4.40/bin/bin/../../lib/gcc/pic32mx/8.3.1/../../../../pic32mx/lib/micromips\libpic32.a(vector51.o)
 .reginfo       0x0000000000000000       0x18 c:/program files/microchip/xc32/v4.40/bin/bin/../../lib/gcc/pic32mx/8.3.1/../../../../pic32mx/lib/micromips\libpic32.a(vector51.o)
 .MIPS.abiflags
                0x0000000000000000       0x18 c:/program files/microchip/xc32/v4.40/bin/bin/../../lib/gcc/pic32mx/8.3.1/../../../../pic32mx/lib/micromips\libpic32.a(vector51.o)
 .xc_stack_usage.hdr
                0x0000000000000000        0xe c:/program files/microchip/xc32/v4.40/bin/bin/../../lib/gcc/pic32mx/8.3.1/../../../../pic32mx/lib/micromips\libpic32.a(vector51.o)
 .xc_stack_usage
                0x0000000000000000       0x22 c:/program files/microchip/xc32/v4.40/bin/bin/../../lib/gcc/pic32mx/8.3.1/../../../../pic32mx/lib/micromips\libpic32.a(vector51.o)
 .text          0x0000000000000000        0x0 c:/program files/microchip/xc32/v4.40/bin/bin/../../lib/gcc/pic32mx/8.3.1/../../../../pic32mx/lib/micromips\libpic32.a(vector52.o)
 .data          0x0000000000000000        0x0 c:/program files/microchip/xc32/v4.40/bin/bin/../../lib/gcc/pic32mx/8.3.1/../../../../pic32mx/lib/micromips\libpic32.a(vector52.o)
 .bss           0x0000000000000000        0x0 c:/program files/microchip/xc32/v4.40/bin/bin/../../lib/gcc/pic32mx/8.3.1/../../../../pic32mx/lib/micromips\libpic32.a(vector52.o)
 .reginfo       0x0000000000000000       0x18 c:/program files/microchip/xc32/v4.40/bin/bin/../../lib/gcc/pic32mx/8.3.1/../../../../pic32mx/lib/micromips\libpic32.a(vector52.o)
 .MIPS.abiflags
                0x0000000000000000       0x18 c:/program files/microchip/xc32/v4.40/bin/bin/../../lib/gcc/pic32mx/8.3.1/../../../../pic32mx/lib/micromips\libpic32.a(vector52.o)
 .xc_stack_usage.hdr
                0x0000000000000000        0xe c:/program files/microchip/xc32/v4.40/bin/bin/../../lib/gcc/pic32mx/8.3.1/../../../../pic32mx/lib/micromips\libpic32.a(vector52.o)
 .xc_stack_usage
                0x0000000000000000       0x22 c:/program files/microchip/xc32/v4.40/bin/bin/../../lib/gcc/pic32mx/8.3.1/../../../../pic32mx/lib/micromips\libpic32.a(vector52.o)
 .text          0x0000000000000000        0x0 c:/program files/microchip/xc32/v4.40/bin/bin/../../lib/gcc/pic32mx/8.3.1/../../../../pic32mx/lib/micromips\libpic32.a(vector53.o)
 .data          0x0000000000000000        0x0 c:/program files/microchip/xc32/v4.40/bin/bin/../../lib/gcc/pic32mx/8.3.1/../../../../pic32mx/lib/micromips\libpic32.a(vector53.o)
 .bss           0x0000000000000000        0x0 c:/program files/microchip/xc32/v4.40/bin/bin/../../lib/gcc/pic32mx/8.3.1/../../../../pic32mx/lib/micromips\libpic32.a(vector53.o)
 .reginfo       0x0000000000000000       0x18 c:/program files/microchip/xc32/v4.40/bin/bin/../../lib/gcc/pic32mx/8.3.1/../../../../pic32mx/lib/micromips\libpic32.a(vector53.o)
 .MIPS.abiflags
                0x0000000000000000       0x18 c:/program files/microchip/xc32/v4.40/bin/bin/../../lib/gcc/pic32mx/8.3.1/../../../../pic32mx/lib/micromips\libpic32.a(vector53.o)
 .xc_stack_usage.hdr
                0x0000000000000000        0xe c:/program files/microchip/xc32/v4.40/bin/bin/../../lib/gcc/pic32mx/8.3.1/../../../../pic32mx/lib/micromips\libpic32.a(vector53.o)
 .xc_stack_usage
                0x0000000000000000       0x22 c:/program files/microchip/xc32/v4.40/bin/bin/../../lib/gcc/pic32mx/8.3.1/../../../../pic32mx/lib/micromips\libpic32.a(vector53.o)
 .text          0x0000000000000000        0x0 c:/program files/microchip/xc32/v4.40/bin/bin/../../lib/gcc/pic32mx/8.3.1/../../../../pic32mx/lib/micromips\libpic32.a(vector54.o)
 .data          0x0000000000000000        0x0 c:/program files/microchip/xc32/v4.40/bin/bin/../../lib/gcc/pic32mx/8.3.1/../../../../pic32mx/lib/micromips\libpic32.a(vector54.o)
 .bss           0x0000000000000000        0x0 c:/program files/microchip/xc32/v4.40/bin/bin/../../lib/gcc/pic32mx/8.3.1/../../../../pic32mx/lib/micromips\libpic32.a(vector54.o)
 .reginfo       0x0000000000000000       0x18 c:/program files/microchip/xc32/v4.40/bin/bin/../../lib/gcc/pic32mx/8.3.1/../../../../pic32mx/lib/micromips\libpic32.a(vector54.o)
 .MIPS.abiflags
                0x0000000000000000       0x18 c:/program files/microchip/xc32/v4.40/bin/bin/../../lib/gcc/pic32mx/8.3.1/../../../../pic32mx/lib/micromips\libpic32.a(vector54.o)
 .xc_stack_usage.hdr
                0x0000000000000000        0xe c:/program files/microchip/xc32/v4.40/bin/bin/../../lib/gcc/pic32mx/8.3.1/../../../../pic32mx/lib/micromips\libpic32.a(vector54.o)
 .xc_stack_usage
                0x0000000000000000       0x22 c:/program files/microchip/xc32/v4.40/bin/bin/../../lib/gcc/pic32mx/8.3.1/../../../../pic32mx/lib/micromips\libpic32.a(vector54.o)
 .text          0x0000000000000000        0x0 c:/program files/microchip/xc32/v4.40/bin/bin/../../lib/gcc/pic32mx/8.3.1/../../../../pic32mx/lib/micromips\libpic32.a(vector55.o)
 .data          0x0000000000000000        0x0 c:/program files/microchip/xc32/v4.40/bin/bin/../../lib/gcc/pic32mx/8.3.1/../../../../pic32mx/lib/micromips\libpic32.a(vector55.o)
 .bss           0x0000000000000000        0x0 c:/program files/microchip/xc32/v4.40/bin/bin/../../lib/gcc/pic32mx/8.3.1/../../../../pic32mx/lib/micromips\libpic32.a(vector55.o)
 .reginfo       0x0000000000000000       0x18 c:/program files/microchip/xc32/v4.40/bin/bin/../../lib/gcc/pic32mx/8.3.1/../../../../pic32mx/lib/micromips\libpic32.a(vector55.o)
 .MIPS.abiflags
                0x0000000000000000       0x18 c:/program files/microchip/xc32/v4.40/bin/bin/../../lib/gcc/pic32mx/8.3.1/../../../../pic32mx/lib/micromips\libpic32.a(vector55.o)
 .xc_stack_usage.hdr
                0x0000000000000000        0xe c:/program files/microchip/xc32/v4.40/bin/bin/../../lib/gcc/pic32mx/8.3.1/../../../../pic32mx/lib/micromips\libpic32.a(vector55.o)
 .xc_stack_usage
                0x0000000000000000       0x22 c:/program files/microchip/xc32/v4.40/bin/bin/../../lib/gcc/pic32mx/8.3.1/../../../../pic32mx/lib/micromips\libpic32.a(vector55.o)
 .text          0x0000000000000000        0x0 c:/program files/microchip/xc32/v4.40/bin/bin/../../lib/gcc/pic32mx/8.3.1/../../../../pic32mx/lib/micromips\libpic32.a(vector62.o)
 .data          0x0000000000000000        0x0 c:/program files/microchip/xc32/v4.40/bin/bin/../../lib/gcc/pic32mx/8.3.1/../../../../pic32mx/lib/micromips\libpic32.a(vector62.o)
 .bss           0x0000000000000000        0x0 c:/program files/microchip/xc32/v4.40/bin/bin/../../lib/gcc/pic32mx/8.3.1/../../../../pic32mx/lib/micromips\libpic32.a(vector62.o)
 .reginfo       0x0000000000000000       0x18 c:/program files/microchip/xc32/v4.40/bin/bin/../../lib/gcc/pic32mx/8.3.1/../../../../pic32mx/lib/micromips\libpic32.a(vector62.o)
 .MIPS.abiflags
                0x0000000000000000       0x18 c:/program files/microchip/xc32/v4.40/bin/bin/../../lib/gcc/pic32mx/8.3.1/../../../../pic32mx/lib/micromips\libpic32.a(vector62.o)
 .xc_stack_usage.hdr
                0x0000000000000000        0xe c:/program files/microchip/xc32/v4.40/bin/bin/../../lib/gcc/pic32mx/8.3.1/../../../../pic32mx/lib/micromips\libpic32.a(vector62.o)
 .xc_stack_usage
                0x0000000000000000       0x22 c:/program files/microchip/xc32/v4.40/bin/bin/../../lib/gcc/pic32mx/8.3.1/../../../../pic32mx/lib/micromips\libpic32.a(vector62.o)
 .text          0x0000000000000000        0x0 c:/program files/microchip/xc32/v4.40/bin/bin/../../lib/gcc/pic32mx/8.3.1/../../../../pic32mx/lib/micromips\libpic32.a(vector63.o)
 .data          0x0000000000000000        0x0 c:/program files/microchip/xc32/v4.40/bin/bin/../../lib/gcc/pic32mx/8.3.1/../../../../pic32mx/lib/micromips\libpic32.a(vector63.o)
 .bss           0x0000000000000000        0x0 c:/program files/microchip/xc32/v4.40/bin/bin/../../lib/gcc/pic32mx/8.3.1/../../../../pic32mx/lib/micromips\libpic32.a(vector63.o)
 .reginfo       0x0000000000000000       0x18 c:/program files/microchip/xc32/v4.40/bin/bin/../../lib/gcc/pic32mx/8.3.1/../../../../pic32mx/lib/micromips\libpic32.a(vector63.o)
 .MIPS.abiflags
                0x0000000000000000       0x18 c:/program files/microchip/xc32/v4.40/bin/bin/../../lib/gcc/pic32mx/8.3.1/../../../../pic32mx/lib/micromips\libpic32.a(vector63.o)
 .xc_stack_usage.hdr
                0x0000000000000000        0xe c:/program files/microchip/xc32/v4.40/bin/bin/../../lib/gcc/pic32mx/8.3.1/../../../../pic32mx/lib/micromips\libpic32.a(vector63.o)
 .xc_stack_usage
                0x0000000000000000       0x22 c:/program files/microchip/xc32/v4.40/bin/bin/../../lib/gcc/pic32mx/8.3.1/../../../../pic32mx/lib/micromips\libpic32.a(vector63.o)
 .text          0x0000000000000000        0x0 c:/program files/microchip/xc32/v4.40/bin/bin/../../lib/gcc/pic32mx/8.3.1/../../../../pic32mx/lib/micromips\libpic32.a(vector64.o)
 .data          0x0000000000000000        0x0 c:/program files/microchip/xc32/v4.40/bin/bin/../../lib/gcc/pic32mx/8.3.1/../../../../pic32mx/lib/micromips\libpic32.a(vector64.o)
 .bss           0x0000000000000000        0x0 c:/program files/microchip/xc32/v4.40/bin/bin/../../lib/gcc/pic32mx/8.3.1/../../../../pic32mx/lib/micromips\libpic32.a(vector64.o)
 .reginfo       0x0000000000000000       0x18 c:/program files/microchip/xc32/v4.40/bin/bin/../../lib/gcc/pic32mx/8.3.1/../../../../pic32mx/lib/micromips\libpic32.a(vector64.o)
 .MIPS.abiflags
                0x0000000000000000       0x18 c:/program files/microchip/xc32/v4.40/bin/bin/../../lib/gcc/pic32mx/8.3.1/../../../../pic32mx/lib/micromips\libpic32.a(vector64.o)
 .xc_stack_usage.hdr
                0x0000000000000000        0xe c:/program files/microchip/xc32/v4.40/bin/bin/../../lib/gcc/pic32mx/8.3.1/../../../../pic32mx/lib/micromips\libpic32.a(vector64.o)
 .xc_stack_usage
                0x0000000000000000       0x22 c:/program files/microchip/xc32/v4.40/bin/bin/../../lib/gcc/pic32mx/8.3.1/../../../../pic32mx/lib/micromips\libpic32.a(vector64.o)
 .text          0x0000000000000000        0x0 c:/program files/microchip/xc32/v4.40/bin/bin/../../lib/gcc/pic32mx/8.3.1/../../../../pic32mx/lib/micromips\libpic32.a(vector68.o)
 .data          0x0000000000000000        0x0 c:/program files/microchip/xc32/v4.40/bin/bin/../../lib/gcc/pic32mx/8.3.1/../../../../pic32mx/lib/micromips\libpic32.a(vector68.o)
 .bss           0x0000000000000000        0x0 c:/program files/microchip/xc32/v4.40/bin/bin/../../lib/gcc/pic32mx/8.3.1/../../../../pic32mx/lib/micromips\libpic32.a(vector68.o)
 .reginfo       0x0000000000000000       0x18 c:/program files/microchip/xc32/v4.40/bin/bin/../../lib/gcc/pic32mx/8.3.1/../../../../pic32mx/lib/micromips\libpic32.a(vector68.o)
 .MIPS.abiflags
                0x0000000000000000       0x18 c:/program files/microchip/xc32/v4.40/bin/bin/../../lib/gcc/pic32mx/8.3.1/../../../../pic32mx/lib/micromips\libpic32.a(vector68.o)
 .xc_stack_usage.hdr
                0x0000000000000000        0xe c:/program files/microchip/xc32/v4.40/bin/bin/../../lib/gcc/pic32mx/8.3.1/../../../../pic32mx/lib/micromips\libpic32.a(vector68.o)
 .xc_stack_usage
                0x0000000000000000       0x22 c:/program files/microchip/xc32/v4.40/bin/bin/../../lib/gcc/pic32mx/8.3.1/../../../../pic32mx/lib/micromips\libpic32.a(vector68.o)
 .text          0x0000000000000000        0x0 c:/program files/microchip/xc32/v4.40/bin/bin/../../lib/gcc/pic32mx/8.3.1/../../../../pic32mx/lib/micromips\libpic32.a(vector69.o)
 .data          0x0000000000000000        0x0 c:/program files/microchip/xc32/v4.40/bin/bin/../../lib/gcc/pic32mx/8.3.1/../../../../pic32mx/lib/micromips\libpic32.a(vector69.o)
 .bss           0x0000000000000000        0x0 c:/program files/microchip/xc32/v4.40/bin/bin/../../lib/gcc/pic32mx/8.3.1/../../../../pic32mx/lib/micromips\libpic32.a(vector69.o)
 .reginfo       0x0000000000000000       0x18 c:/program files/microchip/xc32/v4.40/bin/bin/../../lib/gcc/pic32mx/8.3.1/../../../../pic32mx/lib/micromips\libpic32.a(vector69.o)
 .MIPS.abiflags
                0x0000000000000000       0x18 c:/program files/microchip/xc32/v4.40/bin/bin/../../lib/gcc/pic32mx/8.3.1/../../../../pic32mx/lib/micromips\libpic32.a(vector69.o)
 .xc_stack_usage.hdr
                0x0000000000000000        0xe c:/program files/microchip/xc32/v4.40/bin/bin/../../lib/gcc/pic32mx/8.3.1/../../../../pic32mx/lib/micromips\libpic32.a(vector69.o)
 .xc_stack_usage
                0x0000000000000000       0x22 c:/program files/microchip/xc32/v4.40/bin/bin/../../lib/gcc/pic32mx/8.3.1/../../../../pic32mx/lib/micromips\libpic32.a(vector69.o)
 .text          0x0000000000000000        0x0 c:/program files/microchip/xc32/v4.40/bin/bin/../../lib/gcc/pic32mx/8.3.1/../../../../pic32mx/lib/micromips\libpic32.a(vector70.o)
 .data          0x0000000000000000        0x0 c:/program files/microchip/xc32/v4.40/bin/bin/../../lib/gcc/pic32mx/8.3.1/../../../../pic32mx/lib/micromips\libpic32.a(vector70.o)
 .bss           0x0000000000000000        0x0 c:/program files/microchip/xc32/v4.40/bin/bin/../../lib/gcc/pic32mx/8.3.1/../../../../pic32mx/lib/micromips\libpic32.a(vector70.o)
 .reginfo       0x0000000000000000       0x18 c:/program files/microchip/xc32/v4.40/bin/bin/../../lib/gcc/pic32mx/8.3.1/../../../../pic32mx/lib/micromips\libpic32.a(vector70.o)
 .MIPS.abiflags
                0x0000000000000000       0x18 c:/program files/microchip/xc32/v4.40/bin/bin/../../lib/gcc/pic32mx/8.3.1/../../../../pic32mx/lib/micromips\libpic32.a(vector70.o)
 .xc_stack_usage.hdr
                0x0000000000000000        0xe c:/program files/microchip/xc32/v4.40/bin/bin/../../lib/gcc/pic32mx/8.3.1/../../../../pic32mx/lib/micromips\libpic32.a(vector70.o)
 .xc_stack_usage
                0x0000000000000000       0x22 c:/program files/microchip/xc32/v4.40/bin/bin/../../lib/gcc/pic32mx/8.3.1/../../../../pic32mx/lib/micromips\libpic32.a(vector70.o)
 .text          0x0000000000000000        0x0 c:/program files/microchip/xc32/v4.40/bin/bin/../../lib/gcc/pic32mx/8.3.1/../../../../pic32mx/lib/micromips\libpic32.a(vector71.o)
 .data          0x0000000000000000        0x0 c:/program files/microchip/xc32/v4.40/bin/bin/../../lib/gcc/pic32mx/8.3.1/../../../../pic32mx/lib/micromips\libpic32.a(vector71.o)
 .bss           0x0000000000000000        0x0 c:/program files/microchip/xc32/v4.40/bin/bin/../../lib/gcc/pic32mx/8.3.1/../../../../pic32mx/lib/micromips\libpic32.a(vector71.o)
 .reginfo       0x0000000000000000       0x18 c:/program files/microchip/xc32/v4.40/bin/bin/../../lib/gcc/pic32mx/8.3.1/../../../../pic32mx/lib/micromips\libpic32.a(vector71.o)
 .MIPS.abiflags
                0x0000000000000000       0x18 c:/program files/microchip/xc32/v4.40/bin/bin/../../lib/gcc/pic32mx/8.3.1/../../../../pic32mx/lib/micromips\libpic32.a(vector71.o)
 .xc_stack_usage.hdr
                0x0000000000000000        0xe c:/program files/microchip/xc32/v4.40/bin/bin/../../lib/gcc/pic32mx/8.3.1/../../../../pic32mx/lib/micromips\libpic32.a(vector71.o)
 .xc_stack_usage
                0x0000000000000000       0x22 c:/program files/microchip/xc32/v4.40/bin/bin/../../lib/gcc/pic32mx/8.3.1/../../../../pic32mx/lib/micromips\libpic32.a(vector71.o)
 .text          0x0000000000000000        0x0 c:/program files/microchip/xc32/v4.40/bin/bin/../../lib/gcc/pic32mx/8.3.1/../../../../pic32mx/lib/micromips\libpic32.a(vector72.o)
 .data          0x0000000000000000        0x0 c:/program files/microchip/xc32/v4.40/bin/bin/../../lib/gcc/pic32mx/8.3.1/../../../../pic32mx/lib/micromips\libpic32.a(vector72.o)
 .bss           0x0000000000000000        0x0 c:/program files/microchip/xc32/v4.40/bin/bin/../../lib/gcc/pic32mx/8.3.1/../../../../pic32mx/lib/micromips\libpic32.a(vector72.o)
 .reginfo       0x0000000000000000       0x18 c:/program files/microchip/xc32/v4.40/bin/bin/../../lib/gcc/pic32mx/8.3.1/../../../../pic32mx/lib/micromips\libpic32.a(vector72.o)
 .MIPS.abiflags
                0x0000000000000000       0x18 c:/program files/microchip/xc32/v4.40/bin/bin/../../lib/gcc/pic32mx/8.3.1/../../../../pic32mx/lib/micromips\libpic32.a(vector72.o)
 .xc_stack_usage.hdr
                0x0000000000000000        0xe c:/program files/microchip/xc32/v4.40/bin/bin/../../lib/gcc/pic32mx/8.3.1/../../../../pic32mx/lib/micromips\libpic32.a(vector72.o)
 .xc_stack_usage
                0x0000000000000000       0x22 c:/program files/microchip/xc32/v4.40/bin/bin/../../lib/gcc/pic32mx/8.3.1/../../../../pic32mx/lib/micromips\libpic32.a(vector72.o)
 .text          0x0000000000000000        0x0 c:/program files/microchip/xc32/v4.40/bin/bin/../../lib/gcc/pic32mx/8.3.1/../../../../pic32mx/lib/micromips\libpic32.a(vector73.o)
 .data          0x0000000000000000        0x0 c:/program files/microchip/xc32/v4.40/bin/bin/../../lib/gcc/pic32mx/8.3.1/../../../../pic32mx/lib/micromips\libpic32.a(vector73.o)
 .bss           0x0000000000000000        0x0 c:/program files/microchip/xc32/v4.40/bin/bin/../../lib/gcc/pic32mx/8.3.1/../../../../pic32mx/lib/micromips\libpic32.a(vector73.o)
 .reginfo       0x0000000000000000       0x18 c:/program files/microchip/xc32/v4.40/bin/bin/../../lib/gcc/pic32mx/8.3.1/../../../../pic32mx/lib/micromips\libpic32.a(vector73.o)
 .MIPS.abiflags
                0x0000000000000000       0x18 c:/program files/microchip/xc32/v4.40/bin/bin/../../lib/gcc/pic32mx/8.3.1/../../../../pic32mx/lib/micromips\libpic32.a(vector73.o)
 .xc_stack_usage.hdr
                0x0000000000000000        0xe c:/program files/microchip/xc32/v4.40/bin/bin/../../lib/gcc/pic32mx/8.3.1/../../../../pic32mx/lib/micromips\libpic32.a(vector73.o)
 .xc_stack_usage
                0x0000000000000000       0x22 c:/program files/microchip/xc32/v4.40/bin/bin/../../lib/gcc/pic32mx/8.3.1/../../../../pic32mx/lib/micromips\libpic32.a(vector73.o)
 .text          0x0000000000000000        0x0 c:/program files/microchip/xc32/v4.40/bin/bin/../../lib/gcc/pic32mx/8.3.1/../../../../pic32mx/lib/micromips\libpic32.a(vector74.o)
 .data          0x0000000000000000        0x0 c:/program files/microchip/xc32/v4.40/bin/bin/../../lib/gcc/pic32mx/8.3.1/../../../../pic32mx/lib/micromips\libpic32.a(vector74.o)
 .bss           0x0000000000000000        0x0 c:/program files/microchip/xc32/v4.40/bin/bin/../../lib/gcc/pic32mx/8.3.1/../../../../pic32mx/lib/micromips\libpic32.a(vector74.o)
 .reginfo       0x0000000000000000       0x18 c:/program files/microchip/xc32/v4.40/bin/bin/../../lib/gcc/pic32mx/8.3.1/../../../../pic32mx/lib/micromips\libpic32.a(vector74.o)
 .MIPS.abiflags
                0x0000000000000000       0x18 c:/program files/microchip/xc32/v4.40/bin/bin/../../lib/gcc/pic32mx/8.3.1/../../../../pic32mx/lib/micromips\libpic32.a(vector74.o)
 .xc_stack_usage.hdr
                0x0000000000000000        0xe c:/program files/microchip/xc32/v4.40/bin/bin/../../lib/gcc/pic32mx/8.3.1/../../../../pic32mx/lib/micromips\libpic32.a(vector74.o)
 .xc_stack_usage
                0x0000000000000000       0x22 c:/program files/microchip/xc32/v4.40/bin/bin/../../lib/gcc/pic32mx/8.3.1/../../../../pic32mx/lib/micromips\libpic32.a(vector74.o)
 .text          0x0000000000000000        0x0 c:/program files/microchip/xc32/v4.40/bin/bin/../../lib/gcc/pic32mx/8.3.1/../../../../pic32mx/lib/micromips\libpic32.a(vector75.o)
 .data          0x0000000000000000        0x0 c:/program files/microchip/xc32/v4.40/bin/bin/../../lib/gcc/pic32mx/8.3.1/../../../../pic32mx/lib/micromips\libpic32.a(vector75.o)
 .bss           0x0000000000000000        0x0 c:/program files/microchip/xc32/v4.40/bin/bin/../../lib/gcc/pic32mx/8.3.1/../../../../pic32mx/lib/micromips\libpic32.a(vector75.o)
 .reginfo       0x0000000000000000       0x18 c:/program files/microchip/xc32/v4.40/bin/bin/../../lib/gcc/pic32mx/8.3.1/../../../../pic32mx/lib/micromips\libpic32.a(vector75.o)
 .MIPS.abiflags
                0x0000000000000000       0x18 c:/program files/microchip/xc32/v4.40/bin/bin/../../lib/gcc/pic32mx/8.3.1/../../../../pic32mx/lib/micromips\libpic32.a(vector75.o)
 .xc_stack_usage.hdr
                0x0000000000000000        0xe c:/program files/microchip/xc32/v4.40/bin/bin/../../lib/gcc/pic32mx/8.3.1/../../../../pic32mx/lib/micromips\libpic32.a(vector75.o)
 .xc_stack_usage
                0x0000000000000000       0x22 c:/program files/microchip/xc32/v4.40/bin/bin/../../lib/gcc/pic32mx/8.3.1/../../../../pic32mx/lib/micromips\libpic32.a(vector75.o)
 .text          0x0000000000000000        0x0 c:/program files/microchip/xc32/v4.40/bin/bin/../../lib/gcc/pic32mx/8.3.1/../../../../pic32mx/lib/micromips\libpic32.a(vector76.o)
 .data          0x0000000000000000        0x0 c:/program files/microchip/xc32/v4.40/bin/bin/../../lib/gcc/pic32mx/8.3.1/../../../../pic32mx/lib/micromips\libpic32.a(vector76.o)
 .bss           0x0000000000000000        0x0 c:/program files/microchip/xc32/v4.40/bin/bin/../../lib/gcc/pic32mx/8.3.1/../../../../pic32mx/lib/micromips\libpic32.a(vector76.o)
 .reginfo       0x0000000000000000       0x18 c:/program files/microchip/xc32/v4.40/bin/bin/../../lib/gcc/pic32mx/8.3.1/../../../../pic32mx/lib/micromips\libpic32.a(vector76.o)
 .MIPS.abiflags
                0x0000000000000000       0x18 c:/program files/microchip/xc32/v4.40/bin/bin/../../lib/gcc/pic32mx/8.3.1/../../../../pic32mx/lib/micromips\libpic32.a(vector76.o)
 .xc_stack_usage.hdr
                0x0000000000000000        0xe c:/program files/microchip/xc32/v4.40/bin/bin/../../lib/gcc/pic32mx/8.3.1/../../../../pic32mx/lib/micromips\libpic32.a(vector76.o)
 .xc_stack_usage
                0x0000000000000000       0x22 c:/program files/microchip/xc32/v4.40/bin/bin/../../lib/gcc/pic32mx/8.3.1/../../../../pic32mx/lib/micromips\libpic32.a(vector76.o)
 .text          0x0000000000000000        0x0 c:/program files/microchip/xc32/v4.40/bin/bin/../../lib/gcc/pic32mx/8.3.1/../../../../pic32mx/lib/micromips\libpic32.a(vector77.o)
 .data          0x0000000000000000        0x0 c:/program files/microchip/xc32/v4.40/bin/bin/../../lib/gcc/pic32mx/8.3.1/../../../../pic32mx/lib/micromips\libpic32.a(vector77.o)
 .bss           0x0000000000000000        0x0 c:/program files/microchip/xc32/v4.40/bin/bin/../../lib/gcc/pic32mx/8.3.1/../../../../pic32mx/lib/micromips\libpic32.a(vector77.o)
 .reginfo       0x0000000000000000       0x18 c:/program files/microchip/xc32/v4.40/bin/bin/../../lib/gcc/pic32mx/8.3.1/../../../../pic32mx/lib/micromips\libpic32.a(vector77.o)
 .MIPS.abiflags
                0x0000000000000000       0x18 c:/program files/microchip/xc32/v4.40/bin/bin/../../lib/gcc/pic32mx/8.3.1/../../../../pic32mx/lib/micromips\libpic32.a(vector77.o)
 .xc_stack_usage.hdr
                0x0000000000000000        0xe c:/program files/microchip/xc32/v4.40/bin/bin/../../lib/gcc/pic32mx/8.3.1/../../../../pic32mx/lib/micromips\libpic32.a(vector77.o)
 .xc_stack_usage
                0x0000000000000000       0x22 c:/program files/microchip/xc32/v4.40/bin/bin/../../lib/gcc/pic32mx/8.3.1/../../../../pic32mx/lib/micromips\libpic32.a(vector77.o)
 .text          0x0000000000000000        0x0 c:/program files/microchip/xc32/v4.40/bin/bin/../../lib/gcc/pic32mx/8.3.1/../../../../pic32mx/lib/micromips\libpic32.a(vector78.o)
 .data          0x0000000000000000        0x0 c:/program files/microchip/xc32/v4.40/bin/bin/../../lib/gcc/pic32mx/8.3.1/../../../../pic32mx/lib/micromips\libpic32.a(vector78.o)
 .bss           0x0000000000000000        0x0 c:/program files/microchip/xc32/v4.40/bin/bin/../../lib/gcc/pic32mx/8.3.1/../../../../pic32mx/lib/micromips\libpic32.a(vector78.o)
 .reginfo       0x0000000000000000       0x18 c:/program files/microchip/xc32/v4.40/bin/bin/../../lib/gcc/pic32mx/8.3.1/../../../../pic32mx/lib/micromips\libpic32.a(vector78.o)
 .MIPS.abiflags
                0x0000000000000000       0x18 c:/program files/microchip/xc32/v4.40/bin/bin/../../lib/gcc/pic32mx/8.3.1/../../../../pic32mx/lib/micromips\libpic32.a(vector78.o)
 .xc_stack_usage.hdr
                0x0000000000000000        0xe c:/program files/microchip/xc32/v4.40/bin/bin/../../lib/gcc/pic32mx/8.3.1/../../../../pic32mx/lib/micromips\libpic32.a(vector78.o)
 .xc_stack_usage
                0x0000000000000000       0x22 c:/program files/microchip/xc32/v4.40/bin/bin/../../lib/gcc/pic32mx/8.3.1/../../../../pic32mx/lib/micromips\libpic32.a(vector78.o)
 .text          0x0000000000000000        0x0 c:/program files/microchip/xc32/v4.40/bin/bin/../../lib/gcc/pic32mx/8.3.1/../../../../pic32mx/lib/micromips\libpic32.a(vector79.o)
 .data          0x0000000000000000        0x0 c:/program files/microchip/xc32/v4.40/bin/bin/../../lib/gcc/pic32mx/8.3.1/../../../../pic32mx/lib/micromips\libpic32.a(vector79.o)
 .bss           0x0000000000000000        0x0 c:/program files/microchip/xc32/v4.40/bin/bin/../../lib/gcc/pic32mx/8.3.1/../../../../pic32mx/lib/micromips\libpic32.a(vector79.o)
 .reginfo       0x0000000000000000       0x18 c:/program files/microchip/xc32/v4.40/bin/bin/../../lib/gcc/pic32mx/8.3.1/../../../../pic32mx/lib/micromips\libpic32.a(vector79.o)
 .MIPS.abiflags
                0x0000000000000000       0x18 c:/program files/microchip/xc32/v4.40/bin/bin/../../lib/gcc/pic32mx/8.3.1/../../../../pic32mx/lib/micromips\libpic32.a(vector79.o)
 .xc_stack_usage.hdr
                0x0000000000000000        0xe c:/program files/microchip/xc32/v4.40/bin/bin/../../lib/gcc/pic32mx/8.3.1/../../../../pic32mx/lib/micromips\libpic32.a(vector79.o)
 .xc_stack_usage
                0x0000000000000000       0x22 c:/program files/microchip/xc32/v4.40/bin/bin/../../lib/gcc/pic32mx/8.3.1/../../../../pic32mx/lib/micromips\libpic32.a(vector79.o)
 .text          0x0000000000000000        0x0 c:/program files/microchip/xc32/v4.40/bin/bin/../../lib/gcc/pic32mx/8.3.1/../../../../pic32mx/lib/micromips\libpic32.a(vector80.o)
 .data          0x0000000000000000        0x0 c:/program files/microchip/xc32/v4.40/bin/bin/../../lib/gcc/pic32mx/8.3.1/../../../../pic32mx/lib/micromips\libpic32.a(vector80.o)
 .bss           0x0000000000000000        0x0 c:/program files/microchip/xc32/v4.40/bin/bin/../../lib/gcc/pic32mx/8.3.1/../../../../pic32mx/lib/micromips\libpic32.a(vector80.o)
 .reginfo       0x0000000000000000       0x18 c:/program files/microchip/xc32/v4.40/bin/bin/../../lib/gcc/pic32mx/8.3.1/../../../../pic32mx/lib/micromips\libpic32.a(vector80.o)
 .MIPS.abiflags
                0x0000000000000000       0x18 c:/program files/microchip/xc32/v4.40/bin/bin/../../lib/gcc/pic32mx/8.3.1/../../../../pic32mx/lib/micromips\libpic32.a(vector80.o)
 .xc_stack_usage.hdr
                0x0000000000000000        0xe c:/program files/microchip/xc32/v4.40/bin/bin/../../lib/gcc/pic32mx/8.3.1/../../../../pic32mx/lib/micromips\libpic32.a(vector80.o)
 .xc_stack_usage
                0x0000000000000000       0x22 c:/program files/microchip/xc32/v4.40/bin/bin/../../lib/gcc/pic32mx/8.3.1/../../../../pic32mx/lib/micromips\libpic32.a(vector80.o)
 .text          0x0000000000000000        0x0 c:/program files/microchip/xc32/v4.40/bin/bin/../../lib/gcc/pic32mx/8.3.1/../../../../pic32mx/lib/micromips\libpic32.a(vector81.o)
 .data          0x0000000000000000        0x0 c:/program files/microchip/xc32/v4.40/bin/bin/../../lib/gcc/pic32mx/8.3.1/../../../../pic32mx/lib/micromips\libpic32.a(vector81.o)
 .bss           0x0000000000000000        0x0 c:/program files/microchip/xc32/v4.40/bin/bin/../../lib/gcc/pic32mx/8.3.1/../../../../pic32mx/lib/micromips\libpic32.a(vector81.o)
 .reginfo       0x0000000000000000       0x18 c:/program files/microchip/xc32/v4.40/bin/bin/../../lib/gcc/pic32mx/8.3.1/../../../../pic32mx/lib/micromips\libpic32.a(vector81.o)
 .MIPS.abiflags
                0x0000000000000000       0x18 c:/program files/microchip/xc32/v4.40/bin/bin/../../lib/gcc/pic32mx/8.3.1/../../../../pic32mx/lib/micromips\libpic32.a(vector81.o)
 .xc_stack_usage.hdr
                0x0000000000000000        0xe c:/program files/microchip/xc32/v4.40/bin/bin/../../lib/gcc/pic32mx/8.3.1/../../../../pic32mx/lib/micromips\libpic32.a(vector81.o)
 .xc_stack_usage
                0x0000000000000000       0x22 c:/program files/microchip/xc32/v4.40/bin/bin/../../lib/gcc/pic32mx/8.3.1/../../../../pic32mx/lib/micromips\libpic32.a(vector81.o)
 .text          0x0000000000000000        0x0 c:/program files/microchip/xc32/v4.40/bin/bin/../../lib/gcc/pic32mx/8.3.1/../../../../pic32mx/lib/micromips\libpic32.a(vector82.o)
 .data          0x0000000000000000        0x0 c:/program files/microchip/xc32/v4.40/bin/bin/../../lib/gcc/pic32mx/8.3.1/../../../../pic32mx/lib/micromips\libpic32.a(vector82.o)
 .bss           0x0000000000000000        0x0 c:/program files/microchip/xc32/v4.40/bin/bin/../../lib/gcc/pic32mx/8.3.1/../../../../pic32mx/lib/micromips\libpic32.a(vector82.o)
 .reginfo       0x0000000000000000       0x18 c:/program files/microchip/xc32/v4.40/bin/bin/../../lib/gcc/pic32mx/8.3.1/../../../../pic32mx/lib/micromips\libpic32.a(vector82.o)
 .MIPS.abiflags
                0x0000000000000000       0x18 c:/program files/microchip/xc32/v4.40/bin/bin/../../lib/gcc/pic32mx/8.3.1/../../../../pic32mx/lib/micromips\libpic32.a(vector82.o)
 .xc_stack_usage.hdr
                0x0000000000000000        0xe c:/program files/microchip/xc32/v4.40/bin/bin/../../lib/gcc/pic32mx/8.3.1/../../../../pic32mx/lib/micromips\libpic32.a(vector82.o)
 .xc_stack_usage
                0x0000000000000000       0x22 c:/program files/microchip/xc32/v4.40/bin/bin/../../lib/gcc/pic32mx/8.3.1/../../../../pic32mx/lib/micromips\libpic32.a(vector82.o)
 .text          0x0000000000000000        0x0 c:/program files/microchip/xc32/v4.40/bin/bin/../../lib/gcc/pic32mx/8.3.1/../../../../pic32mx/lib/micromips\libpic32.a(vector83.o)
 .data          0x0000000000000000        0x0 c:/program files/microchip/xc32/v4.40/bin/bin/../../lib/gcc/pic32mx/8.3.1/../../../../pic32mx/lib/micromips\libpic32.a(vector83.o)
 .bss           0x0000000000000000        0x0 c:/program files/microchip/xc32/v4.40/bin/bin/../../lib/gcc/pic32mx/8.3.1/../../../../pic32mx/lib/micromips\libpic32.a(vector83.o)
 .reginfo       0x0000000000000000       0x18 c:/program files/microchip/xc32/v4.40/bin/bin/../../lib/gcc/pic32mx/8.3.1/../../../../pic32mx/lib/micromips\libpic32.a(vector83.o)
 .MIPS.abiflags
                0x0000000000000000       0x18 c:/program files/microchip/xc32/v4.40/bin/bin/../../lib/gcc/pic32mx/8.3.1/../../../../pic32mx/lib/micromips\libpic32.a(vector83.o)
 .xc_stack_usage.hdr
                0x0000000000000000        0xe c:/program files/microchip/xc32/v4.40/bin/bin/../../lib/gcc/pic32mx/8.3.1/../../../../pic32mx/lib/micromips\libpic32.a(vector83.o)
 .xc_stack_usage
                0x0000000000000000       0x22 c:/program files/microchip/xc32/v4.40/bin/bin/../../lib/gcc/pic32mx/8.3.1/../../../../pic32mx/lib/micromips\libpic32.a(vector83.o)
 .text          0x0000000000000000        0x0 c:/program files/microchip/xc32/v4.40/bin/bin/../../lib/gcc/pic32mx/8.3.1/../../../../pic32mx/lib/micromips\libpic32.a(vector84.o)
 .data          0x0000000000000000        0x0 c:/program files/microchip/xc32/v4.40/bin/bin/../../lib/gcc/pic32mx/8.3.1/../../../../pic32mx/lib/micromips\libpic32.a(vector84.o)
 .bss           0x0000000000000000        0x0 c:/program files/microchip/xc32/v4.40/bin/bin/../../lib/gcc/pic32mx/8.3.1/../../../../pic32mx/lib/micromips\libpic32.a(vector84.o)
 .reginfo       0x0000000000000000       0x18 c:/program files/microchip/xc32/v4.40/bin/bin/../../lib/gcc/pic32mx/8.3.1/../../../../pic32mx/lib/micromips\libpic32.a(vector84.o)
 .MIPS.abiflags
                0x0000000000000000       0x18 c:/program files/microchip/xc32/v4.40/bin/bin/../../lib/gcc/pic32mx/8.3.1/../../../../pic32mx/lib/micromips\libpic32.a(vector84.o)
 .xc_stack_usage.hdr
                0x0000000000000000        0xe c:/program files/microchip/xc32/v4.40/bin/bin/../../lib/gcc/pic32mx/8.3.1/../../../../pic32mx/lib/micromips\libpic32.a(vector84.o)
 .xc_stack_usage
                0x0000000000000000       0x22 c:/program files/microchip/xc32/v4.40/bin/bin/../../lib/gcc/pic32mx/8.3.1/../../../../pic32mx/lib/micromips\libpic32.a(vector84.o)
 .text          0x0000000000000000        0x0 c:/program files/microchip/xc32/v4.40/bin/bin/../../lib/gcc/pic32mx/8.3.1/../../../../pic32mx/lib/micromips\libpic32.a(vector85.o)
 .data          0x0000000000000000        0x0 c:/program files/microchip/xc32/v4.40/bin/bin/../../lib/gcc/pic32mx/8.3.1/../../../../pic32mx/lib/micromips\libpic32.a(vector85.o)
 .bss           0x0000000000000000        0x0 c:/program files/microchip/xc32/v4.40/bin/bin/../../lib/gcc/pic32mx/8.3.1/../../../../pic32mx/lib/micromips\libpic32.a(vector85.o)
 .reginfo       0x0000000000000000       0x18 c:/program files/microchip/xc32/v4.40/bin/bin/../../lib/gcc/pic32mx/8.3.1/../../../../pic32mx/lib/micromips\libpic32.a(vector85.o)
 .MIPS.abiflags
                0x0000000000000000       0x18 c:/program files/microchip/xc32/v4.40/bin/bin/../../lib/gcc/pic32mx/8.3.1/../../../../pic32mx/lib/micromips\libpic32.a(vector85.o)
 .xc_stack_usage.hdr
                0x0000000000000000        0xe c:/program files/microchip/xc32/v4.40/bin/bin/../../lib/gcc/pic32mx/8.3.1/../../../../pic32mx/lib/micromips\libpic32.a(vector85.o)
 .xc_stack_usage
                0x0000000000000000       0x22 c:/program files/microchip/xc32/v4.40/bin/bin/../../lib/gcc/pic32mx/8.3.1/../../../../pic32mx/lib/micromips\libpic32.a(vector85.o)
 .text          0x0000000000000000        0x0 c:/program files/microchip/xc32/v4.40/bin/bin/../../lib/gcc/pic32mx/8.3.1/../../../../pic32mx/lib/micromips\libpic32.a(vector86.o)
 .data          0x0000000000000000        0x0 c:/program files/microchip/xc32/v4.40/bin/bin/../../lib/gcc/pic32mx/8.3.1/../../../../pic32mx/lib/micromips\libpic32.a(vector86.o)
 .bss           0x0000000000000000        0x0 c:/program files/microchip/xc32/v4.40/bin/bin/../../lib/gcc/pic32mx/8.3.1/../../../../pic32mx/lib/micromips\libpic32.a(vector86.o)
 .reginfo       0x0000000000000000       0x18 c:/program files/microchip/xc32/v4.40/bin/bin/../../lib/gcc/pic32mx/8.3.1/../../../../pic32mx/lib/micromips\libpic32.a(vector86.o)
 .MIPS.abiflags
                0x0000000000000000       0x18 c:/program files/microchip/xc32/v4.40/bin/bin/../../lib/gcc/pic32mx/8.3.1/../../../../pic32mx/lib/micromips\libpic32.a(vector86.o)
 .xc_stack_usage.hdr
                0x0000000000000000        0xe c:/program files/microchip/xc32/v4.40/bin/bin/../../lib/gcc/pic32mx/8.3.1/../../../../pic32mx/lib/micromips\libpic32.a(vector86.o)
 .xc_stack_usage
                0x0000000000000000       0x22 c:/program files/microchip/xc32/v4.40/bin/bin/../../lib/gcc/pic32mx/8.3.1/../../../../pic32mx/lib/micromips\libpic32.a(vector86.o)
 .text          0x0000000000000000        0x0 c:/program files/microchip/xc32/v4.40/bin/bin/../../lib/gcc/pic32mx/8.3.1/../../../../pic32mx/lib/micromips\libpic32.a(vector87.o)
 .data          0x0000000000000000        0x0 c:/program files/microchip/xc32/v4.40/bin/bin/../../lib/gcc/pic32mx/8.3.1/../../../../pic32mx/lib/micromips\libpic32.a(vector87.o)
 .bss           0x0000000000000000        0x0 c:/program files/microchip/xc32/v4.40/bin/bin/../../lib/gcc/pic32mx/8.3.1/../../../../pic32mx/lib/micromips\libpic32.a(vector87.o)
 .reginfo       0x0000000000000000       0x18 c:/program files/microchip/xc32/v4.40/bin/bin/../../lib/gcc/pic32mx/8.3.1/../../../../pic32mx/lib/micromips\libpic32.a(vector87.o)
 .MIPS.abiflags
                0x0000000000000000       0x18 c:/program files/microchip/xc32/v4.40/bin/bin/../../lib/gcc/pic32mx/8.3.1/../../../../pic32mx/lib/micromips\libpic32.a(vector87.o)
 .xc_stack_usage.hdr
                0x0000000000000000        0xe c:/program files/microchip/xc32/v4.40/bin/bin/../../lib/gcc/pic32mx/8.3.1/../../../../pic32mx/lib/micromips\libpic32.a(vector87.o)
 .xc_stack_usage
                0x0000000000000000       0x22 c:/program files/microchip/xc32/v4.40/bin/bin/../../lib/gcc/pic32mx/8.3.1/../../../../pic32mx/lib/micromips\libpic32.a(vector87.o)
 .text          0x0000000000000000        0x0 c:/program files/microchip/xc32/v4.40/bin/bin/../../lib/gcc/pic32mx/8.3.1/../../../../pic32mx/lib/micromips\libpic32.a(vector88.o)
 .data          0x0000000000000000        0x0 c:/program files/microchip/xc32/v4.40/bin/bin/../../lib/gcc/pic32mx/8.3.1/../../../../pic32mx/lib/micromips\libpic32.a(vector88.o)
 .bss           0x0000000000000000        0x0 c:/program files/microchip/xc32/v4.40/bin/bin/../../lib/gcc/pic32mx/8.3.1/../../../../pic32mx/lib/micromips\libpic32.a(vector88.o)
 .reginfo       0x0000000000000000       0x18 c:/program files/microchip/xc32/v4.40/bin/bin/../../lib/gcc/pic32mx/8.3.1/../../../../pic32mx/lib/micromips\libpic32.a(vector88.o)
 .MIPS.abiflags
                0x0000000000000000       0x18 c:/program files/microchip/xc32/v4.40/bin/bin/../../lib/gcc/pic32mx/8.3.1/../../../../pic32mx/lib/micromips\libpic32.a(vector88.o)
 .xc_stack_usage.hdr
                0x0000000000000000        0xe c:/program files/microchip/xc32/v4.40/bin/bin/../../lib/gcc/pic32mx/8.3.1/../../../../pic32mx/lib/micromips\libpic32.a(vector88.o)
 .xc_stack_usage
                0x0000000000000000       0x22 c:/program files/microchip/xc32/v4.40/bin/bin/../../lib/gcc/pic32mx/8.3.1/../../../../pic32mx/lib/micromips\libpic32.a(vector88.o)
 .text          0x0000000000000000        0x0 c:/program files/microchip/xc32/v4.40/bin/bin/../../lib/gcc/pic32mx/8.3.1/../../../../pic32mx/lib/micromips\libpic32.a(vector89.o)
 .data          0x0000000000000000        0x0 c:/program files/microchip/xc32/v4.40/bin/bin/../../lib/gcc/pic32mx/8.3.1/../../../../pic32mx/lib/micromips\libpic32.a(vector89.o)
 .bss           0x0000000000000000        0x0 c:/program files/microchip/xc32/v4.40/bin/bin/../../lib/gcc/pic32mx/8.3.1/../../../../pic32mx/lib/micromips\libpic32.a(vector89.o)
 .reginfo       0x0000000000000000       0x18 c:/program files/microchip/xc32/v4.40/bin/bin/../../lib/gcc/pic32mx/8.3.1/../../../../pic32mx/lib/micromips\libpic32.a(vector89.o)
 .MIPS.abiflags
                0x0000000000000000       0x18 c:/program files/microchip/xc32/v4.40/bin/bin/../../lib/gcc/pic32mx/8.3.1/../../../../pic32mx/lib/micromips\libpic32.a(vector89.o)
 .xc_stack_usage.hdr
                0x0000000000000000        0xe c:/program files/microchip/xc32/v4.40/bin/bin/../../lib/gcc/pic32mx/8.3.1/../../../../pic32mx/lib/micromips\libpic32.a(vector89.o)
 .xc_stack_usage
                0x0000000000000000       0x22 c:/program files/microchip/xc32/v4.40/bin/bin/../../lib/gcc/pic32mx/8.3.1/../../../../pic32mx/lib/micromips\libpic32.a(vector89.o)
 .text          0x0000000000000000        0x0 c:/program files/microchip/xc32/v4.40/bin/bin/../../lib/gcc/pic32mx/8.3.1/../../../../pic32mx/lib/micromips\libpic32.a(vector90.o)
 .data          0x0000000000000000        0x0 c:/program files/microchip/xc32/v4.40/bin/bin/../../lib/gcc/pic32mx/8.3.1/../../../../pic32mx/lib/micromips\libpic32.a(vector90.o)
 .bss           0x0000000000000000        0x0 c:/program files/microchip/xc32/v4.40/bin/bin/../../lib/gcc/pic32mx/8.3.1/../../../../pic32mx/lib/micromips\libpic32.a(vector90.o)
 .reginfo       0x0000000000000000       0x18 c:/program files/microchip/xc32/v4.40/bin/bin/../../lib/gcc/pic32mx/8.3.1/../../../../pic32mx/lib/micromips\libpic32.a(vector90.o)
 .MIPS.abiflags
                0x0000000000000000       0x18 c:/program files/microchip/xc32/v4.40/bin/bin/../../lib/gcc/pic32mx/8.3.1/../../../../pic32mx/lib/micromips\libpic32.a(vector90.o)
 .xc_stack_usage.hdr
                0x0000000000000000        0xe c:/program files/microchip/xc32/v4.40/bin/bin/../../lib/gcc/pic32mx/8.3.1/../../../../pic32mx/lib/micromips\libpic32.a(vector90.o)
 .xc_stack_usage
                0x0000000000000000       0x22 c:/program files/microchip/xc32/v4.40/bin/bin/../../lib/gcc/pic32mx/8.3.1/../../../../pic32mx/lib/micromips\libpic32.a(vector90.o)
 .text          0x0000000000000000        0x0 c:/program files/microchip/xc32/v4.40/bin/bin/../../lib/gcc/pic32mx/8.3.1/../../../../pic32mx/lib/micromips\libpic32.a(vector91.o)
 .data          0x0000000000000000        0x0 c:/program files/microchip/xc32/v4.40/bin/bin/../../lib/gcc/pic32mx/8.3.1/../../../../pic32mx/lib/micromips\libpic32.a(vector91.o)
 .bss           0x0000000000000000        0x0 c:/program files/microchip/xc32/v4.40/bin/bin/../../lib/gcc/pic32mx/8.3.1/../../../../pic32mx/lib/micromips\libpic32.a(vector91.o)
 .reginfo       0x0000000000000000       0x18 c:/program files/microchip/xc32/v4.40/bin/bin/../../lib/gcc/pic32mx/8.3.1/../../../../pic32mx/lib/micromips\libpic32.a(vector91.o)
 .MIPS.abiflags
                0x0000000000000000       0x18 c:/program files/microchip/xc32/v4.40/bin/bin/../../lib/gcc/pic32mx/8.3.1/../../../../pic32mx/lib/micromips\libpic32.a(vector91.o)
 .xc_stack_usage.hdr
                0x0000000000000000        0xe c:/program files/microchip/xc32/v4.40/bin/bin/../../lib/gcc/pic32mx/8.3.1/../../../../pic32mx/lib/micromips\libpic32.a(vector91.o)
 .xc_stack_usage
                0x0000000000000000       0x22 c:/program files/microchip/xc32/v4.40/bin/bin/../../lib/gcc/pic32mx/8.3.1/../../../../pic32mx/lib/micromips\libpic32.a(vector91.o)
 .text          0x0000000000000000        0x0 c:/program files/microchip/xc32/v4.40/bin/bin/../../lib/gcc/pic32mx/8.3.1/../../../../pic32mx/lib/micromips\libpic32.a(vector92.o)
 .data          0x0000000000000000        0x0 c:/program files/microchip/xc32/v4.40/bin/bin/../../lib/gcc/pic32mx/8.3.1/../../../../pic32mx/lib/micromips\libpic32.a(vector92.o)
 .bss           0x0000000000000000        0x0 c:/program files/microchip/xc32/v4.40/bin/bin/../../lib/gcc/pic32mx/8.3.1/../../../../pic32mx/lib/micromips\libpic32.a(vector92.o)
 .reginfo       0x0000000000000000       0x18 c:/program files/microchip/xc32/v4.40/bin/bin/../../lib/gcc/pic32mx/8.3.1/../../../../pic32mx/lib/micromips\libpic32.a(vector92.o)
 .MIPS.abiflags
                0x0000000000000000       0x18 c:/program files/microchip/xc32/v4.40/bin/bin/../../lib/gcc/pic32mx/8.3.1/../../../../pic32mx/lib/micromips\libpic32.a(vector92.o)
 .xc_stack_usage.hdr
                0x0000000000000000        0xe c:/program files/microchip/xc32/v4.40/bin/bin/../../lib/gcc/pic32mx/8.3.1/../../../../pic32mx/lib/micromips\libpic32.a(vector92.o)
 .xc_stack_usage
                0x0000000000000000       0x22 c:/program files/microchip/xc32/v4.40/bin/bin/../../lib/gcc/pic32mx/8.3.1/../../../../pic32mx/lib/micromips\libpic32.a(vector92.o)
 .text          0x0000000000000000        0x0 c:/program files/microchip/xc32/v4.40/bin/bin/../../lib/gcc/pic32mx/8.3.1/../../../../pic32mx/lib/micromips\libpic32.a(vector93.o)
 .data          0x0000000000000000        0x0 c:/program files/microchip/xc32/v4.40/bin/bin/../../lib/gcc/pic32mx/8.3.1/../../../../pic32mx/lib/micromips\libpic32.a(vector93.o)
 .bss           0x0000000000000000        0x0 c:/program files/microchip/xc32/v4.40/bin/bin/../../lib/gcc/pic32mx/8.3.1/../../../../pic32mx/lib/micromips\libpic32.a(vector93.o)
 .reginfo       0x0000000000000000       0x18 c:/program files/microchip/xc32/v4.40/bin/bin/../../lib/gcc/pic32mx/8.3.1/../../../../pic32mx/lib/micromips\libpic32.a(vector93.o)
 .MIPS.abiflags
                0x0000000000000000       0x18 c:/program files/microchip/xc32/v4.40/bin/bin/../../lib/gcc/pic32mx/8.3.1/../../../../pic32mx/lib/micromips\libpic32.a(vector93.o)
 .xc_stack_usage.hdr
                0x0000000000000000        0xe c:/program files/microchip/xc32/v4.40/bin/bin/../../lib/gcc/pic32mx/8.3.1/../../../../pic32mx/lib/micromips\libpic32.a(vector93.o)
 .xc_stack_usage
                0x0000000000000000       0x22 c:/program files/microchip/xc32/v4.40/bin/bin/../../lib/gcc/pic32mx/8.3.1/../../../../pic32mx/lib/micromips\libpic32.a(vector93.o)
 .text          0x0000000000000000        0x0 c:/program files/microchip/xc32/v4.40/bin/bin/../../lib/gcc/pic32mx/8.3.1/../../../../pic32mx/lib/micromips\libpic32.a(vector94.o)
 .data          0x0000000000000000        0x0 c:/program files/microchip/xc32/v4.40/bin/bin/../../lib/gcc/pic32mx/8.3.1/../../../../pic32mx/lib/micromips\libpic32.a(vector94.o)
 .bss           0x0000000000000000        0x0 c:/program files/microchip/xc32/v4.40/bin/bin/../../lib/gcc/pic32mx/8.3.1/../../../../pic32mx/lib/micromips\libpic32.a(vector94.o)
 .reginfo       0x0000000000000000       0x18 c:/program files/microchip/xc32/v4.40/bin/bin/../../lib/gcc/pic32mx/8.3.1/../../../../pic32mx/lib/micromips\libpic32.a(vector94.o)
 .MIPS.abiflags
                0x0000000000000000       0x18 c:/program files/microchip/xc32/v4.40/bin/bin/../../lib/gcc/pic32mx/8.3.1/../../../../pic32mx/lib/micromips\libpic32.a(vector94.o)
 .xc_stack_usage.hdr
                0x0000000000000000        0xe c:/program files/microchip/xc32/v4.40/bin/bin/../../lib/gcc/pic32mx/8.3.1/../../../../pic32mx/lib/micromips\libpic32.a(vector94.o)
 .xc_stack_usage
                0x0000000000000000       0x22 c:/program files/microchip/xc32/v4.40/bin/bin/../../lib/gcc/pic32mx/8.3.1/../../../../pic32mx/lib/micromips\libpic32.a(vector94.o)
 .text          0x0000000000000000        0x0 c:/program files/microchip/xc32/v4.40/bin/bin/../../lib/gcc/pic32mx/8.3.1/../../../../pic32mx/lib/micromips\libpic32.a(vector95.o)
 .data          0x0000000000000000        0x0 c:/program files/microchip/xc32/v4.40/bin/bin/../../lib/gcc/pic32mx/8.3.1/../../../../pic32mx/lib/micromips\libpic32.a(vector95.o)
 .bss           0x0000000000000000        0x0 c:/program files/microchip/xc32/v4.40/bin/bin/../../lib/gcc/pic32mx/8.3.1/../../../../pic32mx/lib/micromips\libpic32.a(vector95.o)
 .reginfo       0x0000000000000000       0x18 c:/program files/microchip/xc32/v4.40/bin/bin/../../lib/gcc/pic32mx/8.3.1/../../../../pic32mx/lib/micromips\libpic32.a(vector95.o)
 .MIPS.abiflags
                0x0000000000000000       0x18 c:/program files/microchip/xc32/v4.40/bin/bin/../../lib/gcc/pic32mx/8.3.1/../../../../pic32mx/lib/micromips\libpic32.a(vector95.o)
 .xc_stack_usage.hdr
                0x0000000000000000        0xe c:/program files/microchip/xc32/v4.40/bin/bin/../../lib/gcc/pic32mx/8.3.1/../../../../pic32mx/lib/micromips\libpic32.a(vector95.o)
 .xc_stack_usage
                0x0000000000000000       0x22 c:/program files/microchip/xc32/v4.40/bin/bin/../../lib/gcc/pic32mx/8.3.1/../../../../pic32mx/lib/micromips\libpic32.a(vector95.o)
 .text          0x0000000000000000        0x0 c:/program files/microchip/xc32/v4.40/bin/bin/../../lib/gcc/pic32mx/8.3.1/../../../../pic32mx/lib/micromips\libpic32.a(vector96.o)
 .data          0x0000000000000000        0x0 c:/program files/microchip/xc32/v4.40/bin/bin/../../lib/gcc/pic32mx/8.3.1/../../../../pic32mx/lib/micromips\libpic32.a(vector96.o)
 .bss           0x0000000000000000        0x0 c:/program files/microchip/xc32/v4.40/bin/bin/../../lib/gcc/pic32mx/8.3.1/../../../../pic32mx/lib/micromips\libpic32.a(vector96.o)
 .reginfo       0x0000000000000000       0x18 c:/program files/microchip/xc32/v4.40/bin/bin/../../lib/gcc/pic32mx/8.3.1/../../../../pic32mx/lib/micromips\libpic32.a(vector96.o)
 .MIPS.abiflags
                0x0000000000000000       0x18 c:/program files/microchip/xc32/v4.40/bin/bin/../../lib/gcc/pic32mx/8.3.1/../../../../pic32mx/lib/micromips\libpic32.a(vector96.o)
 .xc_stack_usage.hdr
                0x0000000000000000        0xe c:/program files/microchip/xc32/v4.40/bin/bin/../../lib/gcc/pic32mx/8.3.1/../../../../pic32mx/lib/micromips\libpic32.a(vector96.o)
 .xc_stack_usage
                0x0000000000000000       0x22 c:/program files/microchip/xc32/v4.40/bin/bin/../../lib/gcc/pic32mx/8.3.1/../../../../pic32mx/lib/micromips\libpic32.a(vector96.o)
 .text          0x0000000000000000        0x0 c:/program files/microchip/xc32/v4.40/bin/bin/../../lib/gcc/pic32mx/8.3.1/../../../../pic32mx/lib/micromips\libpic32.a(vector97.o)
 .data          0x0000000000000000        0x0 c:/program files/microchip/xc32/v4.40/bin/bin/../../lib/gcc/pic32mx/8.3.1/../../../../pic32mx/lib/micromips\libpic32.a(vector97.o)
 .bss           0x0000000000000000        0x0 c:/program files/microchip/xc32/v4.40/bin/bin/../../lib/gcc/pic32mx/8.3.1/../../../../pic32mx/lib/micromips\libpic32.a(vector97.o)
 .reginfo       0x0000000000000000       0x18 c:/program files/microchip/xc32/v4.40/bin/bin/../../lib/gcc/pic32mx/8.3.1/../../../../pic32mx/lib/micromips\libpic32.a(vector97.o)
 .MIPS.abiflags
                0x0000000000000000       0x18 c:/program files/microchip/xc32/v4.40/bin/bin/../../lib/gcc/pic32mx/8.3.1/../../../../pic32mx/lib/micromips\libpic32.a(vector97.o)
 .xc_stack_usage.hdr
                0x0000000000000000        0xe c:/program files/microchip/xc32/v4.40/bin/bin/../../lib/gcc/pic32mx/8.3.1/../../../../pic32mx/lib/micromips\libpic32.a(vector97.o)
 .xc_stack_usage
                0x0000000000000000       0x22 c:/program files/microchip/xc32/v4.40/bin/bin/../../lib/gcc/pic32mx/8.3.1/../../../../pic32mx/lib/micromips\libpic32.a(vector97.o)
 .text          0x0000000000000000        0x0 c:/program files/microchip/xc32/v4.40/bin/bin/../../lib/gcc/pic32mx/8.3.1/../../../../pic32mx/lib/micromips\libpic32.a(vector98.o)
 .data          0x0000000000000000        0x0 c:/program files/microchip/xc32/v4.40/bin/bin/../../lib/gcc/pic32mx/8.3.1/../../../../pic32mx/lib/micromips\libpic32.a(vector98.o)
 .bss           0x0000000000000000        0x0 c:/program files/microchip/xc32/v4.40/bin/bin/../../lib/gcc/pic32mx/8.3.1/../../../../pic32mx/lib/micromips\libpic32.a(vector98.o)
 .reginfo       0x0000000000000000       0x18 c:/program files/microchip/xc32/v4.40/bin/bin/../../lib/gcc/pic32mx/8.3.1/../../../../pic32mx/lib/micromips\libpic32.a(vector98.o)
 .MIPS.abiflags
                0x0000000000000000       0x18 c:/program files/microchip/xc32/v4.40/bin/bin/../../lib/gcc/pic32mx/8.3.1/../../../../pic32mx/lib/micromips\libpic32.a(vector98.o)
 .xc_stack_usage.hdr
                0x0000000000000000        0xe c:/program files/microchip/xc32/v4.40/bin/bin/../../lib/gcc/pic32mx/8.3.1/../../../../pic32mx/lib/micromips\libpic32.a(vector98.o)
 .xc_stack_usage
                0x0000000000000000       0x22 c:/program files/microchip/xc32/v4.40/bin/bin/../../lib/gcc/pic32mx/8.3.1/../../../../pic32mx/lib/micromips\libpic32.a(vector98.o)
 .text          0x0000000000000000        0x0 c:/program files/microchip/xc32/v4.40/bin/bin/../../lib/gcc/pic32mx/8.3.1/../../../../pic32mx/lib/micromips\libpic32.a(vector99.o)
 .data          0x0000000000000000        0x0 c:/program files/microchip/xc32/v4.40/bin/bin/../../lib/gcc/pic32mx/8.3.1/../../../../pic32mx/lib/micromips\libpic32.a(vector99.o)
 .bss           0x0000000000000000        0x0 c:/program files/microchip/xc32/v4.40/bin/bin/../../lib/gcc/pic32mx/8.3.1/../../../../pic32mx/lib/micromips\libpic32.a(vector99.o)
 .reginfo       0x0000000000000000       0x18 c:/program files/microchip/xc32/v4.40/bin/bin/../../lib/gcc/pic32mx/8.3.1/../../../../pic32mx/lib/micromips\libpic32.a(vector99.o)
 .MIPS.abiflags
                0x0000000000000000       0x18 c:/program files/microchip/xc32/v4.40/bin/bin/../../lib/gcc/pic32mx/8.3.1/../../../../pic32mx/lib/micromips\libpic32.a(vector99.o)
 .xc_stack_usage.hdr
                0x0000000000000000        0xe c:/program files/microchip/xc32/v4.40/bin/bin/../../lib/gcc/pic32mx/8.3.1/../../../../pic32mx/lib/micromips\libpic32.a(vector99.o)
 .xc_stack_usage
                0x0000000000000000       0x22 c:/program files/microchip/xc32/v4.40/bin/bin/../../lib/gcc/pic32mx/8.3.1/../../../../pic32mx/lib/micromips\libpic32.a(vector99.o)
 .text          0x0000000000000000        0x0 c:/program files/microchip/xc32/v4.40/bin/bin/../../lib/gcc/pic32mx/8.3.1/../../../../pic32mx/lib/micromips\libpic32.a(vector100.o)
 .data          0x0000000000000000        0x0 c:/program files/microchip/xc32/v4.40/bin/bin/../../lib/gcc/pic32mx/8.3.1/../../../../pic32mx/lib/micromips\libpic32.a(vector100.o)
 .bss           0x0000000000000000        0x0 c:/program files/microchip/xc32/v4.40/bin/bin/../../lib/gcc/pic32mx/8.3.1/../../../../pic32mx/lib/micromips\libpic32.a(vector100.o)
 .reginfo       0x0000000000000000       0x18 c:/program files/microchip/xc32/v4.40/bin/bin/../../lib/gcc/pic32mx/8.3.1/../../../../pic32mx/lib/micromips\libpic32.a(vector100.o)
 .MIPS.abiflags
                0x0000000000000000       0x18 c:/program files/microchip/xc32/v4.40/bin/bin/../../lib/gcc/pic32mx/8.3.1/../../../../pic32mx/lib/micromips\libpic32.a(vector100.o)
 .xc_stack_usage.hdr
                0x0000000000000000        0xe c:/program files/microchip/xc32/v4.40/bin/bin/../../lib/gcc/pic32mx/8.3.1/../../../../pic32mx/lib/micromips\libpic32.a(vector100.o)
 .xc_stack_usage
                0x0000000000000000       0x23 c:/program files/microchip/xc32/v4.40/bin/bin/../../lib/gcc/pic32mx/8.3.1/../../../../pic32mx/lib/micromips\libpic32.a(vector100.o)
 .text          0x0000000000000000        0x0 c:/program files/microchip/xc32/v4.40/bin/bin/../../lib/gcc/pic32mx/8.3.1/../../../../pic32mx/lib/micromips\libpic32.a(vector101.o)
 .data          0x0000000000000000        0x0 c:/program files/microchip/xc32/v4.40/bin/bin/../../lib/gcc/pic32mx/8.3.1/../../../../pic32mx/lib/micromips\libpic32.a(vector101.o)
 .bss           0x0000000000000000        0x0 c:/program files/microchip/xc32/v4.40/bin/bin/../../lib/gcc/pic32mx/8.3.1/../../../../pic32mx/lib/micromips\libpic32.a(vector101.o)
 .reginfo       0x0000000000000000       0x18 c:/program files/microchip/xc32/v4.40/bin/bin/../../lib/gcc/pic32mx/8.3.1/../../../../pic32mx/lib/micromips\libpic32.a(vector101.o)
 .MIPS.abiflags
                0x0000000000000000       0x18 c:/program files/microchip/xc32/v4.40/bin/bin/../../lib/gcc/pic32mx/8.3.1/../../../../pic32mx/lib/micromips\libpic32.a(vector101.o)
 .xc_stack_usage.hdr
                0x0000000000000000        0xe c:/program files/microchip/xc32/v4.40/bin/bin/../../lib/gcc/pic32mx/8.3.1/../../../../pic32mx/lib/micromips\libpic32.a(vector101.o)
 .xc_stack_usage
                0x0000000000000000       0x23 c:/program files/microchip/xc32/v4.40/bin/bin/../../lib/gcc/pic32mx/8.3.1/../../../../pic32mx/lib/micromips\libpic32.a(vector101.o)
 .text          0x0000000000000000        0x0 c:/program files/microchip/xc32/v4.40/bin/bin/../../lib/gcc/pic32mx/8.3.1/../../../../pic32mx/lib/micromips\libpic32.a(defaultinterrupt.o)
 .data          0x0000000000000000        0x0 c:/program files/microchip/xc32/v4.40/bin/bin/../../lib/gcc/pic32mx/8.3.1/../../../../pic32mx/lib/micromips\libpic32.a(defaultinterrupt.o)
 .bss           0x0000000000000000        0x0 c:/program files/microchip/xc32/v4.40/bin/bin/../../lib/gcc/pic32mx/8.3.1/../../../../pic32mx/lib/micromips\libpic32.a(defaultinterrupt.o)
 .reginfo       0x0000000000000000       0x18 c:/program files/microchip/xc32/v4.40/bin/bin/../../lib/gcc/pic32mx/8.3.1/../../../../pic32mx/lib/micromips\libpic32.a(defaultinterrupt.o)
 .MIPS.abiflags
                0x0000000000000000       0x18 c:/program files/microchip/xc32/v4.40/bin/bin/../../lib/gcc/pic32mx/8.3.1/../../../../pic32mx/lib/micromips\libpic32.a(defaultinterrupt.o)
 .xc_stack_usage
                0x0000000000000000       0x1f c:/program files/microchip/xc32/v4.40/bin/bin/../../lib/gcc/pic32mx/8.3.1/../../../../pic32mx/lib/micromips\libpic32.a(defaultinterrupt.o)
 .xc_stack_usage.hdr
                0x0000000000000000        0xe c:/program files/microchip/xc32/v4.40/bin/bin/../../lib/gcc/pic32mx/8.3.1/../../../../pic32mx/lib/micromips\libpic32.a(defaultinterrupt.o)
 .text          0x0000000000000000        0x0 c:/program files/microchip/xc32/v4.40/bin/bin/../../lib/gcc/pic32mx/8.3.1/../../../../pic32mx/lib/micromips\libc-musl.a(rand.o)
 .data          0x0000000000000000        0x0 c:/program files/microchip/xc32/v4.40/bin/bin/../../lib/gcc/pic32mx/8.3.1/../../../../pic32mx/lib/micromips\libc-musl.a(rand.o)
 .bss           0x0000000000000000        0x4 c:/program files/microchip/xc32/v4.40/bin/bin/../../lib/gcc/pic32mx/8.3.1/../../../../pic32mx/lib/micromips\libc-musl.a(rand.o)
 .reginfo       0x0000000000000000       0x18 c:/program files/microchip/xc32/v4.40/bin/bin/../../lib/gcc/pic32mx/8.3.1/../../../../pic32mx/lib/micromips\libc-musl.a(rand.o)
 .MIPS.abiflags
                0x0000000000000000       0x18 c:/program files/microchip/xc32/v4.40/bin/bin/../../lib/gcc/pic32mx/8.3.1/../../../../pic32mx/lib/micromips\libc-musl.a(rand.o)
 .xc_stack_usage
                0x0000000000000000       0x25 c:/program files/microchip/xc32/v4.40/bin/bin/../../lib/gcc/pic32mx/8.3.1/../../../../pic32mx/lib/micromips\libc-musl.a(rand.o)
 .text.srand    0x0000000000000000        0xc c:/program files/microchip/xc32/v4.40/bin/bin/../../lib/gcc/pic32mx/8.3.1/../../../../pic32mx/lib/micromips\libc-musl.a(rand.o)
 .text.rand     0x0000000000000000       0x20 c:/program files/microchip/xc32/v4.40/bin/bin/../../lib/gcc/pic32mx/8.3.1/../../../../pic32mx/lib/micromips\libc-musl.a(rand.o)
 .xc_stack_usage.hdr
                0x0000000000000000        0xe c:/program files/microchip/xc32/v4.40/bin/bin/../../lib/gcc/pic32mx/8.3.1/../../../../pic32mx/lib/micromips\libc-musl.a(rand.o)
 .note.GNU-stack
                0x0000000000000000        0x0 c:/program files/microchip/xc32/v4.40/bin/bin/../../lib/gcc/pic32mx/8.3.1/../../../../pic32mx/lib/micromips\libc-musl.a(rand.o)
 .text          0x0000000000000000        0x0 c:/program files/microchip/xc32/v4.40/bin/bin/../../lib/gcc/pic32mx/8.3.1/../../../../pic32mx/lib/micromips\libc-musl.a(__sio_printf_cdnpsxX.o)
 .data          0x0000000000000000        0x0 c:/program files/microchip/xc32/v4.40/bin/bin/../../lib/gcc/pic32mx/8.3.1/../../../../pic32mx/lib/micromips\libc-musl.a(__sio_printf_cdnpsxX.o)
 .bss           0x0000000000000000        0x0 c:/program files/microchip/xc32/v4.40/bin/bin/../../lib/gcc/pic32mx/8.3.1/../../../../pic32mx/lib/micromips\libc-musl.a(__sio_printf_cdnpsxX.o)
 .reginfo       0x0000000000000000       0x18 c:/program files/microchip/xc32/v4.40/bin/bin/../../lib/gcc/pic32mx/8.3.1/../../../../pic32mx/lib/micromips\libc-musl.a(__sio_printf_cdnpsxX.o)
 .MIPS.abiflags
                0x0000000000000000       0x18 c:/program files/microchip/xc32/v4.40/bin/bin/../../lib/gcc/pic32mx/8.3.1/../../../../pic32mx/lib/micromips\libc-musl.a(__sio_printf_cdnpsxX.o)
 .xc_stack_usage
                0x0000000000000000       0x3d c:/program files/microchip/xc32/v4.40/bin/bin/../../lib/gcc/pic32mx/8.3.1/../../../../pic32mx/lib/micromips\libc-musl.a(__sio_printf_cdnpsxX.o)
 .text.__sio_printf_cdnpsxX
                0x0000000000000000       0x34 c:/program files/microchip/xc32/v4.40/bin/bin/../../lib/gcc/pic32mx/8.3.1/../../../../pic32mx/lib/micromips\libc-musl.a(__sio_printf_cdnpsxX.o)
 .xc_stack_usage.hdr
                0x0000000000000000        0xe c:/program files/microchip/xc32/v4.40/bin/bin/../../lib/gcc/pic32mx/8.3.1/../../../../pic32mx/lib/micromips\libc-musl.a(__sio_printf_cdnpsxX.o)
 .note.GNU-stack
                0x0000000000000000        0x0 c:/program files/microchip/xc32/v4.40/bin/bin/../../lib/gcc/pic32mx/8.3.1/../../../../pic32mx/lib/micromips\libc-musl.a(__sio_printf_cdnpsxX.o)
 .text          0x0000000000000000        0x0 c:/program files/microchip/xc32/v4.40/bin/bin/../../lib/gcc/pic32mx/8.3.1/../../../../pic32mx/lib/micromips\libc-musl.a(__fmt_d.o)
 .data          0x0000000000000000        0x0 c:/program files/microchip/xc32/v4.40/bin/bin/../../lib/gcc/pic32mx/8.3.1/../../../../pic32mx/lib/micromips\libc-musl.a(__fmt_d.o)
 .bss           0x0000000000000000        0x0 c:/program files/microchip/xc32/v4.40/bin/bin/../../lib/gcc/pic32mx/8.3.1/../../../../pic32mx/lib/micromips\libc-musl.a(__fmt_d.o)
 .reginfo       0x0000000000000000       0x18 c:/program files/microchip/xc32/v4.40/bin/bin/../../lib/gcc/pic32mx/8.3.1/../../../../pic32mx/lib/micromips\libc-musl.a(__fmt_d.o)
 .MIPS.abiflags
                0x0000000000000000       0x18 c:/program files/microchip/xc32/v4.40/bin/bin/../../lib/gcc/pic32mx/8.3.1/../../../../pic32mx/lib/micromips\libc-musl.a(__fmt_d.o)
 .xc_stack_usage
                0x0000000000000000       0x15 c:/program files/microchip/xc32/v4.40/bin/bin/../../lib/gcc/pic32mx/8.3.1/../../../../pic32mx/lib/micromips\libc-musl.a(__fmt_d.o)
 .xc_stack_usage.hdr
                0x0000000000000000        0xe c:/program files/microchip/xc32/v4.40/bin/bin/../../lib/gcc/pic32mx/8.3.1/../../../../pic32mx/lib/micromips\libc-musl.a(__fmt_d.o)
 .note.GNU-stack
                0x0000000000000000        0x0 c:/program files/microchip/xc32/v4.40/bin/bin/../../lib/gcc/pic32mx/8.3.1/../../../../pic32mx/lib/micromips\libc-musl.a(__fmt_d.o)
 .text          0x0000000000000000        0x0 c:/program files/microchip/xc32/v4.40/bin/bin/../../lib/gcc/pic32mx/8.3.1/../../../../pic32mx/lib/micromips\libc-musl.a(__fmt_s.o)
 .data          0x0000000000000000        0x0 c:/program files/microchip/xc32/v4.40/bin/bin/../../lib/gcc/pic32mx/8.3.1/../../../../pic32mx/lib/micromips\libc-musl.a(__fmt_s.o)
 .bss           0x0000000000000000        0x0 c:/program files/microchip/xc32/v4.40/bin/bin/../../lib/gcc/pic32mx/8.3.1/../../../../pic32mx/lib/micromips\libc-musl.a(__fmt_s.o)
 .reginfo       0x0000000000000000       0x18 c:/program files/microchip/xc32/v4.40/bin/bin/../../lib/gcc/pic32mx/8.3.1/../../../../pic32mx/lib/micromips\libc-musl.a(__fmt_s.o)
 .MIPS.abiflags
                0x0000000000000000       0x18 c:/program files/microchip/xc32/v4.40/bin/bin/../../lib/gcc/pic32mx/8.3.1/../../../../pic32mx/lib/micromips\libc-musl.a(__fmt_s.o)
 .xc_stack_usage
                0x0000000000000000       0x15 c:/program files/microchip/xc32/v4.40/bin/bin/../../lib/gcc/pic32mx/8.3.1/../../../../pic32mx/lib/micromips\libc-musl.a(__fmt_s.o)
 .xc_stack_usage.hdr
                0x0000000000000000        0xe c:/program files/microchip/xc32/v4.40/bin/bin/../../lib/gcc/pic32mx/8.3.1/../../../../pic32mx/lib/micromips\libc-musl.a(__fmt_s.o)
 .note.GNU-stack
                0x0000000000000000        0x0 c:/program files/microchip/xc32/v4.40/bin/bin/../../lib/gcc/pic32mx/8.3.1/../../../../pic32mx/lib/micromips\libc-musl.a(__fmt_s.o)
 .text          0x0000000000000000        0x0 c:/program files/microchip/xc32/v4.40/bin/bin/../../lib/gcc/pic32mx/8.3.1/../../../../pic32mx/lib/micromips\libc-musl.a(__fmt_x.o)
 .data          0x0000000000000000        0x0 c:/program files/microchip/xc32/v4.40/bin/bin/../../lib/gcc/pic32mx/8.3.1/../../../../pic32mx/lib/micromips\libc-musl.a(__fmt_x.o)
 .bss           0x0000000000000000        0x0 c:/program files/microchip/xc32/v4.40/bin/bin/../../lib/gcc/pic32mx/8.3.1/../../../../pic32mx/lib/micromips\libc-musl.a(__fmt_x.o)
 .reginfo       0x0000000000000000       0x18 c:/program files/microchip/xc32/v4.40/bin/bin/../../lib/gcc/pic32mx/8.3.1/../../../../pic32mx/lib/micromips\libc-musl.a(__fmt_x.o)
 .MIPS.abiflags
                0x0000000000000000       0x18 c:/program files/microchip/xc32/v4.40/bin/bin/../../lib/gcc/pic32mx/8.3.1/../../../../pic32mx/lib/micromips\libc-musl.a(__fmt_x.o)
 .xc_stack_usage
                0x0000000000000000       0x15 c:/program files/microchip/xc32/v4.40/bin/bin/../../lib/gcc/pic32mx/8.3.1/../../../../pic32mx/lib/micromips\libc-musl.a(__fmt_x.o)
 .xc_stack_usage.hdr
                0x0000000000000000        0xe c:/program files/microchip/xc32/v4.40/bin/bin/../../lib/gcc/pic32mx/8.3.1/../../../../pic32mx/lib/micromips\libc-musl.a(__fmt_x.o)
 .note.GNU-stack
                0x0000000000000000        0x0 c:/program files/microchip/xc32/v4.40/bin/bin/../../lib/gcc/pic32mx/8.3.1/../../../../pic32mx/lib/micromips\libc-musl.a(__fmt_x.o)
 .text          0x0000000000000000        0x0 c:/program files/microchip/xc32/v4.40/bin/bin/../../lib/gcc/pic32mx/8.3.1/../../../../pic32mx/lib/micromips\libc-musl.a(__pop_int.o)
 .data          0x0000000000000000        0x0 c:/program files/microchip/xc32/v4.40/bin/bin/../../lib/gcc/pic32mx/8.3.1/../../../../pic32mx/lib/micromips\libc-musl.a(__pop_int.o)
 .bss           0x0000000000000000        0x0 c:/program files/microchip/xc32/v4.40/bin/bin/../../lib/gcc/pic32mx/8.3.1/../../../../pic32mx/lib/micromips\libc-musl.a(__pop_int.o)
 .reginfo       0x0000000000000000       0x18 c:/program files/microchip/xc32/v4.40/bin/bin/../../lib/gcc/pic32mx/8.3.1/../../../../pic32mx/lib/micromips\libc-musl.a(__pop_int.o)
 .MIPS.abiflags
                0x0000000000000000       0x18 c:/program files/microchip/xc32/v4.40/bin/bin/../../lib/gcc/pic32mx/8.3.1/../../../../pic32mx/lib/micromips\libc-musl.a(__pop_int.o)
 .xc_stack_usage
                0x0000000000000000       0x17 c:/program files/microchip/xc32/v4.40/bin/bin/../../lib/gcc/pic32mx/8.3.1/../../../../pic32mx/lib/micromips\libc-musl.a(__pop_int.o)
 .xc_stack_usage.hdr
                0x0000000000000000        0xe c:/program files/microchip/xc32/v4.40/bin/bin/../../lib/gcc/pic32mx/8.3.1/../../../../pic32mx/lib/micromips\libc-musl.a(__pop_int.o)
 .note.GNU-stack
                0x0000000000000000        0x0 c:/program files/microchip/xc32/v4.40/bin/bin/../../lib/gcc/pic32mx/8.3.1/../../../../pic32mx/lib/micromips\libc-musl.a(__pop_int.o)
 .text          0x0000000000000000        0x0 c:/program files/microchip/xc32/v4.40/bin/bin/../../lib/gcc/pic32mx/8.3.1/../../../../pic32mx/lib/micromips\libc-musl.a(__pop_ptr.o)
 .data          0x0000000000000000        0x0 c:/program files/microchip/xc32/v4.40/bin/bin/../../lib/gcc/pic32mx/8.3.1/../../../../pic32mx/lib/micromips\libc-musl.a(__pop_ptr.o)
 .bss           0x0000000000000000        0x0 c:/program files/microchip/xc32/v4.40/bin/bin/../../lib/gcc/pic32mx/8.3.1/../../../../pic32mx/lib/micromips\libc-musl.a(__pop_ptr.o)
 .reginfo       0x0000000000000000       0x18 c:/program files/microchip/xc32/v4.40/bin/bin/../../lib/gcc/pic32mx/8.3.1/../../../../pic32mx/lib/micromips\libc-musl.a(__pop_ptr.o)
 .MIPS.abiflags
                0x0000000000000000       0x18 c:/program files/microchip/xc32/v4.40/bin/bin/../../lib/gcc/pic32mx/8.3.1/../../../../pic32mx/lib/micromips\libc-musl.a(__pop_ptr.o)
 .xc_stack_usage
                0x0000000000000000       0x17 c:/program files/microchip/xc32/v4.40/bin/bin/../../lib/gcc/pic32mx/8.3.1/../../../../pic32mx/lib/micromips\libc-musl.a(__pop_ptr.o)
 .xc_stack_usage.hdr
                0x0000000000000000        0xe c:/program files/microchip/xc32/v4.40/bin/bin/../../lib/gcc/pic32mx/8.3.1/../../../../pic32mx/lib/micromips\libc-musl.a(__pop_ptr.o)
 .note.GNU-stack
                0x0000000000000000        0x0 c:/program files/microchip/xc32/v4.40/bin/bin/../../lib/gcc/pic32mx/8.3.1/../../../../pic32mx/lib/micromips\libc-musl.a(__pop_ptr.o)
 .text          0x0000000000000000        0x0 c:/program files/microchip/xc32/v4.40/bin/bin/../../lib/gcc/pic32mx/8.3.1/../../../../pic32mx/lib/micromips\libc-musl.a(__printf_core.o)
 .data          0x0000000000000000        0x0 c:/program files/microchip/xc32/v4.40/bin/bin/../../lib/gcc/pic32mx/8.3.1/../../../../pic32mx/lib/micromips\libc-musl.a(__printf_core.o)
 .bss           0x0000000000000000        0x0 c:/program files/microchip/xc32/v4.40/bin/bin/../../lib/gcc/pic32mx/8.3.1/../../../../pic32mx/lib/micromips\libc-musl.a(__printf_core.o)
 .reginfo       0x0000000000000000       0x18 c:/program files/microchip/xc32/v4.40/bin/bin/../../lib/gcc/pic32mx/8.3.1/../../../../pic32mx/lib/micromips\libc-musl.a(__printf_core.o)
 .MIPS.abiflags
                0x0000000000000000       0x18 c:/program files/microchip/xc32/v4.40/bin/bin/../../lib/gcc/pic32mx/8.3.1/../../../../pic32mx/lib/micromips\libc-musl.a(__printf_core.o)
 .xc_stack_usage
                0x0000000000000000       0xaf c:/program files/microchip/xc32/v4.40/bin/bin/../../lib/gcc/pic32mx/8.3.1/../../../../pic32mx/lib/micromips\libc-musl.a(__printf_core.o)
 .text.__string_out
                0x0000000000000000       0x30 c:/program files/microchip/xc32/v4.40/bin/bin/../../lib/gcc/pic32mx/8.3.1/../../../../pic32mx/lib/micromips\libc-musl.a(__printf_core.o)
 .text.__dummy_fmts
                0x0000000000000000        0x4 c:/program files/microchip/xc32/v4.40/bin/bin/../../lib/gcc/pic32mx/8.3.1/../../../../pic32mx/lib/micromips\libc-musl.a(__printf_core.o)
 .xc_stack_usage.hdr
                0x0000000000000000        0xe c:/program files/microchip/xc32/v4.40/bin/bin/../../lib/gcc/pic32mx/8.3.1/../../../../pic32mx/lib/micromips\libc-musl.a(__printf_core.o)
 .note.GNU-stack
                0x0000000000000000        0x0 c:/program files/microchip/xc32/v4.40/bin/bin/../../lib/gcc/pic32mx/8.3.1/../../../../pic32mx/lib/micromips\libc-musl.a(__printf_core.o)
 .text          0x0000000000000000        0x0 c:/program files/microchip/xc32/v4.40/bin/bin/../../lib/gcc/pic32mx/8.3.1/../../../../pic32mx/lib/micromips\libc-musl.a(stdout.o)
 .bss           0x0000000000000000        0x0 c:/program files/microchip/xc32/v4.40/bin/bin/../../lib/gcc/pic32mx/8.3.1/../../../../pic32mx/lib/micromips\libc-musl.a(stdout.o)
 .reginfo       0x0000000000000000       0x18 c:/program files/microchip/xc32/v4.40/bin/bin/../../lib/gcc/pic32mx/8.3.1/../../../../pic32mx/lib/micromips\libc-musl.a(stdout.o)
 .MIPS.abiflags
                0x0000000000000000       0x18 c:/program files/microchip/xc32/v4.40/bin/bin/../../lib/gcc/pic32mx/8.3.1/../../../../pic32mx/lib/micromips\libc-musl.a(stdout.o)
 .xc_stack_usage
                0x0000000000000000       0x51 c:/program files/microchip/xc32/v4.40/bin/bin/../../lib/gcc/pic32mx/8.3.1/../../../../pic32mx/lib/micromips\libc-musl.a(stdout.o)
 .text.__init_stdout
                0x0000000000000000       0x1c c:/program files/microchip/xc32/v4.40/bin/bin/../../lib/gcc/pic32mx/8.3.1/../../../../pic32mx/lib/micromips\libc-musl.a(stdout.o)
 .xc_stack_usage.hdr
                0x0000000000000000        0xe c:/program files/microchip/xc32/v4.40/bin/bin/../../lib/gcc/pic32mx/8.3.1/../../../../pic32mx/lib/micromips\libc-musl.a(stdout.o)
 .note.GNU-stack
                0x0000000000000000        0x0 c:/program files/microchip/xc32/v4.40/bin/bin/../../lib/gcc/pic32mx/8.3.1/../../../../pic32mx/lib/micromips\libc-musl.a(stdout.o)
 .text          0x0000000000000000        0x0 c:/program files/microchip/xc32/v4.40/bin/bin/../../lib/gcc/pic32mx/8.3.1/../../../../pic32mx/lib/micromips\libc-musl.a(putchar.o)
 .data          0x0000000000000000        0x0 c:/program files/microchip/xc32/v4.40/bin/bin/../../lib/gcc/pic32mx/8.3.1/../../../../pic32mx/lib/micromips\libc-musl.a(putchar.o)
 .bss           0x0000000000000000        0x0 c:/program files/microchip/xc32/v4.40/bin/bin/../../lib/gcc/pic32mx/8.3.1/../../../../pic32mx/lib/micromips\libc-musl.a(putchar.o)
 .reginfo       0x0000000000000000       0x18 c:/program files/microchip/xc32/v4.40/bin/bin/../../lib/gcc/pic32mx/8.3.1/../../../../pic32mx/lib/micromips\libc-musl.a(putchar.o)
 .MIPS.abiflags
                0x0000000000000000       0x18 c:/program files/microchip/xc32/v4.40/bin/bin/../../lib/gcc/pic32mx/8.3.1/../../../../pic32mx/lib/micromips\libc-musl.a(putchar.o)
 .xc_stack_usage
                0x0000000000000000       0x15 c:/program files/microchip/xc32/v4.40/bin/bin/../../lib/gcc/pic32mx/8.3.1/../../../../pic32mx/lib/micromips\libc-musl.a(putchar.o)
 .text.putchar  0x0000000000000000       0x1c c:/program files/microchip/xc32/v4.40/bin/bin/../../lib/gcc/pic32mx/8.3.1/../../../../pic32mx/lib/micromips\libc-musl.a(putchar.o)
 .xc_stack_usage.hdr
                0x0000000000000000        0xe c:/program files/microchip/xc32/v4.40/bin/bin/../../lib/gcc/pic32mx/8.3.1/../../../../pic32mx/lib/micromips\libc-musl.a(putchar.o)
 .note.GNU-stack
                0x0000000000000000        0x0 c:/program files/microchip/xc32/v4.40/bin/bin/../../lib/gcc/pic32mx/8.3.1/../../../../pic32mx/lib/micromips\libc-musl.a(putchar.o)
 .text          0x0000000000000000        0x0 c:/program files/microchip/xc32/v4.40/bin/bin/../../lib/gcc/pic32mx/8.3.1/../../../../pic32mx/lib/micromips\libc-musl.a(atoi.o)
 .data          0x0000000000000000        0x0 c:/program files/microchip/xc32/v4.40/bin/bin/../../lib/gcc/pic32mx/8.3.1/../../../../pic32mx/lib/micromips\libc-musl.a(atoi.o)
 .bss           0x0000000000000000        0x0 c:/program files/microchip/xc32/v4.40/bin/bin/../../lib/gcc/pic32mx/8.3.1/../../../../pic32mx/lib/micromips\libc-musl.a(atoi.o)
 .reginfo       0x0000000000000000       0x18 c:/program files/microchip/xc32/v4.40/bin/bin/../../lib/gcc/pic32mx/8.3.1/../../../../pic32mx/lib/micromips\libc-musl.a(atoi.o)
 .MIPS.abiflags
                0x0000000000000000       0x18 c:/program files/microchip/xc32/v4.40/bin/bin/../../lib/gcc/pic32mx/8.3.1/../../../../pic32mx/lib/micromips\libc-musl.a(atoi.o)
 .xc_stack_usage
                0x0000000000000000       0x12 c:/program files/microchip/xc32/v4.40/bin/bin/../../lib/gcc/pic32mx/8.3.1/../../../../pic32mx/lib/micromips\libc-musl.a(atoi.o)
 .xc_stack_usage.hdr
                0x0000000000000000        0xe c:/program files/microchip/xc32/v4.40/bin/bin/../../lib/gcc/pic32mx/8.3.1/../../../../pic32mx/lib/micromips\libc-musl.a(atoi.o)
 .note.GNU-stack
                0x0000000000000000        0x0 c:/program files/microchip/xc32/v4.40/bin/bin/../../lib/gcc/pic32mx/8.3.1/../../../../pic32mx/lib/micromips\libc-musl.a(atoi.o)
 .text          0x0000000000000000        0x0 c:/program files/microchip/xc32/v4.40/bin/bin/../../lib/gcc/pic32mx/8.3.1/../../../../pic32mx/lib/micromips\libc-musl.a(memcpy.o)
 .data          0x0000000000000000        0x0 c:/program files/microchip/xc32/v4.40/bin/bin/../../lib/gcc/pic32mx/8.3.1/../../../../pic32mx/lib/micromips\libc-musl.a(memcpy.o)
 .bss           0x0000000000000000        0x0 c:/program files/microchip/xc32/v4.40/bin/bin/../../lib/gcc/pic32mx/8.3.1/../../../../pic32mx/lib/micromips\libc-musl.a(memcpy.o)
 .reginfo       0x0000000000000000       0x18 c:/program files/microchip/xc32/v4.40/bin/bin/../../lib/gcc/pic32mx/8.3.1/../../../../pic32mx/lib/micromips\libc-musl.a(memcpy.o)
 .MIPS.abiflags
                0x0000000000000000       0x18 c:/program files/microchip/xc32/v4.40/bin/bin/../../lib/gcc/pic32mx/8.3.1/../../../../pic32mx/lib/micromips\libc-musl.a(memcpy.o)
 .xc_stack_usage
                0x0000000000000000       0x14 c:/program files/microchip/xc32/v4.40/bin/bin/../../lib/gcc/pic32mx/8.3.1/../../../../pic32mx/lib/micromips\libc-musl.a(memcpy.o)
 .xc_stack_usage.hdr
                0x0000000000000000        0xe c:/program files/microchip/xc32/v4.40/bin/bin/../../lib/gcc/pic32mx/8.3.1/../../../../pic32mx/lib/micromips\libc-musl.a(memcpy.o)
 .note.GNU-stack
                0x0000000000000000        0x0 c:/program files/microchip/xc32/v4.40/bin/bin/../../lib/gcc/pic32mx/8.3.1/../../../../pic32mx/lib/micromips\libc-musl.a(memcpy.o)
 .text          0x0000000000000000        0x0 c:/program files/microchip/xc32/v4.40/bin/bin/../../lib/gcc/pic32mx/8.3.1/../../../../pic32mx/lib/micromips\libc-musl.a(tolower.o)
 .data          0x0000000000000000        0x0 c:/program files/microchip/xc32/v4.40/bin/bin/../../lib/gcc/pic32mx/8.3.1/../../../../pic32mx/lib/micromips\libc-musl.a(tolower.o)
 .bss           0x0000000000000000        0x0 c:/program files/microchip/xc32/v4.40/bin/bin/../../lib/gcc/pic32mx/8.3.1/../../../../pic32mx/lib/micromips\libc-musl.a(tolower.o)
 .reginfo       0x0000000000000000       0x18 c:/program files/microchip/xc32/v4.40/bin/bin/../../lib/gcc/pic32mx/8.3.1/../../../../pic32mx/lib/micromips\libc-musl.a(tolower.o)
 .MIPS.abiflags
                0x0000000000000000       0x18 c:/program files/microchip/xc32/v4.40/bin/bin/../../lib/gcc/pic32mx/8.3.1/../../../../pic32mx/lib/micromips\libc-musl.a(tolower.o)
 .xc_stack_usage
                0x0000000000000000       0x2e c:/program files/microchip/xc32/v4.40/bin/bin/../../lib/gcc/pic32mx/8.3.1/../../../../pic32mx/lib/micromips\libc-musl.a(tolower.o)
 .text.__tolower_l
                0x0000000000000000       0x14 c:/program files/microchip/xc32/v4.40/bin/bin/../../lib/gcc/pic32mx/8.3.1/../../../../pic32mx/lib/micromips\libc-musl.a(tolower.o)
 .xc_stack_usage.hdr
                0x0000000000000000        0xe c:/program files/microchip/xc32/v4.40/bin/bin/../../lib/gcc/pic32mx/8.3.1/../../../../pic32mx/lib/micromips\libc-musl.a(tolower.o)
 .note.GNU-stack
                0x0000000000000000        0x0 c:/program files/microchip/xc32/v4.40/bin/bin/../../lib/gcc/pic32mx/8.3.1/../../../../pic32mx/lib/micromips\libc-musl.a(tolower.o)
 .text          0x0000000000000000        0x0 c:/program files/microchip/xc32/v4.40/bin/bin/../../lib/gcc/pic32mx/8.3.1/../../../../pic32mx/lib/micromips\libc-musl.a(toupper.o)
 .data          0x0000000000000000        0x0 c:/program files/microchip/xc32/v4.40/bin/bin/../../lib/gcc/pic32mx/8.3.1/../../../../pic32mx/lib/micromips\libc-musl.a(toupper.o)
 .bss           0x0000000000000000        0x0 c:/program files/microchip/xc32/v4.40/bin/bin/../../lib/gcc/pic32mx/8.3.1/../../../../pic32mx/lib/micromips\libc-musl.a(toupper.o)
 .reginfo       0x0000000000000000       0x18 c:/program files/microchip/xc32/v4.40/bin/bin/../../lib/gcc/pic32mx/8.3.1/../../../../pic32mx/lib/micromips\libc-musl.a(toupper.o)
 .MIPS.abiflags
                0x0000000000000000       0x18 c:/program files/microchip/xc32/v4.40/bin/bin/../../lib/gcc/pic32mx/8.3.1/../../../../pic32mx/lib/micromips\libc-musl.a(toupper.o)
 .xc_stack_usage
                0x0000000000000000       0x2e c:/program files/microchip/xc32/v4.40/bin/bin/../../lib/gcc/pic32mx/8.3.1/../../../../pic32mx/lib/micromips\libc-musl.a(toupper.o)
 .text.__toupper_l
                0x0000000000000000       0x14 c:/program files/microchip/xc32/v4.40/bin/bin/../../lib/gcc/pic32mx/8.3.1/../../../../pic32mx/lib/micromips\libc-musl.a(toupper.o)
 .xc_stack_usage.hdr
                0x0000000000000000        0xe c:/program files/microchip/xc32/v4.40/bin/bin/../../lib/gcc/pic32mx/8.3.1/../../../../pic32mx/lib/micromips\libc-musl.a(toupper.o)
 .note.GNU-stack
                0x0000000000000000        0x0 c:/program files/microchip/xc32/v4.40/bin/bin/../../lib/gcc/pic32mx/8.3.1/../../../../pic32mx/lib/micromips\libc-musl.a(toupper.o)
 .text          0x0000000000000000        0x0 c:/program files/microchip/xc32/v4.40/bin/bin/../../lib/gcc/pic32mx/8.3.1/../../../../pic32mx/lib/micromips\libc-musl.a(__int_vfprintf.o)
 .data          0x0000000000000000        0x0 c:/program files/microchip/xc32/v4.40/bin/bin/../../lib/gcc/pic32mx/8.3.1/../../../../pic32mx/lib/micromips\libc-musl.a(__int_vfprintf.o)
 .bss           0x0000000000000000        0x0 c:/program files/microchip/xc32/v4.40/bin/bin/../../lib/gcc/pic32mx/8.3.1/../../../../pic32mx/lib/micromips\libc-musl.a(__int_vfprintf.o)
 .reginfo       0x0000000000000000       0x18 c:/program files/microchip/xc32/v4.40/bin/bin/../../lib/gcc/pic32mx/8.3.1/../../../../pic32mx/lib/micromips\libc-musl.a(__int_vfprintf.o)
 .MIPS.abiflags
                0x0000000000000000       0x18 c:/program files/microchip/xc32/v4.40/bin/bin/../../lib/gcc/pic32mx/8.3.1/../../../../pic32mx/lib/micromips\libc-musl.a(__int_vfprintf.o)
 .xc_stack_usage
                0x0000000000000000       0x18 c:/program files/microchip/xc32/v4.40/bin/bin/../../lib/gcc/pic32mx/8.3.1/../../../../pic32mx/lib/micromips\libc-musl.a(__int_vfprintf.o)
 .xc_stack_usage.hdr
                0x0000000000000000        0xe c:/program files/microchip/xc32/v4.40/bin/bin/../../lib/gcc/pic32mx/8.3.1/../../../../pic32mx/lib/micromips\libc-musl.a(__int_vfprintf.o)
 .note.GNU-stack
                0x0000000000000000        0x0 c:/program files/microchip/xc32/v4.40/bin/bin/../../lib/gcc/pic32mx/8.3.1/../../../../pic32mx/lib/micromips\libc-musl.a(__int_vfprintf.o)
 .text          0x0000000000000000        0x0 c:/program files/microchip/xc32/v4.40/bin/bin/../../lib/gcc/pic32mx/8.3.1/../../../../pic32mx/lib/micromips\libc-musl.a(__cvt_u.o)
 .data          0x0000000000000000        0x0 c:/program files/microchip/xc32/v4.40/bin/bin/../../lib/gcc/pic32mx/8.3.1/../../../../pic32mx/lib/micromips\libc-musl.a(__cvt_u.o)
 .bss           0x0000000000000000        0x0 c:/program files/microchip/xc32/v4.40/bin/bin/../../lib/gcc/pic32mx/8.3.1/../../../../pic32mx/lib/micromips\libc-musl.a(__cvt_u.o)
 .reginfo       0x0000000000000000       0x18 c:/program files/microchip/xc32/v4.40/bin/bin/../../lib/gcc/pic32mx/8.3.1/../../../../pic32mx/lib/micromips\libc-musl.a(__cvt_u.o)
 .MIPS.abiflags
                0x0000000000000000       0x18 c:/program files/microchip/xc32/v4.40/bin/bin/../../lib/gcc/pic32mx/8.3.1/../../../../pic32mx/lib/micromips\libc-musl.a(__cvt_u.o)
 .xc_stack_usage
                0x0000000000000000       0x15 c:/program files/microchip/xc32/v4.40/bin/bin/../../lib/gcc/pic32mx/8.3.1/../../../../pic32mx/lib/micromips\libc-musl.a(__cvt_u.o)
 .xc_stack_usage.hdr
                0x0000000000000000        0xe c:/program files/microchip/xc32/v4.40/bin/bin/../../lib/gcc/pic32mx/8.3.1/../../../../pic32mx/lib/micromips\libc-musl.a(__cvt_u.o)
 .note.GNU-stack
                0x0000000000000000        0x0 c:/program files/microchip/xc32/v4.40/bin/bin/../../lib/gcc/pic32mx/8.3.1/../../../../pic32mx/lib/micromips\libc-musl.a(__cvt_u.o)
 .text          0x0000000000000000        0x0 c:/program files/microchip/xc32/v4.40/bin/bin/../../lib/gcc/pic32mx/8.3.1/../../../../pic32mx/lib/micromips\libc-musl.a(__io_init_needed.o)
 .data          0x0000000000000000        0x0 c:/program files/microchip/xc32/v4.40/bin/bin/../../lib/gcc/pic32mx/8.3.1/../../../../pic32mx/lib/micromips\libc-musl.a(__io_init_needed.o)
 .bss           0x0000000000000000        0x0 c:/program files/microchip/xc32/v4.40/bin/bin/../../lib/gcc/pic32mx/8.3.1/../../../../pic32mx/lib/micromips\libc-musl.a(__io_init_needed.o)
 .reginfo       0x0000000000000000       0x18 c:/program files/microchip/xc32/v4.40/bin/bin/../../lib/gcc/pic32mx/8.3.1/../../../../pic32mx/lib/micromips\libc-musl.a(__io_init_needed.o)
 .MIPS.abiflags
                0x0000000000000000       0x18 c:/program files/microchip/xc32/v4.40/bin/bin/../../lib/gcc/pic32mx/8.3.1/../../../../pic32mx/lib/micromips\libc-musl.a(__io_init_needed.o)
 .xc_stack_usage
                0x0000000000000000       0x40 c:/program files/microchip/xc32/v4.40/bin/bin/../../lib/gcc/pic32mx/8.3.1/../../../../pic32mx/lib/micromips\libc-musl.a(__io_init_needed.o)
 .xc_stack_usage.hdr
                0x0000000000000000        0xe c:/program files/microchip/xc32/v4.40/bin/bin/../../lib/gcc/pic32mx/8.3.1/../../../../pic32mx/lib/micromips\libc-musl.a(__io_init_needed.o)
 .note.GNU-stack
                0x0000000000000000        0x0 c:/program files/microchip/xc32/v4.40/bin/bin/../../lib/gcc/pic32mx/8.3.1/../../../../pic32mx/lib/micromips\libc-musl.a(__io_init_needed.o)
 .text          0x0000000000000000        0x0 c:/program files/microchip/xc32/v4.40/bin/bin/../../lib/gcc/pic32mx/8.3.1/../../../../pic32mx/lib/micromips\libc-musl.a(__out.o)
 .data          0x0000000000000000        0x0 c:/program files/microchip/xc32/v4.40/bin/bin/../../lib/gcc/pic32mx/8.3.1/../../../../pic32mx/lib/micromips\libc-musl.a(__out.o)
 .bss           0x0000000000000000        0x0 c:/program files/microchip/xc32/v4.40/bin/bin/../../lib/gcc/pic32mx/8.3.1/../../../../pic32mx/lib/micromips\libc-musl.a(__out.o)
 .reginfo       0x0000000000000000       0x18 c:/program files/microchip/xc32/v4.40/bin/bin/../../lib/gcc/pic32mx/8.3.1/../../../../pic32mx/lib/micromips\libc-musl.a(__out.o)
 .MIPS.abiflags
                0x0000000000000000       0x18 c:/program files/microchip/xc32/v4.40/bin/bin/../../lib/gcc/pic32mx/8.3.1/../../../../pic32mx/lib/micromips\libc-musl.a(__out.o)
 .xc_stack_usage
                0x0000000000000000       0x2d c:/program files/microchip/xc32/v4.40/bin/bin/../../lib/gcc/pic32mx/8.3.1/../../../../pic32mx/lib/micromips\libc-musl.a(__out.o)
 .xc_stack_usage.hdr
                0x0000000000000000        0xe c:/program files/microchip/xc32/v4.40/bin/bin/../../lib/gcc/pic32mx/8.3.1/../../../../pic32mx/lib/micromips\libc-musl.a(__out.o)
 .note.GNU-stack
                0x0000000000000000        0x0 c:/program files/microchip/xc32/v4.40/bin/bin/../../lib/gcc/pic32mx/8.3.1/../../../../pic32mx/lib/micromips\libc-musl.a(__out.o)
 .text          0x0000000000000000        0x0 c:/program files/microchip/xc32/v4.40/bin/bin/../../lib/gcc/pic32mx/8.3.1/../../../../pic32mx/lib/micromips\libc-musl.a(__pop_float.o)
 .data          0x0000000000000000        0x0 c:/program files/microchip/xc32/v4.40/bin/bin/../../lib/gcc/pic32mx/8.3.1/../../../../pic32mx/lib/micromips\libc-musl.a(__pop_float.o)
 .bss           0x0000000000000000        0x0 c:/program files/microchip/xc32/v4.40/bin/bin/../../lib/gcc/pic32mx/8.3.1/../../../../pic32mx/lib/micromips\libc-musl.a(__pop_float.o)
 .reginfo       0x0000000000000000       0x18 c:/program files/microchip/xc32/v4.40/bin/bin/../../lib/gcc/pic32mx/8.3.1/../../../../pic32mx/lib/micromips\libc-musl.a(__pop_float.o)
 .MIPS.abiflags
                0x0000000000000000       0x18 c:/program files/microchip/xc32/v4.40/bin/bin/../../lib/gcc/pic32mx/8.3.1/../../../../pic32mx/lib/micromips\libc-musl.a(__pop_float.o)
 .xc_stack_usage
                0x0000000000000000       0x19 c:/program files/microchip/xc32/v4.40/bin/bin/../../lib/gcc/pic32mx/8.3.1/../../../../pic32mx/lib/micromips\libc-musl.a(__pop_float.o)
 .xc_stack_usage.hdr
                0x0000000000000000        0xe c:/program files/microchip/xc32/v4.40/bin/bin/../../lib/gcc/pic32mx/8.3.1/../../../../pic32mx/lib/micromips\libc-musl.a(__pop_float.o)
 .note.GNU-stack
                0x0000000000000000        0x0 c:/program files/microchip/xc32/v4.40/bin/bin/../../lib/gcc/pic32mx/8.3.1/../../../../pic32mx/lib/micromips\libc-musl.a(__pop_float.o)
 .text          0x0000000000000000        0x0 c:/program files/microchip/xc32/v4.40/bin/bin/../../lib/gcc/pic32mx/8.3.1/../../../../pic32mx/lib/micromips\libc-musl.a(__stdio_close.o)
 .data          0x0000000000000000        0x0 c:/program files/microchip/xc32/v4.40/bin/bin/../../lib/gcc/pic32mx/8.3.1/../../../../pic32mx/lib/micromips\libc-musl.a(__stdio_close.o)
 .bss           0x0000000000000000        0x0 c:/program files/microchip/xc32/v4.40/bin/bin/../../lib/gcc/pic32mx/8.3.1/../../../../pic32mx/lib/micromips\libc-musl.a(__stdio_close.o)
 .reginfo       0x0000000000000000       0x18 c:/program files/microchip/xc32/v4.40/bin/bin/../../lib/gcc/pic32mx/8.3.1/../../../../pic32mx/lib/micromips\libc-musl.a(__stdio_close.o)
 .MIPS.abiflags
                0x0000000000000000       0x18 c:/program files/microchip/xc32/v4.40/bin/bin/../../lib/gcc/pic32mx/8.3.1/../../../../pic32mx/lib/micromips\libc-musl.a(__stdio_close.o)
 .xc_stack_usage
                0x0000000000000000       0x39 c:/program files/microchip/xc32/v4.40/bin/bin/../../lib/gcc/pic32mx/8.3.1/../../../../pic32mx/lib/micromips\libc-musl.a(__stdio_close.o)
 .text.__stdio_close
                0x0000000000000000       0x50 c:/program files/microchip/xc32/v4.40/bin/bin/../../lib/gcc/pic32mx/8.3.1/../../../../pic32mx/lib/micromips\libc-musl.a(__stdio_close.o)
 .xc_stack_usage.hdr
                0x0000000000000000        0xe c:/program files/microchip/xc32/v4.40/bin/bin/../../lib/gcc/pic32mx/8.3.1/../../../../pic32mx/lib/micromips\libc-musl.a(__stdio_close.o)
 .note.GNU-stack
                0x0000000000000000        0x0 c:/program files/microchip/xc32/v4.40/bin/bin/../../lib/gcc/pic32mx/8.3.1/../../../../pic32mx/lib/micromips\libc-musl.a(__stdio_close.o)
 .text          0x0000000000000000        0x0 c:/program files/microchip/xc32/v4.40/bin/bin/../../lib/gcc/pic32mx/8.3.1/../../../../pic32mx/lib/micromips\libc-musl.a(putc.o)
 .data          0x0000000000000000        0x0 c:/program files/microchip/xc32/v4.40/bin/bin/../../lib/gcc/pic32mx/8.3.1/../../../../pic32mx/lib/micromips\libc-musl.a(putc.o)
 .bss           0x0000000000000000        0x0 c:/program files/microchip/xc32/v4.40/bin/bin/../../lib/gcc/pic32mx/8.3.1/../../../../pic32mx/lib/micromips\libc-musl.a(putc.o)
 .reginfo       0x0000000000000000       0x18 c:/program files/microchip/xc32/v4.40/bin/bin/../../lib/gcc/pic32mx/8.3.1/../../../../pic32mx/lib/micromips\libc-musl.a(putc.o)
 .MIPS.abiflags
                0x0000000000000000       0x18 c:/program files/microchip/xc32/v4.40/bin/bin/../../lib/gcc/pic32mx/8.3.1/../../../../pic32mx/lib/micromips\libc-musl.a(putc.o)
 .xc_stack_usage
                0x0000000000000000       0x4f c:/program files/microchip/xc32/v4.40/bin/bin/../../lib/gcc/pic32mx/8.3.1/../../../../pic32mx/lib/micromips\libc-musl.a(putc.o)
 .text.__putc_unbuffered
                0x0000000000000000       0x3c c:/program files/microchip/xc32/v4.40/bin/bin/../../lib/gcc/pic32mx/8.3.1/../../../../pic32mx/lib/micromips\libc-musl.a(putc.o)
 .text.putc     0x0000000000000000       0x14 c:/program files/microchip/xc32/v4.40/bin/bin/../../lib/gcc/pic32mx/8.3.1/../../../../pic32mx/lib/micromips\libc-musl.a(putc.o)
 .xc_stack_usage.hdr
                0x0000000000000000        0xe c:/program files/microchip/xc32/v4.40/bin/bin/../../lib/gcc/pic32mx/8.3.1/../../../../pic32mx/lib/micromips\libc-musl.a(putc.o)
 .note.GNU-stack
                0x0000000000000000        0x0 c:/program files/microchip/xc32/v4.40/bin/bin/../../lib/gcc/pic32mx/8.3.1/../../../../pic32mx/lib/micromips\libc-musl.a(putc.o)
 .text          0x0000000000000000        0x0 c:/program files/microchip/xc32/v4.40/bin/bin/../../lib/gcc/pic32mx/8.3.1/../../../../pic32mx/lib/micromips\libc-musl.a(__init_stdio.o)
 .data          0x0000000000000000        0x0 c:/program files/microchip/xc32/v4.40/bin/bin/../../lib/gcc/pic32mx/8.3.1/../../../../pic32mx/lib/micromips\libc-musl.a(__init_stdio.o)
 .bss           0x0000000000000000        0x0 c:/program files/microchip/xc32/v4.40/bin/bin/../../lib/gcc/pic32mx/8.3.1/../../../../pic32mx/lib/micromips\libc-musl.a(__init_stdio.o)
 .reginfo       0x0000000000000000       0x18 c:/program files/microchip/xc32/v4.40/bin/bin/../../lib/gcc/pic32mx/8.3.1/../../../../pic32mx/lib/micromips\libc-musl.a(__init_stdio.o)
 .MIPS.abiflags
                0x0000000000000000       0x18 c:/program files/microchip/xc32/v4.40/bin/bin/../../lib/gcc/pic32mx/8.3.1/../../../../pic32mx/lib/micromips\libc-musl.a(__init_stdio.o)
 .xc_stack_usage
                0x0000000000000000       0x2f c:/program files/microchip/xc32/v4.40/bin/bin/../../lib/gcc/pic32mx/8.3.1/../../../../pic32mx/lib/micromips\libc-musl.a(__init_stdio.o)
 .text.__dummy  0x0000000000000000        0x4 c:/program files/microchip/xc32/v4.40/bin/bin/../../lib/gcc/pic32mx/8.3.1/../../../../pic32mx/lib/micromips\libc-musl.a(__init_stdio.o)
 .text.__init_stdio
                0x0000000000000000       0x24 c:/program files/microchip/xc32/v4.40/bin/bin/../../lib/gcc/pic32mx/8.3.1/../../../../pic32mx/lib/micromips\libc-musl.a(__init_stdio.o)
 .xc_stack_usage.hdr
                0x0000000000000000        0xe c:/program files/microchip/xc32/v4.40/bin/bin/../../lib/gcc/pic32mx/8.3.1/../../../../pic32mx/lib/micromips\libc-musl.a(__init_stdio.o)
 .note.GNU-stack
                0x0000000000000000        0x0 c:/program files/microchip/xc32/v4.40/bin/bin/../../lib/gcc/pic32mx/8.3.1/../../../../pic32mx/lib/micromips\libc-musl.a(__init_stdio.o)
 .text          0x0000000000000000        0x0 c:/program files/microchip/xc32/v4.40/bin/bin/../../lib/gcc/pic32mx/8.3.1/../../../../pic32mx/lib/micromips\libc-musl.a(__io_file_needed.o)
 .data          0x0000000000000000        0x0 c:/program files/microchip/xc32/v4.40/bin/bin/../../lib/gcc/pic32mx/8.3.1/../../../../pic32mx/lib/micromips\libc-musl.a(__io_file_needed.o)
 .bss           0x0000000000000000        0x0 c:/program files/microchip/xc32/v4.40/bin/bin/../../lib/gcc/pic32mx/8.3.1/../../../../pic32mx/lib/micromips\libc-musl.a(__io_file_needed.o)
 .reginfo       0x0000000000000000       0x18 c:/program files/microchip/xc32/v4.40/bin/bin/../../lib/gcc/pic32mx/8.3.1/../../../../pic32mx/lib/micromips\libc-musl.a(__io_file_needed.o)
 .MIPS.abiflags
                0x0000000000000000       0x18 c:/program files/microchip/xc32/v4.40/bin/bin/../../lib/gcc/pic32mx/8.3.1/../../../../pic32mx/lib/micromips\libc-musl.a(__io_file_needed.o)
 .xc_stack_usage
                0x0000000000000000       0x1e c:/program files/microchip/xc32/v4.40/bin/bin/../../lib/gcc/pic32mx/8.3.1/../../../../pic32mx/lib/micromips\libc-musl.a(__io_file_needed.o)
 .xc_stack_usage.hdr
                0x0000000000000000        0xe c:/program files/microchip/xc32/v4.40/bin/bin/../../lib/gcc/pic32mx/8.3.1/../../../../pic32mx/lib/micromips\libc-musl.a(__io_file_needed.o)
 .note.GNU-stack
                0x0000000000000000        0x0 c:/program files/microchip/xc32/v4.40/bin/bin/../../lib/gcc/pic32mx/8.3.1/../../../../pic32mx/lib/micromips\libc-musl.a(__io_file_needed.o)
 .data          0x0000000000000000        0x0 c:/program files/microchip/xc32/v4.40/bin/bin/../../lib/gcc/pic32mx/8.3.1/micromips\libgcc.a(_udivdi3.o)
 .bss           0x0000000000000000        0x0 c:/program files/microchip/xc32/v4.40/bin/bin/../../lib/gcc/pic32mx/8.3.1/micromips\libgcc.a(_udivdi3.o)
 .reginfo       0x0000000000000000       0x18 c:/program files/microchip/xc32/v4.40/bin/bin/../../lib/gcc/pic32mx/8.3.1/micromips\libgcc.a(_udivdi3.o)
 .MIPS.abiflags
                0x0000000000000000       0x18 c:/program files/microchip/xc32/v4.40/bin/bin/../../lib/gcc/pic32mx/8.3.1/micromips\libgcc.a(_udivdi3.o)
 .xc_stack_usage
                0x0000000000000000       0x17 c:/program files/microchip/xc32/v4.40/bin/bin/../../lib/gcc/pic32mx/8.3.1/micromips\libgcc.a(_udivdi3.o)
 .xc_stack_usage.hdr
                0x0000000000000000        0xe c:/program files/microchip/xc32/v4.40/bin/bin/../../lib/gcc/pic32mx/8.3.1/micromips\libgcc.a(_udivdi3.o)
 .data          0x0000000000000000        0x0 c:/program files/microchip/xc32/v4.40/bin/bin/../../lib/gcc/pic32mx/8.3.1/micromips\libgcc.a(_umoddi3.o)
 .bss           0x0000000000000000        0x0 c:/program files/microchip/xc32/v4.40/bin/bin/../../lib/gcc/pic32mx/8.3.1/micromips\libgcc.a(_umoddi3.o)
 .reginfo       0x0000000000000000       0x18 c:/program files/microchip/xc32/v4.40/bin/bin/../../lib/gcc/pic32mx/8.3.1/micromips\libgcc.a(_umoddi3.o)
 .MIPS.abiflags
                0x0000000000000000       0x18 c:/program files/microchip/xc32/v4.40/bin/bin/../../lib/gcc/pic32mx/8.3.1/micromips\libgcc.a(_umoddi3.o)
 .xc_stack_usage
                0x0000000000000000       0x17 c:/program files/microchip/xc32/v4.40/bin/bin/../../lib/gcc/pic32mx/8.3.1/micromips\libgcc.a(_umoddi3.o)
 .xc_stack_usage.hdr
                0x0000000000000000        0xe c:/program files/microchip/xc32/v4.40/bin/bin/../../lib/gcc/pic32mx/8.3.1/micromips\libgcc.a(_umoddi3.o)
 .text          0x0000000000000000        0x0 c:/program files/microchip/xc32/v4.40/bin/bin/../../lib/gcc/pic32mx/8.3.1/../../../../pic32mx/lib/micromips\libpic32.a(write.o)
 .data          0x0000000000000000        0x0 c:/program files/microchip/xc32/v4.40/bin/bin/../../lib/gcc/pic32mx/8.3.1/../../../../pic32mx/lib/micromips\libpic32.a(write.o)
 .bss           0x0000000000000000        0x0 c:/program files/microchip/xc32/v4.40/bin/bin/../../lib/gcc/pic32mx/8.3.1/../../../../pic32mx/lib/micromips\libpic32.a(write.o)
 .reginfo       0x0000000000000000       0x18 c:/program files/microchip/xc32/v4.40/bin/bin/../../lib/gcc/pic32mx/8.3.1/../../../../pic32mx/lib/micromips\libpic32.a(write.o)
 .MIPS.abiflags
                0x0000000000000000       0x18 c:/program files/microchip/xc32/v4.40/bin/bin/../../lib/gcc/pic32mx/8.3.1/../../../../pic32mx/lib/micromips\libpic32.a(write.o)
 .xc_stack_usage
                0x0000000000000000       0x13 c:/program files/microchip/xc32/v4.40/bin/bin/../../lib/gcc/pic32mx/8.3.1/../../../../pic32mx/lib/micromips\libpic32.a(write.o)
 .xc_stack_usage.hdr
                0x0000000000000000        0xe c:/program files/microchip/xc32/v4.40/bin/bin/../../lib/gcc/pic32mx/8.3.1/../../../../pic32mx/lib/micromips\libpic32.a(write.o)
 .text          0x0000000000000000        0x0 c:/program files/microchip/xc32/v4.40/bin/bin/../../lib/gcc/pic32mx/8.3.1/../../../../pic32mx/lib/micromips\libpic32.a(lseek.o)
 .data          0x0000000000000000        0x0 c:/program files/microchip/xc32/v4.40/bin/bin/../../lib/gcc/pic32mx/8.3.1/../../../../pic32mx/lib/micromips\libpic32.a(lseek.o)
 .bss           0x0000000000000000        0x0 c:/program files/microchip/xc32/v4.40/bin/bin/../../lib/gcc/pic32mx/8.3.1/../../../../pic32mx/lib/micromips\libpic32.a(lseek.o)
 .reginfo       0x0000000000000000       0x18 c:/program files/microchip/xc32/v4.40/bin/bin/../../lib/gcc/pic32mx/8.3.1/../../../../pic32mx/lib/micromips\libpic32.a(lseek.o)
 .MIPS.abiflags
                0x0000000000000000       0x18 c:/program files/microchip/xc32/v4.40/bin/bin/../../lib/gcc/pic32mx/8.3.1/../../../../pic32mx/lib/micromips\libpic32.a(lseek.o)
 .xc_stack_usage
                0x0000000000000000       0x13 c:/program files/microchip/xc32/v4.40/bin/bin/../../lib/gcc/pic32mx/8.3.1/../../../../pic32mx/lib/micromips\libpic32.a(lseek.o)
 .xc_stack_usage.hdr
                0x0000000000000000        0xe c:/program files/microchip/xc32/v4.40/bin/bin/../../lib/gcc/pic32mx/8.3.1/../../../../pic32mx/lib/micromips\libpic32.a(lseek.o)
 .text          0x0000000000000000        0x0 c:/program files/microchip/xc32/v4.40/bin/bin/../../lib/gcc/pic32mx/8.3.1/../../../../pic32mx/lib/micromips\libpic32.a(close.o)
 .data          0x0000000000000000        0x0 c:/program files/microchip/xc32/v4.40/bin/bin/../../lib/gcc/pic32mx/8.3.1/../../../../pic32mx/lib/micromips\libpic32.a(close.o)
 .bss           0x0000000000000000        0x0 c:/program files/microchip/xc32/v4.40/bin/bin/../../lib/gcc/pic32mx/8.3.1/../../../../pic32mx/lib/micromips\libpic32.a(close.o)
 .reginfo       0x0000000000000000       0x18 c:/program files/microchip/xc32/v4.40/bin/bin/../../lib/gcc/pic32mx/8.3.1/../../../../pic32mx/lib/micromips\libpic32.a(close.o)
 .MIPS.abiflags
                0x0000000000000000       0x18 c:/program files/microchip/xc32/v4.40/bin/bin/../../lib/gcc/pic32mx/8.3.1/../../../../pic32mx/lib/micromips\libpic32.a(close.o)
 .xc_stack_usage
                0x0000000000000000       0x13 c:/program files/microchip/xc32/v4.40/bin/bin/../../lib/gcc/pic32mx/8.3.1/../../../../pic32mx/lib/micromips\libpic32.a(close.o)
 .xc_stack_usage.hdr
                0x0000000000000000        0xe c:/program files/microchip/xc32/v4.40/bin/bin/../../lib/gcc/pic32mx/8.3.1/../../../../pic32mx/lib/micromips\libpic32.a(close.o)
 .text          0x0000000000000000        0x0 c:/program files/microchip/xc32/v4.40/bin/bin/../../lib/gcc/pic32mx/8.3.1/../../../../pic32mx/lib/micromips\libpic32.a(errno.o)
 .data          0x0000000000000000        0x0 c:/program files/microchip/xc32/v4.40/bin/bin/../../lib/gcc/pic32mx/8.3.1/../../../../pic32mx/lib/micromips\libpic32.a(errno.o)
 .bss           0x0000000000000000        0x0 c:/program files/microchip/xc32/v4.40/bin/bin/../../lib/gcc/pic32mx/8.3.1/../../../../pic32mx/lib/micromips\libpic32.a(errno.o)
 .reginfo       0x0000000000000000       0x18 c:/program files/microchip/xc32/v4.40/bin/bin/../../lib/gcc/pic32mx/8.3.1/../../../../pic32mx/lib/micromips\libpic32.a(errno.o)
 .MIPS.abiflags
                0x0000000000000000       0x18 c:/program files/microchip/xc32/v4.40/bin/bin/../../lib/gcc/pic32mx/8.3.1/../../../../pic32mx/lib/micromips\libpic32.a(errno.o)
 .xc_stack_usage.hdr
                0x0000000000000000        0xe c:/program files/microchip/xc32/v4.40/bin/bin/../../lib/gcc/pic32mx/8.3.1/../../../../pic32mx/lib/micromips\libpic32.a(errno.o)
 .data          0x0000000000000000        0x0 c:/program files/microchip/xc32/v4.40/bin/bin/../../lib/gcc/pic32mx/8.3.1/../../../../pic32mx/lib/micromips\libpic32.a(pic32_data_init_clear.o)
 .bss           0x0000000000000000        0x0 c:/program files/microchip/xc32/v4.40/bin/bin/../../lib/gcc/pic32mx/8.3.1/../../../../pic32mx/lib/micromips\libpic32.a(pic32_data_init_clear.o)
 .reginfo       0x0000000000000000       0x18 c:/program files/microchip/xc32/v4.40/bin/bin/../../lib/gcc/pic32mx/8.3.1/../../../../pic32mx/lib/micromips\libpic32.a(pic32_data_init_clear.o)
 .MIPS.abiflags
                0x0000000000000000       0x18 c:/program files/microchip/xc32/v4.40/bin/bin/../../lib/gcc/pic32mx/8.3.1/../../../../pic32mx/lib/micromips\libpic32.a(pic32_data_init_clear.o)
 .xc_stack_usage.hdr
                0x0000000000000000        0xe c:/program files/microchip/xc32/v4.40/bin/bin/../../lib/gcc/pic32mx/8.3.1/../../../../pic32mx/lib/micromips\libpic32.a(pic32_data_init_clear.o)
 .xc_stack_usage
                0x0000000000000000       0x1b c:/program files/microchip/xc32/v4.40/bin/bin/../../lib/gcc/pic32mx/8.3.1/../../../../pic32mx/lib/micromips\libpic32.a(pic32_data_init_clear.o)
 .data          0x0000000000000000        0x0 c:/program files/microchip/xc32/v4.40/bin/bin/../../lib/gcc/pic32mx/8.3.1/../../../../pic32mx/lib/micromips\libpic32.a(pic32_data_init_copy.o)
 .bss           0x0000000000000000        0x0 c:/program files/microchip/xc32/v4.40/bin/bin/../../lib/gcc/pic32mx/8.3.1/../../../../pic32mx/lib/micromips\libpic32.a(pic32_data_init_copy.o)
 .reginfo       0x0000000000000000       0x18 c:/program files/microchip/xc32/v4.40/bin/bin/../../lib/gcc/pic32mx/8.3.1/../../../../pic32mx/lib/micromips\libpic32.a(pic32_data_init_copy.o)
 .MIPS.abiflags
                0x0000000000000000       0x18 c:/program files/microchip/xc32/v4.40/bin/bin/../../lib/gcc/pic32mx/8.3.1/../../../../pic32mx/lib/micromips\libpic32.a(pic32_data_init_copy.o)
 .xc_stack_usage.hdr
                0x0000000000000000        0xe c:/program files/microchip/xc32/v4.40/bin/bin/../../lib/gcc/pic32mx/8.3.1/../../../../pic32mx/lib/micromips\libpic32.a(pic32_data_init_copy.o)
 .xc_stack_usage
                0x0000000000000000       0x1a c:/program files/microchip/xc32/v4.40/bin/bin/../../lib/gcc/pic32mx/8.3.1/../../../../pic32mx/lib/micromips\libpic32.a(pic32_data_init_copy.o)
 .data          0x0000000000000000        0x0 c:/program files/microchip/xc32/v4.40/bin/bin/../../lib/gcc/pic32mx/8.3.1/../../../../pic32mx/lib/micromips\libpic32.a(pic32_data_init_decompress.o)
 .bss           0x0000000000000000        0x0 c:/program files/microchip/xc32/v4.40/bin/bin/../../lib/gcc/pic32mx/8.3.1/../../../../pic32mx/lib/micromips\libpic32.a(pic32_data_init_decompress.o)
 .reginfo       0x0000000000000000       0x18 c:/program files/microchip/xc32/v4.40/bin/bin/../../lib/gcc/pic32mx/8.3.1/../../../../pic32mx/lib/micromips\libpic32.a(pic32_data_init_decompress.o)
 .MIPS.abiflags
                0x0000000000000000       0x18 c:/program files/microchip/xc32/v4.40/bin/bin/../../lib/gcc/pic32mx/8.3.1/../../../../pic32mx/lib/micromips\libpic32.a(pic32_data_init_decompress.o)
 .xc_stack_usage.hdr
                0x0000000000000000        0xe c:/program files/microchip/xc32/v4.40/bin/bin/../../lib/gcc/pic32mx/8.3.1/../../../../pic32mx/lib/micromips\libpic32.a(pic32_data_init_decompress.o)
 .xc_stack_usage
                0x0000000000000000       0x20 c:/program files/microchip/xc32/v4.40/bin/bin/../../lib/gcc/pic32mx/8.3.1/../../../../pic32mx/lib/micromips\libpic32.a(pic32_data_init_decompress.o)

Memory Configuration

Name             Origin             Length             Attributes
kseg0_program_mem 0x000000009d001000 0x000000000003a000 xr
debug_exec_mem   0x000000009d003000 0x0000000000000760
kseg0_boot_mem   0x000000009d003760 0x0000000000000000
kseg1_boot_mem   0x000000009d003760 0x0000000000000490
kseg0_data_mem   0x0000000080000000 0x0000000000008000 w !x
sfrs             0x00000000bf800000 0x0000000000100000
*default*        0x0000000000000000 0xffffffffffffffff

Linker script and memory map

LOAD c:/program files/microchip/xc32/v4.40/bin/bin/../../lib/gcc/pic32mx/8.3.1/../../../../pic32mx/lib/micromips\debug-exception-return.o
LOAD build/default/debug/Cfg/Debug_Cfg.o
LOAD build/default/debug/mcc_generated_files/drivers/i2c_types.o
LOAD build/default/debug/mcc_generated_files/drivers/i2c_master.o
LOAD build/default/debug/mcc_generated_files/drivers/i2c_simple_master.o
LOAD build/default/debug/mcc_generated_files/drivers/spi_master.o
LOAD build/default/debug/mcc_generated_files/memory/flash_demo.o
LOAD build/default/debug/mcc_generated_files/memory/flash.o
LOAD build/default/debug/flashfunc.o
LOAD build/default/debug/mcc_generated_files/usb/usb_device_generic.o
LOAD build/default/debug/mcc_generated_files/usb/usb_device_events.o
LOAD build/default/debug/mcc_generated_files/usb/usb_device.o
LOAD build/default/debug/mcc_generated_files/usb/usb_descriptors.o
LOAD build/default/debug/mcc_generated_files/usb/usb_device_cdc.o
LOAD build/default/debug/mcc_generated_files/uart3.o
LOAD build/default/debug/mcc_generated_files/system.o
LOAD build/default/debug/mcc_generated_files/coretimer.o
LOAD build/default/debug/mcc_generated_files/clock.o
LOAD build/default/debug/mcc_generated_files/exceptions.o
LOAD build/default/debug/mcc_generated_files/interrupt_manager.o
LOAD build/default/debug/mcc_generated_files/mcc.o
LOAD build/default/debug/mcc_generated_files/pin_manager.o
LOAD build/default/debug/mcc_generated_files/i2c1_driver.o
LOAD build/default/debug/mcc_generated_files/spi2_driver.o
LOAD build/default/debug/mcc_generated_files/uart2.o
LOAD build/default/debug/_ext/1209153551/Buttons.o
LOAD build/default/debug/_ext/1362353914/TelitAtCmd.o
LOAD build/default/debug/_ext/1362353914/TelitPwrCtrl.o
LOAD build/default/debug/_ext/1124510853/Debug.o
LOAD build/default/debug/_ext/1124510853/Utils.o
LOAD build/default/debug/_ext/657024065/PIC32MM_Gpio.o
LOAD build/default/debug/_ext/657024065/softWdt.o
LOAD build/default/debug/_ext/657024065/TaskManager.o
LOAD build/default/debug/_ext/657024065/TickTimer.o
LOAD build/default/debug/User/AppMain.o
LOAD build/default/debug/User/VCP.o
LOAD build/default/debug/User/VCP_Debug.o
LOAD build/default/debug/main.o
                0x0000000000000001                __MPLAB_BUILD = 0x1
                0x0000000000000400                PROVIDE (_min_stack_size = 0x400)
                0x0000000000000001                PROVIDE (_vector_spacing = 0x1)
                0x000000009d001000                PROVIDE (_ebase_address = 0x9d001000)
                0x000000009d000000                _RESET_ADDR = 0x9d000000
                0x000000009d000380                _BEV_EXCPT_ADDR = 0x9d000380
                0x000000009d000480                _DBG_EXCPT_ADDR = 0x9d000480
                0x000000009d000490                _DBG_CODE_ADDR = 0x9d000490
                0x0000000000000760                _DBG_CODE_SIZE = 0x760
                0x000000009d001000                _SIMPLE_TLB_REFILL_EXCPT_ADDR = (_ebase_address + 0x0)
                0x000000009d001180                _GEN_EXCPT_ADDR = (_ebase_address + 0x180)

.reset          0x000000009d000000      0x140
 *(.reset)
 .reset         0x000000009d000000        0x8 C:\Users\ADMIN\AppData\Local\Temp\ccMUuKnQ.o
                0x000000009d000001                _reset
 *(.reset.startup)
 .reset.startup
                0x000000009d000008      0x138 C:\Users\ADMIN\AppData\Local\Temp\ccMUuKnQ.o
                0x000000009d000009                _startup

.bev_excpt      0x000000009d000380        0xc
 *(.bev_handler)
 .bev_handler   0x000000009d000380        0xc C:\Users\ADMIN\AppData\Local\Temp\ccMUuKnQ.o

.dbg_excpt      0x000000009d000480        0x0
                0x000000009d000480                . = (. + DEFINED (_DEBUGGER)?0x8:0x0)

.dbg_code       0x000000009d000490        0x0
                0x000000009d000490                . = (. + DEFINED (_DEBUGGER)?_DBG_CODE_SIZE:0x0)

.app_excpt      0x000000009d001180        0xc
 *(.gen_handler)
 .gen_handler   0x000000009d001180        0xc C:\Users\ADMIN\AppData\Local\Temp\ccMUuKnQ.o

.vector_0       0x000000009d001200        0x8
 *(.vector_0)
 .vector_0      0x000000009d001200        0x8 build/default/debug/mcc_generated_files/coretimer.o
                0x000000009d001201                __vector_dispatch_0
                0x0000000000000001                ASSERT (((_vector_spacing == 0x0) || (SIZEOF (.vector_0) <= (_vector_spacing << 0x3))), function at exception vector 0 too large)

.vector_1       0x000000009d001208        0x8
 *(.vector_1)
 .vector_1      0x000000009d001208        0x8 c:/program files/microchip/xc32/v4.40/bin/bin/../../lib/gcc/pic32mx/8.3.1/../../../../pic32mx/lib/micromips\libpic32.a(vector1.o)
                0x000000009d001209                __vector_dispatch_1
                0x0000000000000001                ASSERT (((_vector_spacing == 0x0) || (SIZEOF (.vector_1) <= (_vector_spacing << 0x3))), function at exception vector 1 too large)

.vector_2       0x000000009d001210        0x8
 *(.vector_2)
 .vector_2      0x000000009d001210        0x8 c:/program files/microchip/xc32/v4.40/bin/bin/../../lib/gcc/pic32mx/8.3.1/../../../../pic32mx/lib/micromips\libpic32.a(vector2.o)
                0x000000009d001211                __vector_dispatch_2
                0x0000000000000001                ASSERT (((_vector_spacing == 0x0) || (SIZEOF (.vector_2) <= (_vector_spacing << 0x3))), function at exception vector 2 too large)

.vector_3       0x000000009d001218        0x8
 *(.vector_3)
 .vector_3      0x000000009d001218        0x8 c:/program files/microchip/xc32/v4.40/bin/bin/../../lib/gcc/pic32mx/8.3.1/../../../../pic32mx/lib/micromips\libpic32.a(vector3.o)
                0x000000009d001219                __vector_dispatch_3
                0x0000000000000001                ASSERT (((_vector_spacing == 0x0) || (SIZEOF (.vector_3) <= (_vector_spacing << 0x3))), function at exception vector 3 too large)

.vector_4       0x000000009d001220        0x8
 *(.vector_4)
 .vector_4      0x000000009d001220        0x8 c:/program files/microchip/xc32/v4.40/bin/bin/../../lib/gcc/pic32mx/8.3.1/../../../../pic32mx/lib/micromips\libpic32.a(vector4.o)
                0x000000009d001221                __vector_dispatch_4
                0x0000000000000001                ASSERT (((_vector_spacing == 0x0) || (SIZEOF (.vector_4) <= (_vector_spacing << 0x3))), function at exception vector 4 too large)

.vector_5       0x000000009d001228        0x8
 *(.vector_5)
 .vector_5      0x000000009d001228        0x8 c:/program files/microchip/xc32/v4.40/bin/bin/../../lib/gcc/pic32mx/8.3.1/../../../../pic32mx/lib/micromips\libpic32.a(vector5.o)
                0x000000009d001229                __vector_dispatch_5
                0x0000000000000001                ASSERT (((_vector_spacing == 0x0) || (SIZEOF (.vector_5) <= (_vector_spacing << 0x3))), function at exception vector 5 too large)

.vector_6       0x000000009d001230        0x8
 *(.vector_6)
 .vector_6      0x000000009d001230        0x8 c:/program files/microchip/xc32/v4.40/bin/bin/../../lib/gcc/pic32mx/8.3.1/../../../../pic32mx/lib/micromips\libpic32.a(vector6.o)
                0x000000009d001231                __vector_dispatch_6
                0x0000000000000001                ASSERT (((_vector_spacing == 0x0) || (SIZEOF (.vector_6) <= (_vector_spacing << 0x3))), function at exception vector 6 too large)

.vector_7       0x000000009d001238        0x8
 *(.vector_7)
 .vector_7      0x000000009d001238        0x8 c:/program files/microchip/xc32/v4.40/bin/bin/../../lib/gcc/pic32mx/8.3.1/../../../../pic32mx/lib/micromips\libpic32.a(vector7.o)
                0x000000009d001239                __vector_dispatch_7
                0x0000000000000001                ASSERT (((_vector_spacing == 0x0) || (SIZEOF (.vector_7) <= (_vector_spacing << 0x3))), function at exception vector 7 too large)

.vector_8       0x000000009d001240        0x8
 *(.vector_8)
 .vector_8      0x000000009d001240        0x8 build/default/debug/mcc_generated_files/pin_manager.o
                0x000000009d001241                __vector_dispatch_8
                0x0000000000000001                ASSERT (((_vector_spacing == 0x0) || (SIZEOF (.vector_8) <= (_vector_spacing << 0x3))), function at exception vector 8 too large)

.vector_9       0x000000009d001248        0x8
 *(.vector_9)
 .vector_9      0x000000009d001248        0x8 build/default/debug/mcc_generated_files/pin_manager.o
                0x000000009d001249                __vector_dispatch_9
                0x0000000000000001                ASSERT (((_vector_spacing == 0x0) || (SIZEOF (.vector_9) <= (_vector_spacing << 0x3))), function at exception vector 9 too large)

.vector_10      0x000000009d001250        0x8
 *(.vector_10)
 .vector_10     0x000000009d001250        0x8 build/default/debug/mcc_generated_files/pin_manager.o
                0x000000009d001251                __vector_dispatch_10
                0x0000000000000001                ASSERT (((_vector_spacing == 0x0) || (SIZEOF (.vector_10) <= (_vector_spacing << 0x3))), function at exception vector 10 too large)

.vector_11      0x000000009d001258        0x8
 *(.vector_11)
 .vector_11     0x000000009d001258        0x8 c:/program files/microchip/xc32/v4.40/bin/bin/../../lib/gcc/pic32mx/8.3.1/../../../../pic32mx/lib/micromips\libpic32.a(vector11.o)
                0x000000009d001259                __vector_dispatch_11
                0x0000000000000001                ASSERT (((_vector_spacing == 0x0) || (SIZEOF (.vector_11) <= (_vector_spacing << 0x3))), function at exception vector 11 too large)

.vector_12      0x000000009d001260        0x8
 *(.vector_12)
 .vector_12     0x000000009d001260        0x8 c:/program files/microchip/xc32/v4.40/bin/bin/../../lib/gcc/pic32mx/8.3.1/../../../../pic32mx/lib/micromips\libpic32.a(vector12.o)
                0x000000009d001261                __vector_dispatch_12
                0x0000000000000001                ASSERT (((_vector_spacing == 0x0) || (SIZEOF (.vector_12) <= (_vector_spacing << 0x3))), function at exception vector 12 too large)

.vector_13      0x000000009d001268        0x8
 *(.vector_13)
 .vector_13     0x000000009d001268        0x8 c:/program files/microchip/xc32/v4.40/bin/bin/../../lib/gcc/pic32mx/8.3.1/../../../../pic32mx/lib/micromips\libpic32.a(vector13.o)
                0x000000009d001269                __vector_dispatch_13
                0x0000000000000001                ASSERT (((_vector_spacing == 0x0) || (SIZEOF (.vector_13) <= (_vector_spacing << 0x3))), function at exception vector 13 too large)

.vector_14      0x000000009d001270        0x8
 *(.vector_14)
 .vector_14     0x000000009d001270        0x8 c:/program files/microchip/xc32/v4.40/bin/bin/../../lib/gcc/pic32mx/8.3.1/../../../../pic32mx/lib/micromips\libpic32.a(vector14.o)
                0x000000009d001271                __vector_dispatch_14
                0x0000000000000001                ASSERT (((_vector_spacing == 0x0) || (SIZEOF (.vector_14) <= (_vector_spacing << 0x3))), function at exception vector 14 too large)

.vector_15      0x000000009d001278        0x8
 *(.vector_15)
 .vector_15     0x000000009d001278        0x8 c:/program files/microchip/xc32/v4.40/bin/bin/../../lib/gcc/pic32mx/8.3.1/../../../../pic32mx/lib/micromips\libpic32.a(vector15.o)
                0x000000009d001279                __vector_dispatch_15
                0x0000000000000001                ASSERT (((_vector_spacing == 0x0) || (SIZEOF (.vector_15) <= (_vector_spacing << 0x3))), function at exception vector 15 too large)

.vector_16      0x000000009d001280        0x8
 *(.vector_16)
 .vector_16     0x000000009d001280        0x8 c:/program files/microchip/xc32/v4.40/bin/bin/../../lib/gcc/pic32mx/8.3.1/../../../../pic32mx/lib/micromips\libpic32.a(vector16.o)
                0x000000009d001281                __vector_dispatch_16
                0x0000000000000001                ASSERT (((_vector_spacing == 0x0) || (SIZEOF (.vector_16) <= (_vector_spacing << 0x3))), function at exception vector 16 too large)

.vector_17      0x000000009d001288        0x8
 *(.vector_17)
 .vector_17     0x000000009d001288        0x8 c:/program files/microchip/xc32/v4.40/bin/bin/../../lib/gcc/pic32mx/8.3.1/../../../../pic32mx/lib/micromips\libpic32.a(vector17.o)
                0x000000009d001289                __vector_dispatch_17
                0x0000000000000001                ASSERT (((_vector_spacing == 0x0) || (SIZEOF (.vector_17) <= (_vector_spacing << 0x3))), function at exception vector 17 too large)

.vector_18      0x000000009d001290        0x8
 *(.vector_18)
 .vector_18     0x000000009d001290        0x8 c:/program files/microchip/xc32/v4.40/bin/bin/../../lib/gcc/pic32mx/8.3.1/../../../../pic32mx/lib/micromips\libpic32.a(vector18.o)
                0x000000009d001291                __vector_dispatch_18
                0x0000000000000001                ASSERT (((_vector_spacing == 0x0) || (SIZEOF (.vector_18) <= (_vector_spacing << 0x3))), function at exception vector 18 too large)

.vector_19      0x000000009d001298        0x8
 *(.vector_19)
 .vector_19     0x000000009d001298        0x8 c:/program files/microchip/xc32/v4.40/bin/bin/../../lib/gcc/pic32mx/8.3.1/../../../../pic32mx/lib/micromips\libpic32.a(vector19.o)
                0x000000009d001299                __vector_dispatch_19
                0x0000000000000001                ASSERT (((_vector_spacing == 0x0) || (SIZEOF (.vector_19) <= (_vector_spacing << 0x3))), function at exception vector 19 too large)

.vector_20      0x000000009d0012a0        0x8
 *(.vector_20)
 .vector_20     0x000000009d0012a0        0x8 c:/program files/microchip/xc32/v4.40/bin/bin/../../lib/gcc/pic32mx/8.3.1/../../../../pic32mx/lib/micromips\libpic32.a(vector20.o)
                0x000000009d0012a1                __vector_dispatch_20
                0x0000000000000001                ASSERT (((_vector_spacing == 0x0) || (SIZEOF (.vector_20) <= (_vector_spacing << 0x3))), function at exception vector 20 too large)

.vector_21      0x000000009d0012a8        0x8
 *(.vector_21)
 .vector_21     0x000000009d0012a8        0x8 c:/program files/microchip/xc32/v4.40/bin/bin/../../lib/gcc/pic32mx/8.3.1/../../../../pic32mx/lib/micromips\libpic32.a(vector21.o)
                0x000000009d0012a9                __vector_dispatch_21
                0x0000000000000001                ASSERT (((_vector_spacing == 0x0) || (SIZEOF (.vector_21) <= (_vector_spacing << 0x3))), function at exception vector 21 too large)

.vector_22      0x000000009d0012b0        0x8
 *(.vector_22)
 .vector_22     0x000000009d0012b0        0x8 c:/program files/microchip/xc32/v4.40/bin/bin/../../lib/gcc/pic32mx/8.3.1/../../../../pic32mx/lib/micromips\libpic32.a(vector22.o)
                0x000000009d0012b1                __vector_dispatch_22
                0x0000000000000001                ASSERT (((_vector_spacing == 0x0) || (SIZEOF (.vector_22) <= (_vector_spacing << 0x3))), function at exception vector 22 too large)

.vector_23      0x000000009d0012b8        0x8
 *(.vector_23)
 .vector_23     0x000000009d0012b8        0x8 c:/program files/microchip/xc32/v4.40/bin/bin/../../lib/gcc/pic32mx/8.3.1/../../../../pic32mx/lib/micromips\libpic32.a(vector23.o)
                0x000000009d0012b9                __vector_dispatch_23
                0x0000000000000001                ASSERT (((_vector_spacing == 0x0) || (SIZEOF (.vector_23) <= (_vector_spacing << 0x3))), function at exception vector 23 too large)

.vector_24      0x000000009d0012c0        0x8
 *(.vector_24)
 .vector_24     0x000000009d0012c0        0x8 c:/program files/microchip/xc32/v4.40/bin/bin/../../lib/gcc/pic32mx/8.3.1/../../../../pic32mx/lib/micromips\libpic32.a(vector24.o)
                0x000000009d0012c1                __vector_dispatch_24
                0x0000000000000001                ASSERT (((_vector_spacing == 0x0) || (SIZEOF (.vector_24) <= (_vector_spacing << 0x3))), function at exception vector 24 too large)

.vector_25      0x000000009d0012c8        0x8
 *(.vector_25)
 .vector_25     0x000000009d0012c8        0x8 c:/program files/microchip/xc32/v4.40/bin/bin/../../lib/gcc/pic32mx/8.3.1/../../../../pic32mx/lib/micromips\libpic32.a(vector25.o)
                0x000000009d0012c9                __vector_dispatch_25
                0x0000000000000001                ASSERT (((_vector_spacing == 0x0) || (SIZEOF (.vector_25) <= (_vector_spacing << 0x3))), function at exception vector 25 too large)

.vector_26      0x000000009d0012d0        0x8
 *(.vector_26)
 .vector_26     0x000000009d0012d0        0x8 c:/program files/microchip/xc32/v4.40/bin/bin/../../lib/gcc/pic32mx/8.3.1/../../../../pic32mx/lib/micromips\libpic32.a(vector26.o)
                0x000000009d0012d1                __vector_dispatch_26
                0x0000000000000001                ASSERT (((_vector_spacing == 0x0) || (SIZEOF (.vector_26) <= (_vector_spacing << 0x3))), function at exception vector 26 too large)

.vector_27      0x000000009d0012d8        0x8
 *(.vector_27)
 .vector_27     0x000000009d0012d8        0x8 c:/program files/microchip/xc32/v4.40/bin/bin/../../lib/gcc/pic32mx/8.3.1/../../../../pic32mx/lib/micromips\libpic32.a(vector27.o)
                0x000000009d0012d9                __vector_dispatch_27
                0x0000000000000001                ASSERT (((_vector_spacing == 0x0) || (SIZEOF (.vector_27) <= (_vector_spacing << 0x3))), function at exception vector 27 too large)

.vector_28      0x000000009d0012e0        0x8
 *(.vector_28)
 .vector_28     0x000000009d0012e0        0x8 c:/program files/microchip/xc32/v4.40/bin/bin/../../lib/gcc/pic32mx/8.3.1/../../../../pic32mx/lib/micromips\libpic32.a(vector28.o)
                0x000000009d0012e1                __vector_dispatch_28
                0x0000000000000001                ASSERT (((_vector_spacing == 0x0) || (SIZEOF (.vector_28) <= (_vector_spacing << 0x3))), function at exception vector 28 too large)

.vector_29      0x000000009d0012e8        0x8
 *(.vector_29)
 .vector_29     0x000000009d0012e8        0x8 build/default/debug/mcc_generated_files/usb/usb_device_events.o
                0x000000009d0012e9                __vector_dispatch_29
                0x0000000000000001                ASSERT (((_vector_spacing == 0x0) || (SIZEOF (.vector_29) <= (_vector_spacing << 0x3))), function at exception vector 29 too large)

.vector_30      0x000000009d0012f0        0x8
 *(.vector_30)
 .vector_30     0x000000009d0012f0        0x8 c:/program files/microchip/xc32/v4.40/bin/bin/../../lib/gcc/pic32mx/8.3.1/../../../../pic32mx/lib/micromips\libpic32.a(vector30.o)
                0x000000009d0012f1                __vector_dispatch_30
                0x0000000000000001                ASSERT (((_vector_spacing == 0x0) || (SIZEOF (.vector_30) <= (_vector_spacing << 0x3))), function at exception vector 30 too large)

.vector_31      0x000000009d0012f8        0x8
 *(.vector_31)
 .vector_31     0x000000009d0012f8        0x8 c:/program files/microchip/xc32/v4.40/bin/bin/../../lib/gcc/pic32mx/8.3.1/../../../../pic32mx/lib/micromips\libpic32.a(vector31.o)
                0x000000009d0012f9                __vector_dispatch_31
                0x0000000000000001                ASSERT (((_vector_spacing == 0x0) || (SIZEOF (.vector_31) <= (_vector_spacing << 0x3))), function at exception vector 31 too large)

.vector_32      0x000000009d001300        0x8
 *(.vector_32)
 .vector_32     0x000000009d001300        0x8 c:/program files/microchip/xc32/v4.40/bin/bin/../../lib/gcc/pic32mx/8.3.1/../../../../pic32mx/lib/micromips\libpic32.a(vector32.o)
                0x000000009d001301                __vector_dispatch_32
                0x0000000000000001                ASSERT (((_vector_spacing == 0x0) || (SIZEOF (.vector_32) <= (_vector_spacing << 0x3))), function at exception vector 32 too large)

.vector_33      0x000000009d001308        0x8
 *(.vector_33)
 .vector_33     0x000000009d001308        0x8 c:/program files/microchip/xc32/v4.40/bin/bin/../../lib/gcc/pic32mx/8.3.1/../../../../pic32mx/lib/micromips\libpic32.a(vector33.o)
                0x000000009d001309                __vector_dispatch_33
                0x0000000000000001                ASSERT (((_vector_spacing == 0x0) || (SIZEOF (.vector_33) <= (_vector_spacing << 0x3))), function at exception vector 33 too large)

.vector_34      0x000000009d001310        0x8
 *(.vector_34)
 .vector_34     0x000000009d001310        0x8 c:/program files/microchip/xc32/v4.40/bin/bin/../../lib/gcc/pic32mx/8.3.1/../../../../pic32mx/lib/micromips\libpic32.a(vector34.o)
                0x000000009d001311                __vector_dispatch_34
                0x0000000000000001                ASSERT (((_vector_spacing == 0x0) || (SIZEOF (.vector_34) <= (_vector_spacing << 0x3))), function at exception vector 34 too large)

.vector_35      0x000000009d001318        0x8
 *(.vector_35)
 .vector_35     0x000000009d001318        0x8 c:/program files/microchip/xc32/v4.40/bin/bin/../../lib/gcc/pic32mx/8.3.1/../../../../pic32mx/lib/micromips\libpic32.a(vector35.o)
                0x000000009d001319                __vector_dispatch_35
                0x0000000000000001                ASSERT (((_vector_spacing == 0x0) || (SIZEOF (.vector_35) <= (_vector_spacing << 0x3))), function at exception vector 35 too large)

.vector_36      0x000000009d001320        0x8
 *(.vector_36)
 .vector_36     0x000000009d001320        0x8 c:/program files/microchip/xc32/v4.40/bin/bin/../../lib/gcc/pic32mx/8.3.1/../../../../pic32mx/lib/micromips\libpic32.a(vector36.o)
                0x000000009d001321                __vector_dispatch_36
                0x0000000000000001                ASSERT (((_vector_spacing == 0x0) || (SIZEOF (.vector_36) <= (_vector_spacing << 0x3))), function at exception vector 36 too large)

.vector_37      0x000000009d001328        0x8
 *(.vector_37)
 .vector_37     0x000000009d001328        0x8 c:/program files/microchip/xc32/v4.40/bin/bin/../../lib/gcc/pic32mx/8.3.1/../../../../pic32mx/lib/micromips\libpic32.a(vector37.o)
                0x000000009d001329                __vector_dispatch_37
                0x0000000000000001                ASSERT (((_vector_spacing == 0x0) || (SIZEOF (.vector_37) <= (_vector_spacing << 0x3))), function at exception vector 37 too large)

.vector_38      0x000000009d001330        0x8
 *(.vector_38)
 .vector_38     0x000000009d001330        0x8 c:/program files/microchip/xc32/v4.40/bin/bin/../../lib/gcc/pic32mx/8.3.1/../../../../pic32mx/lib/micromips\libpic32.a(vector38.o)
                0x000000009d001331                __vector_dispatch_38
                0x0000000000000001                ASSERT (((_vector_spacing == 0x0) || (SIZEOF (.vector_38) <= (_vector_spacing << 0x3))), function at exception vector 38 too large)

.vector_39      0x000000009d001338        0x8
 *(.vector_39)
 .vector_39     0x000000009d001338        0x8 c:/program files/microchip/xc32/v4.40/bin/bin/../../lib/gcc/pic32mx/8.3.1/../../../../pic32mx/lib/micromips\libpic32.a(vector39.o)
                0x000000009d001339                __vector_dispatch_39
                0x0000000000000001                ASSERT (((_vector_spacing == 0x0) || (SIZEOF (.vector_39) <= (_vector_spacing << 0x3))), function at exception vector 39 too large)

.vector_40      0x000000009d001340        0x8
 *(.vector_40)
 .vector_40     0x000000009d001340        0x8 c:/program files/microchip/xc32/v4.40/bin/bin/../../lib/gcc/pic32mx/8.3.1/../../../../pic32mx/lib/micromips\libpic32.a(vector40.o)
                0x000000009d001341                __vector_dispatch_40
                0x0000000000000001                ASSERT (((_vector_spacing == 0x0) || (SIZEOF (.vector_40) <= (_vector_spacing << 0x3))), function at exception vector 40 too large)

.vector_41      0x000000009d001348        0x8
 *(.vector_41)
 .vector_41     0x000000009d001348        0x8 c:/program files/microchip/xc32/v4.40/bin/bin/../../lib/gcc/pic32mx/8.3.1/../../../../pic32mx/lib/micromips\libpic32.a(vector41.o)
                0x000000009d001349                __vector_dispatch_41
                0x0000000000000001                ASSERT (((_vector_spacing == 0x0) || (SIZEOF (.vector_41) <= (_vector_spacing << 0x3))), function at exception vector 41 too large)

.vector_42      0x000000009d001350        0x8
 *(.vector_42)
 .vector_42     0x000000009d001350        0x8 c:/program files/microchip/xc32/v4.40/bin/bin/../../lib/gcc/pic32mx/8.3.1/../../../../pic32mx/lib/micromips\libpic32.a(vector42.o)
                0x000000009d001351                __vector_dispatch_42
                0x0000000000000001                ASSERT (((_vector_spacing == 0x0) || (SIZEOF (.vector_42) <= (_vector_spacing << 0x3))), function at exception vector 42 too large)

.vector_43      0x000000009d001358        0x8
 *(.vector_43)
 .vector_43     0x000000009d001358        0x8 c:/program files/microchip/xc32/v4.40/bin/bin/../../lib/gcc/pic32mx/8.3.1/../../../../pic32mx/lib/micromips\libpic32.a(vector43.o)
                0x000000009d001359                __vector_dispatch_43
                0x0000000000000001                ASSERT (((_vector_spacing == 0x0) || (SIZEOF (.vector_43) <= (_vector_spacing << 0x3))), function at exception vector 43 too large)

.vector_44      0x000000009d001360        0x8
 *(.vector_44)
 .vector_44     0x000000009d001360        0x8 c:/program files/microchip/xc32/v4.40/bin/bin/../../lib/gcc/pic32mx/8.3.1/../../../../pic32mx/lib/micromips\libpic32.a(vector44.o)
                0x000000009d001361                __vector_dispatch_44
                0x0000000000000001                ASSERT (((_vector_spacing == 0x0) || (SIZEOF (.vector_44) <= (_vector_spacing << 0x3))), function at exception vector 44 too large)

.vector_45      0x000000009d001368        0x8
 *(.vector_45)
 .vector_45     0x000000009d001368        0x8 c:/program files/microchip/xc32/v4.40/bin/bin/../../lib/gcc/pic32mx/8.3.1/../../../../pic32mx/lib/micromips\libpic32.a(vector45.o)
                0x000000009d001369                __vector_dispatch_45
                0x0000000000000001                ASSERT (((_vector_spacing == 0x0) || (SIZEOF (.vector_45) <= (_vector_spacing << 0x3))), function at exception vector 45 too large)

.vector_46      0x000000009d001370        0x8
 *(.vector_46)
 .vector_46     0x000000009d001370        0x8 c:/program files/microchip/xc32/v4.40/bin/bin/../../lib/gcc/pic32mx/8.3.1/../../../../pic32mx/lib/micromips\libpic32.a(vector46.o)
                0x000000009d001371                __vector_dispatch_46
                0x0000000000000001                ASSERT (((_vector_spacing == 0x0) || (SIZEOF (.vector_46) <= (_vector_spacing << 0x3))), function at exception vector 46 too large)

.vector_47      0x000000009d001378        0x8
 *(.vector_47)
 .vector_47     0x000000009d001378        0x8 c:/program files/microchip/xc32/v4.40/bin/bin/../../lib/gcc/pic32mx/8.3.1/../../../../pic32mx/lib/micromips\libpic32.a(vector47.o)
                0x000000009d001379                __vector_dispatch_47
                0x0000000000000001                ASSERT (((_vector_spacing == 0x0) || (SIZEOF (.vector_47) <= (_vector_spacing << 0x3))), function at exception vector 47 too large)

.vector_48      0x000000009d001380        0x8
 *(.vector_48)
 .vector_48     0x000000009d001380        0x8 c:/program files/microchip/xc32/v4.40/bin/bin/../../lib/gcc/pic32mx/8.3.1/../../../../pic32mx/lib/micromips\libpic32.a(vector48.o)
                0x000000009d001381                __vector_dispatch_48
                0x0000000000000001                ASSERT (((_vector_spacing == 0x0) || (SIZEOF (.vector_48) <= (_vector_spacing << 0x3))), function at exception vector 48 too large)

.vector_49      0x000000009d001388        0x8
 *(.vector_49)
 .vector_49     0x000000009d001388        0x8 c:/program files/microchip/xc32/v4.40/bin/bin/../../lib/gcc/pic32mx/8.3.1/../../../../pic32mx/lib/micromips\libpic32.a(vector49.o)
                0x000000009d001389                __vector_dispatch_49
                0x0000000000000001                ASSERT (((_vector_spacing == 0x0) || (SIZEOF (.vector_49) <= (_vector_spacing << 0x3))), function at exception vector 49 too large)

.vector_50      0x000000009d001390        0x8
 *(.vector_50)
 .vector_50     0x000000009d001390        0x8 c:/program files/microchip/xc32/v4.40/bin/bin/../../lib/gcc/pic32mx/8.3.1/../../../../pic32mx/lib/micromips\libpic32.a(vector50.o)
                0x000000009d001391                __vector_dispatch_50
                0x0000000000000001                ASSERT (((_vector_spacing == 0x0) || (SIZEOF (.vector_50) <= (_vector_spacing << 0x3))), function at exception vector 50 too large)

.vector_51      0x000000009d001398        0x8
 *(.vector_51)
 .vector_51     0x000000009d001398        0x8 c:/program files/microchip/xc32/v4.40/bin/bin/../../lib/gcc/pic32mx/8.3.1/../../../../pic32mx/lib/micromips\libpic32.a(vector51.o)
                0x000000009d001399                __vector_dispatch_51
                0x0000000000000001                ASSERT (((_vector_spacing == 0x0) || (SIZEOF (.vector_51) <= (_vector_spacing << 0x3))), function at exception vector 51 too large)

.vector_52      0x000000009d0013a0        0x8
 *(.vector_52)
 .vector_52     0x000000009d0013a0        0x8 c:/program files/microchip/xc32/v4.40/bin/bin/../../lib/gcc/pic32mx/8.3.1/../../../../pic32mx/lib/micromips\libpic32.a(vector52.o)
                0x000000009d0013a1                __vector_dispatch_52
                0x0000000000000001                ASSERT (((_vector_spacing == 0x0) || (SIZEOF (.vector_52) <= (_vector_spacing << 0x3))), function at exception vector 52 too large)

.vector_53      0x000000009d0013a8        0x8
 *(.vector_53)
 .vector_53     0x000000009d0013a8        0x8 c:/program files/microchip/xc32/v4.40/bin/bin/../../lib/gcc/pic32mx/8.3.1/../../../../pic32mx/lib/micromips\libpic32.a(vector53.o)
                0x000000009d0013a9                __vector_dispatch_53
                0x0000000000000001                ASSERT (((_vector_spacing == 0x0) || (SIZEOF (.vector_53) <= (_vector_spacing << 0x3))), function at exception vector 53 too large)

.vector_54      0x000000009d0013b0        0x8
 *(.vector_54)
 .vector_54     0x000000009d0013b0        0x8 c:/program files/microchip/xc32/v4.40/bin/bin/../../lib/gcc/pic32mx/8.3.1/../../../../pic32mx/lib/micromips\libpic32.a(vector54.o)
                0x000000009d0013b1                __vector_dispatch_54
                0x0000000000000001                ASSERT (((_vector_spacing == 0x0) || (SIZEOF (.vector_54) <= (_vector_spacing << 0x3))), function at exception vector 54 too large)

.vector_55      0x000000009d0013b8        0x8
 *(.vector_55)
 .vector_55     0x000000009d0013b8        0x8 c:/program files/microchip/xc32/v4.40/bin/bin/../../lib/gcc/pic32mx/8.3.1/../../../../pic32mx/lib/micromips\libpic32.a(vector55.o)
                0x000000009d0013b9                __vector_dispatch_55
                0x0000000000000001                ASSERT (((_vector_spacing == 0x0) || (SIZEOF (.vector_55) <= (_vector_spacing << 0x3))), function at exception vector 55 too large)

.vector_56      0x000000009d0013c0        0x8
 *(.vector_56)
 .vector_56     0x000000009d0013c0        0x8 build/default/debug/mcc_generated_files/uart2.o
                0x000000009d0013c1                __vector_dispatch_56
                0x0000000000000001                ASSERT (((_vector_spacing == 0x0) || (SIZEOF (.vector_56) <= (_vector_spacing << 0x3))), function at exception vector 56 too large)

.vector_57      0x000000009d0013c8        0x8
 *(.vector_57)
 .vector_57     0x000000009d0013c8        0x8 build/default/debug/mcc_generated_files/uart2.o
                0x000000009d0013c9                __vector_dispatch_57
                0x0000000000000001                ASSERT (((_vector_spacing == 0x0) || (SIZEOF (.vector_57) <= (_vector_spacing << 0x3))), function at exception vector 57 too large)

.vector_58      0x000000009d0013d0        0x8
 *(.vector_58)
 .vector_58     0x000000009d0013d0        0x8 build/default/debug/mcc_generated_files/uart2.o
                0x000000009d0013d1                __vector_dispatch_58
                0x0000000000000001                ASSERT (((_vector_spacing == 0x0) || (SIZEOF (.vector_58) <= (_vector_spacing << 0x3))), function at exception vector 58 too large)

.vector_59      0x000000009d0013d8        0x8
 *(.vector_59)
 .vector_59     0x000000009d0013d8        0x8 build/default/debug/mcc_generated_files/uart3.o
                0x000000009d0013d9                __vector_dispatch_59
                0x0000000000000001                ASSERT (((_vector_spacing == 0x0) || (SIZEOF (.vector_59) <= (_vector_spacing << 0x3))), function at exception vector 59 too large)

.vector_60      0x000000009d0013e0        0x8
 *(.vector_60)
 .vector_60     0x000000009d0013e0        0x8 build/default/debug/mcc_generated_files/uart3.o
                0x000000009d0013e1                __vector_dispatch_60
                0x0000000000000001                ASSERT (((_vector_spacing == 0x0) || (SIZEOF (.vector_60) <= (_vector_spacing << 0x3))), function at exception vector 60 too large)

.vector_61      0x000000009d0013e8        0x8
 *(.vector_61)
 .vector_61     0x000000009d0013e8        0x8 build/default/debug/mcc_generated_files/uart3.o
                0x000000009d0013e9                __vector_dispatch_61
                0x0000000000000001                ASSERT (((_vector_spacing == 0x0) || (SIZEOF (.vector_61) <= (_vector_spacing << 0x3))), function at exception vector 61 too large)

.vector_62      0x000000009d0013f0        0x8
 *(.vector_62)
 .vector_62     0x000000009d0013f0        0x8 c:/program files/microchip/xc32/v4.40/bin/bin/../../lib/gcc/pic32mx/8.3.1/../../../../pic32mx/lib/micromips\libpic32.a(vector62.o)
                0x000000009d0013f1                __vector_dispatch_62
                0x0000000000000001                ASSERT (((_vector_spacing == 0x0) || (SIZEOF (.vector_62) <= (_vector_spacing << 0x3))), function at exception vector 62 too large)

.vector_63      0x000000009d0013f8        0x8
 *(.vector_63)
 .vector_63     0x000000009d0013f8        0x8 c:/program files/microchip/xc32/v4.40/bin/bin/../../lib/gcc/pic32mx/8.3.1/../../../../pic32mx/lib/micromips\libpic32.a(vector63.o)
                0x000000009d0013f9                __vector_dispatch_63
                0x0000000000000001                ASSERT (((_vector_spacing == 0x0) || (SIZEOF (.vector_63) <= (_vector_spacing << 0x3))), function at exception vector 63 too large)

.vector_64      0x000000009d001400        0x8
 *(.vector_64)
 .vector_64     0x000000009d001400        0x8 c:/program files/microchip/xc32/v4.40/bin/bin/../../lib/gcc/pic32mx/8.3.1/../../../../pic32mx/lib/micromips\libpic32.a(vector64.o)
                0x000000009d001401                __vector_dispatch_64
                0x0000000000000001                ASSERT (((_vector_spacing == 0x0) || (SIZEOF (.vector_64) <= (_vector_spacing << 0x3))), function at exception vector 64 too large)

.vector_65      0x000000009d001408        0x8
 *(.vector_65)
 .vector_65     0x000000009d001408        0x8 build/default/debug/mcc_generated_files/i2c1_driver.o
                0x000000009d001409                __vector_dispatch_65
                0x0000000000000001                ASSERT (((_vector_spacing == 0x0) || (SIZEOF (.vector_65) <= (_vector_spacing << 0x3))), function at exception vector 65 too large)

.vector_66      0x000000009d001410        0x8
 *(.vector_66)
 .vector_66     0x000000009d001410        0x8 build/default/debug/mcc_generated_files/i2c1_driver.o
                0x000000009d001411                __vector_dispatch_66
                0x0000000000000001                ASSERT (((_vector_spacing == 0x0) || (SIZEOF (.vector_66) <= (_vector_spacing << 0x3))), function at exception vector 66 too large)

.vector_67      0x000000009d001418        0x8
 *(.vector_67)
 .vector_67     0x000000009d001418        0x8 build/default/debug/mcc_generated_files/i2c1_driver.o
                0x000000009d001419                __vector_dispatch_67
                0x0000000000000001                ASSERT (((_vector_spacing == 0x0) || (SIZEOF (.vector_67) <= (_vector_spacing << 0x3))), function at exception vector 67 too large)

.vector_68      0x000000009d001420        0x8
 *(.vector_68)
 .vector_68     0x000000009d001420        0x8 c:/program files/microchip/xc32/v4.40/bin/bin/../../lib/gcc/pic32mx/8.3.1/../../../../pic32mx/lib/micromips\libpic32.a(vector68.o)
                0x000000009d001421                __vector_dispatch_68
                0x0000000000000001                ASSERT (((_vector_spacing == 0x0) || (SIZEOF (.vector_68) <= (_vector_spacing << 0x3))), function at exception vector 68 too large)

.vector_69      0x000000009d001428        0x8
 *(.vector_69)
 .vector_69     0x000000009d001428        0x8 c:/program files/microchip/xc32/v4.40/bin/bin/../../lib/gcc/pic32mx/8.3.1/../../../../pic32mx/lib/micromips\libpic32.a(vector69.o)
                0x000000009d001429                __vector_dispatch_69
                0x0000000000000001                ASSERT (((_vector_spacing == 0x0) || (SIZEOF (.vector_69) <= (_vector_spacing << 0x3))), function at exception vector 69 too large)

.vector_70      0x000000009d001430        0x8
 *(.vector_70)
 .vector_70     0x000000009d001430        0x8 c:/program files/microchip/xc32/v4.40/bin/bin/../../lib/gcc/pic32mx/8.3.1/../../../../pic32mx/lib/micromips\libpic32.a(vector70.o)
                0x000000009d001431                __vector_dispatch_70
                0x0000000000000001                ASSERT (((_vector_spacing == 0x0) || (SIZEOF (.vector_70) <= (_vector_spacing << 0x3))), function at exception vector 70 too large)

.vector_71      0x000000009d001438        0x8
 *(.vector_71)
 .vector_71     0x000000009d001438        0x8 c:/program files/microchip/xc32/v4.40/bin/bin/../../lib/gcc/pic32mx/8.3.1/../../../../pic32mx/lib/micromips\libpic32.a(vector71.o)
                0x000000009d001439                __vector_dispatch_71
                0x0000000000000001                ASSERT (((_vector_spacing == 0x0) || (SIZEOF (.vector_71) <= (_vector_spacing << 0x3))), function at exception vector 71 too large)

.vector_72      0x000000009d001440        0x8
 *(.vector_72)
 .vector_72     0x000000009d001440        0x8 c:/program files/microchip/xc32/v4.40/bin/bin/../../lib/gcc/pic32mx/8.3.1/../../../../pic32mx/lib/micromips\libpic32.a(vector72.o)
                0x000000009d001441                __vector_dispatch_72
                0x0000000000000001                ASSERT (((_vector_spacing == 0x0) || (SIZEOF (.vector_72) <= (_vector_spacing << 0x3))), function at exception vector 72 too large)

.vector_73      0x000000009d001448        0x8
 *(.vector_73)
 .vector_73     0x000000009d001448        0x8 c:/program files/microchip/xc32/v4.40/bin/bin/../../lib/gcc/pic32mx/8.3.1/../../../../pic32mx/lib/micromips\libpic32.a(vector73.o)
                0x000000009d001449                __vector_dispatch_73
                0x0000000000000001                ASSERT (((_vector_spacing == 0x0) || (SIZEOF (.vector_73) <= (_vector_spacing << 0x3))), function at exception vector 73 too large)

.vector_74      0x000000009d001450        0x8
 *(.vector_74)
 .vector_74     0x000000009d001450        0x8 c:/program files/microchip/xc32/v4.40/bin/bin/../../lib/gcc/pic32mx/8.3.1/../../../../pic32mx/lib/micromips\libpic32.a(vector74.o)
                0x000000009d001451                __vector_dispatch_74
                0x0000000000000001                ASSERT (((_vector_spacing == 0x0) || (SIZEOF (.vector_74) <= (_vector_spacing << 0x3))), function at exception vector 74 too large)

.vector_75      0x000000009d001458        0x8
 *(.vector_75)
 .vector_75     0x000000009d001458        0x8 c:/program files/microchip/xc32/v4.40/bin/bin/../../lib/gcc/pic32mx/8.3.1/../../../../pic32mx/lib/micromips\libpic32.a(vector75.o)
                0x000000009d001459                __vector_dispatch_75
                0x0000000000000001                ASSERT (((_vector_spacing == 0x0) || (SIZEOF (.vector_75) <= (_vector_spacing << 0x3))), function at exception vector 75 too large)

.vector_76      0x000000009d001460        0x8
 *(.vector_76)
 .vector_76     0x000000009d001460        0x8 c:/program files/microchip/xc32/v4.40/bin/bin/../../lib/gcc/pic32mx/8.3.1/../../../../pic32mx/lib/micromips\libpic32.a(vector76.o)
                0x000000009d001461                __vector_dispatch_76
                0x0000000000000001                ASSERT (((_vector_spacing == 0x0) || (SIZEOF (.vector_76) <= (_vector_spacing << 0x3))), function at exception vector 76 too large)

.vector_77      0x000000009d001468        0x8
 *(.vector_77)
 .vector_77     0x000000009d001468        0x8 c:/program files/microchip/xc32/v4.40/bin/bin/../../lib/gcc/pic32mx/8.3.1/../../../../pic32mx/lib/micromips\libpic32.a(vector77.o)
                0x000000009d001469                __vector_dispatch_77
                0x0000000000000001                ASSERT (((_vector_spacing == 0x0) || (SIZEOF (.vector_77) <= (_vector_spacing << 0x3))), function at exception vector 77 too large)

.vector_78      0x000000009d001470        0x8
 *(.vector_78)
 .vector_78     0x000000009d001470        0x8 c:/program files/microchip/xc32/v4.40/bin/bin/../../lib/gcc/pic32mx/8.3.1/../../../../pic32mx/lib/micromips\libpic32.a(vector78.o)
                0x000000009d001471                __vector_dispatch_78
                0x0000000000000001                ASSERT (((_vector_spacing == 0x0) || (SIZEOF (.vector_78) <= (_vector_spacing << 0x3))), function at exception vector 78 too large)

.vector_79      0x000000009d001478        0x8
 *(.vector_79)
 .vector_79     0x000000009d001478        0x8 c:/program files/microchip/xc32/v4.40/bin/bin/../../lib/gcc/pic32mx/8.3.1/../../../../pic32mx/lib/micromips\libpic32.a(vector79.o)
                0x000000009d001479                __vector_dispatch_79
                0x0000000000000001                ASSERT (((_vector_spacing == 0x0) || (SIZEOF (.vector_79) <= (_vector_spacing << 0x3))), function at exception vector 79 too large)

.vector_80      0x000000009d001480        0x8
 *(.vector_80)
 .vector_80     0x000000009d001480        0x8 c:/program files/microchip/xc32/v4.40/bin/bin/../../lib/gcc/pic32mx/8.3.1/../../../../pic32mx/lib/micromips\libpic32.a(vector80.o)
                0x000000009d001481                __vector_dispatch_80
                0x0000000000000001                ASSERT (((_vector_spacing == 0x0) || (SIZEOF (.vector_80) <= (_vector_spacing << 0x3))), function at exception vector 80 too large)

.vector_81      0x000000009d001488        0x8
 *(.vector_81)
 .vector_81     0x000000009d001488        0x8 c:/program files/microchip/xc32/v4.40/bin/bin/../../lib/gcc/pic32mx/8.3.1/../../../../pic32mx/lib/micromips\libpic32.a(vector81.o)
                0x000000009d001489                __vector_dispatch_81
                0x0000000000000001                ASSERT (((_vector_spacing == 0x0) || (SIZEOF (.vector_81) <= (_vector_spacing << 0x3))), function at exception vector 81 too large)

.vector_82      0x000000009d001490        0x8
 *(.vector_82)
 .vector_82     0x000000009d001490        0x8 c:/program files/microchip/xc32/v4.40/bin/bin/../../lib/gcc/pic32mx/8.3.1/../../../../pic32mx/lib/micromips\libpic32.a(vector82.o)
                0x000000009d001491                __vector_dispatch_82
                0x0000000000000001                ASSERT (((_vector_spacing == 0x0) || (SIZEOF (.vector_82) <= (_vector_spacing << 0x3))), function at exception vector 82 too large)

.vector_83      0x000000009d001498        0x8
 *(.vector_83)
 .vector_83     0x000000009d001498        0x8 c:/program files/microchip/xc32/v4.40/bin/bin/../../lib/gcc/pic32mx/8.3.1/../../../../pic32mx/lib/micromips\libpic32.a(vector83.o)
                0x000000009d001499                __vector_dispatch_83
                0x0000000000000001                ASSERT (((_vector_spacing == 0x0) || (SIZEOF (.vector_83) <= (_vector_spacing << 0x3))), function at exception vector 83 too large)

.vector_84      0x000000009d0014a0        0x8
 *(.vector_84)
 .vector_84     0x000000009d0014a0        0x8 c:/program files/microchip/xc32/v4.40/bin/bin/../../lib/gcc/pic32mx/8.3.1/../../../../pic32mx/lib/micromips\libpic32.a(vector84.o)
                0x000000009d0014a1                __vector_dispatch_84
                0x0000000000000001                ASSERT (((_vector_spacing == 0x0) || (SIZEOF (.vector_84) <= (_vector_spacing << 0x3))), function at exception vector 84 too large)

.vector_85      0x000000009d0014a8        0x8
 *(.vector_85)
 .vector_85     0x000000009d0014a8        0x8 c:/program files/microchip/xc32/v4.40/bin/bin/../../lib/gcc/pic32mx/8.3.1/../../../../pic32mx/lib/micromips\libpic32.a(vector85.o)
                0x000000009d0014a9                __vector_dispatch_85
                0x0000000000000001                ASSERT (((_vector_spacing == 0x0) || (SIZEOF (.vector_85) <= (_vector_spacing << 0x3))), function at exception vector 85 too large)

.vector_86      0x000000009d0014b0        0x8
 *(.vector_86)
 .vector_86     0x000000009d0014b0        0x8 c:/program files/microchip/xc32/v4.40/bin/bin/../../lib/gcc/pic32mx/8.3.1/../../../../pic32mx/lib/micromips\libpic32.a(vector86.o)
                0x000000009d0014b1                __vector_dispatch_86
                0x0000000000000001                ASSERT (((_vector_spacing == 0x0) || (SIZEOF (.vector_86) <= (_vector_spacing << 0x3))), function at exception vector 86 too large)

.vector_87      0x000000009d0014b8        0x8
 *(.vector_87)
 .vector_87     0x000000009d0014b8        0x8 c:/program files/microchip/xc32/v4.40/bin/bin/../../lib/gcc/pic32mx/8.3.1/../../../../pic32mx/lib/micromips\libpic32.a(vector87.o)
                0x000000009d0014b9                __vector_dispatch_87
                0x0000000000000001                ASSERT (((_vector_spacing == 0x0) || (SIZEOF (.vector_87) <= (_vector_spacing << 0x3))), function at exception vector 87 too large)

.vector_88      0x000000009d0014c0        0x8
 *(.vector_88)
 .vector_88     0x000000009d0014c0        0x8 c:/program files/microchip/xc32/v4.40/bin/bin/../../lib/gcc/pic32mx/8.3.1/../../../../pic32mx/lib/micromips\libpic32.a(vector88.o)
                0x000000009d0014c1                __vector_dispatch_88
                0x0000000000000001                ASSERT (((_vector_spacing == 0x0) || (SIZEOF (.vector_88) <= (_vector_spacing << 0x3))), function at exception vector 88 too large)

.vector_89      0x000000009d0014c8        0x8
 *(.vector_89)
 .vector_89     0x000000009d0014c8        0x8 c:/program files/microchip/xc32/v4.40/bin/bin/../../lib/gcc/pic32mx/8.3.1/../../../../pic32mx/lib/micromips\libpic32.a(vector89.o)
                0x000000009d0014c9                __vector_dispatch_89
                0x0000000000000001                ASSERT (((_vector_spacing == 0x0) || (SIZEOF (.vector_89) <= (_vector_spacing << 0x3))), function at exception vector 89 too large)

.vector_90      0x000000009d0014d0        0x8
 *(.vector_90)
 .vector_90     0x000000009d0014d0        0x8 c:/program files/microchip/xc32/v4.40/bin/bin/../../lib/gcc/pic32mx/8.3.1/../../../../pic32mx/lib/micromips\libpic32.a(vector90.o)
                0x000000009d0014d1                __vector_dispatch_90
                0x0000000000000001                ASSERT (((_vector_spacing == 0x0) || (SIZEOF (.vector_90) <= (_vector_spacing << 0x3))), function at exception vector 90 too large)

.vector_91      0x000000009d0014d8        0x8
 *(.vector_91)
 .vector_91     0x000000009d0014d8        0x8 c:/program files/microchip/xc32/v4.40/bin/bin/../../lib/gcc/pic32mx/8.3.1/../../../../pic32mx/lib/micromips\libpic32.a(vector91.o)
                0x000000009d0014d9                __vector_dispatch_91
                0x0000000000000001                ASSERT (((_vector_spacing == 0x0) || (SIZEOF (.vector_91) <= (_vector_spacing << 0x3))), function at exception vector 91 too large)

.vector_92      0x000000009d0014e0        0x8
 *(.vector_92)
 .vector_92     0x000000009d0014e0        0x8 c:/program files/microchip/xc32/v4.40/bin/bin/../../lib/gcc/pic32mx/8.3.1/../../../../pic32mx/lib/micromips\libpic32.a(vector92.o)
                0x000000009d0014e1                __vector_dispatch_92
                0x0000000000000001                ASSERT (((_vector_spacing == 0x0) || (SIZEOF (.vector_92) <= (_vector_spacing << 0x3))), function at exception vector 92 too large)

.vector_93      0x000000009d0014e8        0x8
 *(.vector_93)
 .vector_93     0x000000009d0014e8        0x8 c:/program files/microchip/xc32/v4.40/bin/bin/../../lib/gcc/pic32mx/8.3.1/../../../../pic32mx/lib/micromips\libpic32.a(vector93.o)
                0x000000009d0014e9                __vector_dispatch_93
                0x0000000000000001                ASSERT (((_vector_spacing == 0x0) || (SIZEOF (.vector_93) <= (_vector_spacing << 0x3))), function at exception vector 93 too large)

.vector_94      0x000000009d0014f0        0x8
 *(.vector_94)
 .vector_94     0x000000009d0014f0        0x8 c:/program files/microchip/xc32/v4.40/bin/bin/../../lib/gcc/pic32mx/8.3.1/../../../../pic32mx/lib/micromips\libpic32.a(vector94.o)
                0x000000009d0014f1                __vector_dispatch_94
                0x0000000000000001                ASSERT (((_vector_spacing == 0x0) || (SIZEOF (.vector_94) <= (_vector_spacing << 0x3))), function at exception vector 94 too large)

.vector_95      0x000000009d0014f8        0x8
 *(.vector_95)
 .vector_95     0x000000009d0014f8        0x8 c:/program files/microchip/xc32/v4.40/bin/bin/../../lib/gcc/pic32mx/8.3.1/../../../../pic32mx/lib/micromips\libpic32.a(vector95.o)
                0x000000009d0014f9                __vector_dispatch_95
                0x0000000000000001                ASSERT (((_vector_spacing == 0x0) || (SIZEOF (.vector_95) <= (_vector_spacing << 0x3))), function at exception vector 95 too large)

.vector_96      0x000000009d001500        0x8
 *(.vector_96)
 .vector_96     0x000000009d001500        0x8 c:/program files/microchip/xc32/v4.40/bin/bin/../../lib/gcc/pic32mx/8.3.1/../../../../pic32mx/lib/micromips\libpic32.a(vector96.o)
                0x000000009d001501                __vector_dispatch_96
                0x0000000000000001                ASSERT (((_vector_spacing == 0x0) || (SIZEOF (.vector_96) <= (_vector_spacing << 0x3))), function at exception vector 96 too large)

.vector_97      0x000000009d001508        0x8
 *(.vector_97)
 .vector_97     0x000000009d001508        0x8 c:/program files/microchip/xc32/v4.40/bin/bin/../../lib/gcc/pic32mx/8.3.1/../../../../pic32mx/lib/micromips\libpic32.a(vector97.o)
                0x000000009d001509                __vector_dispatch_97
                0x0000000000000001                ASSERT (((_vector_spacing == 0x0) || (SIZEOF (.vector_97) <= (_vector_spacing << 0x3))), function at exception vector 97 too large)

.vector_98      0x000000009d001510        0x8
 *(.vector_98)
 .vector_98     0x000000009d001510        0x8 c:/program files/microchip/xc32/v4.40/bin/bin/../../lib/gcc/pic32mx/8.3.1/../../../../pic32mx/lib/micromips\libpic32.a(vector98.o)
                0x000000009d001511                __vector_dispatch_98
                0x0000000000000001                ASSERT (((_vector_spacing == 0x0) || (SIZEOF (.vector_98) <= (_vector_spacing << 0x3))), function at exception vector 98 too large)

.vector_99      0x000000009d001518        0x8
 *(.vector_99)
 .vector_99     0x000000009d001518        0x8 c:/program files/microchip/xc32/v4.40/bin/bin/../../lib/gcc/pic32mx/8.3.1/../../../../pic32mx/lib/micromips\libpic32.a(vector99.o)
                0x000000009d001519                __vector_dispatch_99
                0x0000000000000001                ASSERT (((_vector_spacing == 0x0) || (SIZEOF (.vector_99) <= (_vector_spacing << 0x3))), function at exception vector 99 too large)

.vector_100     0x000000009d001520        0x8
 *(.vector_100)
 .vector_100    0x000000009d001520        0x8 c:/program files/microchip/xc32/v4.40/bin/bin/../../lib/gcc/pic32mx/8.3.1/../../../../pic32mx/lib/micromips\libpic32.a(vector100.o)
                0x000000009d001521                __vector_dispatch_100
                0x0000000000000001                ASSERT (((_vector_spacing == 0x0) || (SIZEOF (.vector_100) <= (_vector_spacing << 0x3))), function at exception vector 100 too large)

.vector_101     0x000000009d001528        0x8
 *(.vector_101)
 .vector_101    0x000000009d001528        0x8 c:/program files/microchip/xc32/v4.40/bin/bin/../../lib/gcc/pic32mx/8.3.1/../../../../pic32mx/lib/micromips\libpic32.a(vector101.o)
                0x000000009d001529                __vector_dispatch_101
                0x0000000000000001                ASSERT (((_vector_spacing == 0x0) || (SIZEOF (.vector_101) <= (_vector_spacing << 0x3))), function at exception vector 101 too large)

.startup
 *(.startup)

.text           0x000000009d001530        0x0
 *(.stub .gnu.linkonce.t.*)
 *(.text.*personality*)
 *(.mips16.fn.*)
 *(.mips16.call.*)
 *(.gnu.warning)
                0x000000009d001530                . = ALIGN (0x4)

.init           0x000000009d001530        0x0
 *crti.o(.init)
 *crtbegin.o(.init)
 *(EXCLUDE_FILE(*crtn.o *crtend?.o *crtend.o) .init)
 *crtend.o(.init)
 *crtn.o(.init)
                0x000000009d001530                . = ALIGN (0x4)

.fini           0x000000009d001530        0x0
 *(.fini)
                0x000000009d001530                . = ALIGN (0x4)

.preinit_array  0x000000009d001530        0x0
                [!provide]                        PROVIDE (__preinit_array_start = .)
 *(.preinit_array)
                [!provide]                        PROVIDE (__preinit_array_end = .)
                0x000000009d001530                . = ALIGN (0x4)

.init_array     0x000000009d001530        0x0
                [!provide]                        PROVIDE (__init_array_start = .)
 *(SORT_BY_NAME(.init_array.*))
 *(.init_array)
                [!provide]                        PROVIDE (__init_array_end = .)
                0x000000009d001530                . = ALIGN (0x4)

.fini_array     0x000000009d001530        0x0
                [!provide]                        PROVIDE (__fini_array_start = .)
 *(SORT_BY_NAME(.fini_array.*))
 *(.fini_array)
                [!provide]                        PROVIDE (__fini_array_end = .)
                0x000000009d001530                . = ALIGN (0x4)

.ctors          0x000000009d001530        0x0
 *crtbegin.o(.ctors)
 *crtbegin?.o(.ctors)
 *(EXCLUDE_FILE(*crtend?.o *crtend.o) .ctors)
 *(SORT_BY_NAME(.ctors.*))
 *(.ctors)
                0x000000009d001530                . = ALIGN (0x4)

.dtors          0x000000009d001530        0x0
 *crtbegin.o(.dtors)
 *crtbegin?.o(.dtors)
 *(EXCLUDE_FILE(*crtend?.o *crtend.o) .dtors)
 *(SORT_BY_NAME(.dtors.*))
 *(.dtors)
                0x000000009d001530                . = ALIGN (0x4)

.rodata         0x000000009d001530        0x0
 *(.gnu.linkonce.r.*)
 *(.rodata1)
                0x000000009d001530                . = ALIGN (0x4)

.sdata2         0x000000009d001530        0x0
 *(.sdata2 .sdata2.* .gnu.linkonce.s2.*)
                0x000000009d001530                . = ALIGN (0x4)

.sbss2          0x000000009d001530        0x0
 *(.sbss2 .sbss2.* .gnu.linkonce.sb2.*)
                0x000000009d001530                . = ALIGN (0x4)

.eh_frame_hdr
 *(.eh_frame_hdr)
                0x000000009d001530                . = ALIGN (0x4)

.eh_frame
 *(.eh_frame)
                0x000000009d001530                . = ALIGN (0x4)

.gcc_except_table
 *(.gcc_except_table .gcc_except_table.*)
                0x000000009d001530                . = ALIGN (0x4)

.dbg_data       0x0000000080000000        0x0
                0x0000000080000000                . = (. + DEFINED (_DEBUGGER)?0x200:0x0)

.jcr            0x0000000080000000        0x0
 *(.jcr)
                0x0000000080000000                . = ALIGN (0x4)

.eh_frame
 *(.eh_frame)
                0x0000000080000000                . = ALIGN (0x4)

.gcc_except_table
 *(.gcc_except_table .gcc_except_table.*)
                0x0000000080000000                . = ALIGN (0x4)

.persist        0x0000000080000000        0x0
                0x0000000080000000                _persist_begin = .
 *(.persist .persist.*)
 *(.pbss .pbss.*)
                0x0000000080000000                . = ALIGN (0x4)
                0x0000000080000000                _persist_end = .

.data           0x0000000080000000        0x0
 *(.gnu.linkonce.d.*)
 *(.data1)
                0x0000000080000000                . = ALIGN (0x4)
                0x0000000080000000                . = .
                0x0000000080007ff0                _gp = (ALIGN (0x10) + 0x7ff0)

.got            0x0000000080000000        0x0
 *(.got.plt)
 *(.got)
                0x0000000080000000                . = ALIGN (0x4)

.sdata          0x0000000080000000       0x10
                0x0000000080000000                _sdata_begin = .
 *(.sdata .sdata.* .gnu.linkonce.s.*)
 .sdata.compare.9555
                0x0000000080000000        0x4 build/default/debug/mcc_generated_files/coretimer.o
 .sdata.__sem_debug
                0x0000000080000004        0x1 build/default/debug/_ext/1124510853/Debug.o
                0x0000000080000004                __sem_debug
 *fill*         0x0000000080000005        0x3 
 .sdata.softWdtCountMax
                0x0000000080000008        0x4 build/default/debug/_ext/657024065/softWdt.o
                0x0000000080000008                softWdtCountMax
 .sdata.WdtLed  0x000000008000000c        0x4 build/default/debug/_ext/657024065/softWdt.o
                0x0000000080000010                . = ALIGN (0x4)
                0x0000000080000010                _sdata_end = .

.lit8
 *(.lit8)

.lit4
 *(.lit4)
                0x0000000080000010                . = ALIGN (0x4)
                0x0000000080000010                _data_end = .
                0x0000000080000010                _bss_begin = .

.sbss           0x0000000080000010      0x110
                0x0000000080000010                _sbss_begin = .
 *(.dynsbss)
 *(.sbss .sbss.* .gnu.linkonce.sb.*)
 .sbss.CtrlTrfData
                0x0000000080000010        0x8 build/default/debug/mcc_generated_files/usb/usb_device.o
                0x0000000080000010                CtrlTrfData
 .sbss.SetupPkt
                0x0000000080000018        0x8 build/default/debug/mcc_generated_files/usb/usb_device.o
                0x0000000080000018                SetupPkt
 .sbss.USBTicksSinceSuspendEnd
                0x0000000080000020        0x1 build/default/debug/mcc_generated_files/usb/usb_device.o
                0x0000000080000020                USBTicksSinceSuspendEnd
 *fill*         0x0000000080000021        0x3 
 .sbss.USB1msTickCount
                0x0000000080000024        0x4 build/default/debug/mcc_generated_files/usb/usb_device.o
                0x0000000080000024                USB1msTickCount
 .sbss.USBDeferOUTDataStagePackets
                0x0000000080000028        0x1 build/default/debug/mcc_generated_files/usb/usb_device.o
                0x0000000080000028                USBDeferOUTDataStagePackets
 .sbss.USBDeferINDataStagePackets
                0x0000000080000029        0x1 build/default/debug/mcc_generated_files/usb/usb_device.o
                0x0000000080000029                USBDeferINDataStagePackets
 .sbss.USBStatusStageEnabledFlag2
                0x000000008000002a        0x1 build/default/debug/mcc_generated_files/usb/usb_device.o
                0x000000008000002a                USBStatusStageEnabledFlag2
 .sbss.USBStatusStageEnabledFlag1
                0x000000008000002b        0x1 build/default/debug/mcc_generated_files/usb/usb_device.o
                0x000000008000002b                USBStatusStageEnabledFlag1
 .sbss.USBDeferStatusStagePacket
                0x000000008000002c        0x1 build/default/debug/mcc_generated_files/usb/usb_device.o
                0x000000008000002c                USBDeferStatusStagePacket
 .sbss.USBStatusStageTimeoutCounter
                0x000000008000002d        0x1 build/default/debug/mcc_generated_files/usb/usb_device.o
                0x000000008000002d                USBStatusStageTimeoutCounter
 *fill*         0x000000008000002e        0x2 
 .sbss.ep_data_out
                0x0000000080000030        0x3 build/default/debug/mcc_generated_files/usb/usb_device.o
                0x0000000080000030                ep_data_out
 *fill*         0x0000000080000033        0x1 
 .sbss.ep_data_in
                0x0000000080000034        0x3 build/default/debug/mcc_generated_files/usb/usb_device.o
                0x0000000080000034                ep_data_in
 .sbss.BothEP0OutUOWNsSet
                0x0000000080000037        0x1 build/default/debug/mcc_generated_files/usb/usb_device.o
                0x0000000080000037                BothEP0OutUOWNsSet
 .sbss.endpoint_number
                0x0000000080000038        0x1 build/default/debug/mcc_generated_files/usb/usb_device.o
                0x0000000080000038                endpoint_number
 *fill*         0x0000000080000039        0x3 
 .sbss.USTATcopy
                0x000000008000003c        0x1 build/default/debug/mcc_generated_files/usb/usb_device.o
                0x000000008000003c                USTATcopy
 .sbss.USBBusIsSuspended
                0x000000008000003d        0x1 build/default/debug/mcc_generated_files/usb/usb_device.o
                0x000000008000003d                USBBusIsSuspended
 .sbss.RemoteWakeup
                0x000000008000003e        0x1 build/default/debug/mcc_generated_files/usb/usb_device.o
                0x000000008000003e                RemoteWakeup
 *fill*         0x000000008000003f        0x1 
 .sbss.pDst     0x0000000080000040        0x4 build/default/debug/mcc_generated_files/usb/usb_device.o
                0x0000000080000040                pDst
 .sbss.controlTransferState
                0x0000000080000044        0x1 build/default/debug/mcc_generated_files/usb/usb_device.o
                0x0000000080000044                controlTransferState
 .sbss.shortPacketStatus
                0x0000000080000045        0x1 build/default/debug/mcc_generated_files/usb/usb_device.o
                0x0000000080000045                shortPacketStatus
 *fill*         0x0000000080000046        0x2 
 .sbss.pBDTEntryEP0OutNext
                0x0000000080000048        0x4 build/default/debug/mcc_generated_files/usb/usb_device.o
                0x0000000080000048                pBDTEntryEP0OutNext
 .sbss.pBDTEntryEP0OutCurrent
                0x000000008000004c        0x4 build/default/debug/mcc_generated_files/usb/usb_device.o
                0x000000008000004c                pBDTEntryEP0OutCurrent
 .sbss.USBAlternateInterface
                0x0000000080000050        0x2 build/default/debug/mcc_generated_files/usb/usb_device.o
                0x0000000080000050                USBAlternateInterface
 .sbss.USBActiveConfiguration
                0x0000000080000052        0x1 build/default/debug/mcc_generated_files/usb/usb_device.o
                0x0000000080000052                USBActiveConfiguration
 *fill*         0x0000000080000053        0x1 
 .sbss.USBDeviceState
                0x0000000080000054        0x4 build/default/debug/mcc_generated_files/usb/usb_device.o
                0x0000000080000054                USBDeviceState
 .sbss.USB_CDC_LineCodingHandler
                0x0000000080000058        0x4 build/default/debug/mcc_generated_files/usb/usb_device_cdc.o
 .sbss.CTSPin_Handler
                0x000000008000005c        0x4 build/default/debug/mcc_generated_files/usb/usb_device_cdc.o
 .sbss.DTRPin_Handler
                0x0000000080000060        0x4 build/default/debug/mcc_generated_files/usb/usb_device_cdc.o
 .sbss.dummy_encapsulated_cmd_response
                0x0000000080000064        0x8 build/default/debug/mcc_generated_files/usb/usb_device_cdc.o
                0x0000000080000064                dummy_encapsulated_cmd_response
 .sbss.control_signal_bitmap
                0x000000008000006c        0x4 build/default/debug/mcc_generated_files/usb/usb_device_cdc.o
                0x000000008000006c                control_signal_bitmap
 .sbss.CDCDataInHandle
                0x0000000080000070        0x4 build/default/debug/mcc_generated_files/usb/usb_device_cdc.o
                0x0000000080000070                CDCDataInHandle
 .sbss.CDCDataOutHandle
                0x0000000080000074        0x4 build/default/debug/mcc_generated_files/usb/usb_device_cdc.o
                0x0000000080000074                CDCDataOutHandle
 .sbss.cdc_mem_type
                0x0000000080000078        0x1 build/default/debug/mcc_generated_files/usb/usb_device_cdc.o
                0x0000000080000078                cdc_mem_type
 *fill*         0x0000000080000079        0x3 
 .sbss.cdc_tx_len
                0x000000008000007c        0x1 build/default/debug/mcc_generated_files/usb/usb_device_cdc.o
                0x000000008000007c                cdc_tx_len
 *fill*         0x000000008000007d        0x3 
 .sbss.pCDCDst  0x0000000080000080        0x4 build/default/debug/mcc_generated_files/usb/usb_device_cdc.o
                0x0000000080000080                pCDCDst
 .sbss.pCDCSrc  0x0000000080000084        0x4 build/default/debug/mcc_generated_files/usb/usb_device_cdc.o
                0x0000000080000084                pCDCSrc
 .sbss.cdc_trf_state
                0x0000000080000088        0x1 build/default/debug/mcc_generated_files/usb/usb_device_cdc.o
                0x0000000080000088                cdc_trf_state
 *fill*         0x0000000080000089        0x3 
 .sbss.cdc_rx_len
                0x000000008000008c        0x1 build/default/debug/mcc_generated_files/usb/usb_device_cdc.o
                0x000000008000008c                cdc_rx_len
 *fill*         0x000000008000008d        0x3 
 .sbss.line_coding
                0x0000000080000090        0x8 build/default/debug/mcc_generated_files/usb/usb_device_cdc.o
                0x0000000080000090                line_coding
 .sbss.UART3_RxDefaultInterruptHandler
                0x0000000080000098        0x4 build/default/debug/mcc_generated_files/uart3.o
                0x0000000080000098                UART3_RxDefaultInterruptHandler
 .sbss.UART3_TxDefaultInterruptHandler
                0x000000008000009c        0x4 build/default/debug/mcc_generated_files/uart3.o
                0x000000008000009c                UART3_TxDefaultInterruptHandler
 .sbss.rxOverflowed
                0x00000000800000a0        0x1 build/default/debug/mcc_generated_files/uart3.o
 *fill*         0x00000000800000a1        0x3 
 .sbss.txHead   0x00000000800000a4        0x4 build/default/debug/mcc_generated_files/uart3.o
 .sbss.txTail   0x00000000800000a8        0x4 build/default/debug/mcc_generated_files/uart3.o
 .sbss.rxHead   0x00000000800000ac        0x4 build/default/debug/mcc_generated_files/uart3.o
 .sbss.rxTail   0x00000000800000b0        0x4 build/default/debug/mcc_generated_files/uart3.o
 .sbss.CORETIMER_DefaultInterruptHandler
                0x00000000800000b4        0x4 build/default/debug/mcc_generated_files/coretimer.o
                0x00000000800000b4                CORETIMER_DefaultInterruptHandler
 .sbss._excep_code
                0x00000000800000b8        0x4 build/default/debug/mcc_generated_files/exceptions.o
 .sbss.UNO_INT0_InterruptHandler
                0x00000000800000bc        0x4 build/default/debug/mcc_generated_files/pin_manager.o
                0x00000000800000bc                UNO_INT0_InterruptHandler
 .sbss.ACC_INT2_InterruptHandler
                0x00000000800000c0        0x4 build/default/debug/mcc_generated_files/pin_manager.o
                0x00000000800000c0                ACC_INT2_InterruptHandler
 .sbss.UNO_INT1_InterruptHandler
                0x00000000800000c4        0x4 build/default/debug/mcc_generated_files/pin_manager.o
                0x00000000800000c4                UNO_INT1_InterruptHandler
 .sbss.TEMP_INT_InterruptHandler
                0x00000000800000c8        0x4 build/default/debug/mcc_generated_files/pin_manager.o
                0x00000000800000c8                TEMP_INT_InterruptHandler
 .sbss.ACC_INT1_InterruptHandler
                0x00000000800000cc        0x4 build/default/debug/mcc_generated_files/pin_manager.o
                0x00000000800000cc                ACC_INT1_InterruptHandler
 .sbss.LIGHT_INT_InterruptHandler
                0x00000000800000d0        0x4 build/default/debug/mcc_generated_files/pin_manager.o
                0x00000000800000d0                LIGHT_INT_InterruptHandler
 .sbss.i2c1_driver_Slavei2cISR
                0x00000000800000d4        0x4 build/default/debug/mcc_generated_files/i2c1_driver.o
                0x00000000800000d4                i2c1_driver_Slavei2cISR
 .sbss.i2c1_driver_Masteri2cISR
                0x00000000800000d8        0x4 build/default/debug/mcc_generated_files/i2c1_driver.o
                0x00000000800000d8                i2c1_driver_Masteri2cISR
 .sbss.i2c1_driver_busCollisionISR
                0x00000000800000dc        0x4 build/default/debug/mcc_generated_files/i2c1_driver.o
                0x00000000800000dc                i2c1_driver_busCollisionISR
 .sbss.UART2_RxDefaultInterruptHandler
                0x00000000800000e0        0x4 build/default/debug/mcc_generated_files/uart2.o
                0x00000000800000e0                UART2_RxDefaultInterruptHandler
 .sbss.UART2_TxDefaultInterruptHandler
                0x00000000800000e4        0x4 build/default/debug/mcc_generated_files/uart2.o
                0x00000000800000e4                UART2_TxDefaultInterruptHandler
 .sbss.rxOverflowed
                0x00000000800000e8        0x1 build/default/debug/mcc_generated_files/uart2.o
 *fill*         0x00000000800000e9        0x3 
 .sbss.txHead   0x00000000800000ec        0x4 build/default/debug/mcc_generated_files/uart2.o
 .sbss.txTail   0x00000000800000f0        0x4 build/default/debug/mcc_generated_files/uart2.o
 .sbss.rxHead   0x00000000800000f4        0x4 build/default/debug/mcc_generated_files/uart2.o
 .sbss.rxTail   0x00000000800000f8        0x4 build/default/debug/mcc_generated_files/uart2.o
 .sbss._idx     0x00000000800000fc        0x1 build/default/debug/_ext/1124510853/Debug.o
 .sbss._i       0x00000000800000fd        0x1 build/default/debug/_ext/1124510853/Debug.o
 *fill*         0x00000000800000fe        0x2 
 .sbss.softWdtCount
                0x0000000080000100        0x4 build/default/debug/_ext/657024065/softWdt.o
                0x0000000080000100                softWdtCount
 .sbss.CbFnc    0x0000000080000104        0x4 build/default/debug/_ext/657024065/softWdt.o
 .sbss.TaskCount
                0x0000000080000108        0x1 build/default/debug/_ext/657024065/TaskManager.o
                0x0000000080000108                TaskCount
 *fill*         0x0000000080000109        0x3 
 .sbss.pCurrTask
                0x000000008000010c        0x4 build/default/debug/_ext/657024065/TaskManager.o
                0x000000008000010c                pCurrTask
 .sbss.CbFnc    0x0000000080000110        0x4 build/default/debug/_ext/657024065/TickTimer.o
 .sbss.DoNext.11733
                0x0000000080000114        0x1 build/default/debug/User/AppMain.o
 *fill*         0x0000000080000115        0x3 
 .sbss.RxLen    0x0000000080000118        0x4 build/default/debug/User/AppMain.o
                0x0000000080000118                RxLen
 .sbss.CdcPortIdx
                0x000000008000011c        0x1 build/default/debug/User/VCP_Debug.o
 *(.scommon)
                0x000000008000011d                _sbss_end = .
                0x0000000080000120                . = ALIGN (0x4)
 *fill*         0x000000008000011d        0x3 

.bss            0x0000000080000120        0x0
 *(.dynbss)
 *(COMMON)
                0x0000000080000120                . = ALIGN ((. != 0x0)?0x4:0x1)
                0x0000000080000120                . = ALIGN (0x4)
                0x0000000080000120                _end = .
                0x0000000080000120                _bss_end = .
                0x0000000000008000                _bmxdudba_address = LENGTH (kseg0_data_mem)
                0x0000000000008000                _bmxdupba_address = LENGTH (kseg0_data_mem)

/DISCARD/
 *(.pdr)
 *(.rel.dyn)
 *(.note.GNU-stack)
 *(.note.GNU-stack)
 *(.gnu_debuglink)
 *(.gnu.lto_*)
 *(.discard)
 *(._debug_exception)
 *(.config_*)

.gptab.sdata
 *(.gptab.data)
 *(.gptab.sdata)

.gptab.sbss
 *(.gptab.bss)
 *(.gptab.sbss)

.mdebug.abi32   0x0000000000000000        0x0
 *(.mdebug.abi32)
 .mdebug.abi32  0x0000000000000000        0x0 build/default/debug/Cfg/Debug_Cfg.o
 .mdebug.abi32  0x0000000000000000        0x0 build/default/debug/mcc_generated_files/drivers/i2c_types.o
 .mdebug.abi32  0x0000000000000000        0x0 build/default/debug/mcc_generated_files/drivers/i2c_master.o
 .mdebug.abi32  0x0000000000000000        0x0 build/default/debug/mcc_generated_files/drivers/i2c_simple_master.o
 .mdebug.abi32  0x0000000000000000        0x0 build/default/debug/mcc_generated_files/drivers/spi_master.o
 .mdebug.abi32  0x0000000000000000        0x0 build/default/debug/mcc_generated_files/memory/flash_demo.o
 .mdebug.abi32  0x0000000000000000        0x0 build/default/debug/mcc_generated_files/memory/flash.o
 .mdebug.abi32  0x0000000000000000        0x0 build/default/debug/flashfunc.o
 .mdebug.abi32  0x0000000000000000        0x0 build/default/debug/mcc_generated_files/usb/usb_device_generic.o
 .mdebug.abi32  0x0000000000000000        0x0 build/default/debug/mcc_generated_files/usb/usb_device_events.o
 .mdebug.abi32  0x0000000000000000        0x0 build/default/debug/mcc_generated_files/usb/usb_device.o
 .mdebug.abi32  0x0000000000000000        0x0 build/default/debug/mcc_generated_files/usb/usb_descriptors.o
 .mdebug.abi32  0x0000000000000000        0x0 build/default/debug/mcc_generated_files/usb/usb_device_cdc.o
 .mdebug.abi32  0x0000000000000000        0x0 build/default/debug/mcc_generated_files/uart3.o
 .mdebug.abi32  0x0000000000000000        0x0 build/default/debug/mcc_generated_files/system.o
 .mdebug.abi32  0x0000000000000000        0x0 build/default/debug/mcc_generated_files/coretimer.o
 .mdebug.abi32  0x0000000000000000        0x0 build/default/debug/mcc_generated_files/clock.o
 .mdebug.abi32  0x0000000000000000        0x0 build/default/debug/mcc_generated_files/exceptions.o
 .mdebug.abi32  0x0000000000000000        0x0 build/default/debug/mcc_generated_files/interrupt_manager.o
 .mdebug.abi32  0x0000000000000000        0x0 build/default/debug/mcc_generated_files/mcc.o
 .mdebug.abi32  0x0000000000000000        0x0 build/default/debug/mcc_generated_files/pin_manager.o
 .mdebug.abi32  0x0000000000000000        0x0 build/default/debug/mcc_generated_files/i2c1_driver.o
 .mdebug.abi32  0x0000000000000000        0x0 build/default/debug/mcc_generated_files/spi2_driver.o
 .mdebug.abi32  0x0000000000000000        0x0 build/default/debug/mcc_generated_files/uart2.o
 .mdebug.abi32  0x0000000000000000        0x0 build/default/debug/_ext/1209153551/Buttons.o
 .mdebug.abi32  0x0000000000000000        0x0 build/default/debug/_ext/1362353914/TelitAtCmd.o
 .mdebug.abi32  0x0000000000000000        0x0 build/default/debug/_ext/1362353914/TelitPwrCtrl.o
 .mdebug.abi32  0x0000000000000000        0x0 build/default/debug/_ext/1124510853/Debug.o
 .mdebug.abi32  0x0000000000000000        0x0 build/default/debug/_ext/1124510853/Utils.o
 .mdebug.abi32  0x0000000000000000        0x0 build/default/debug/_ext/657024065/PIC32MM_Gpio.o
 .mdebug.abi32  0x0000000000000000        0x0 build/default/debug/_ext/657024065/softWdt.o
 .mdebug.abi32  0x0000000000000000        0x0 build/default/debug/_ext/657024065/TaskManager.o
 .mdebug.abi32  0x0000000000000000        0x0 build/default/debug/_ext/657024065/TickTimer.o
 .mdebug.abi32  0x0000000000000000        0x0 build/default/debug/User/AppMain.o
 .mdebug.abi32  0x0000000000000000        0x0 build/default/debug/User/VCP.o
 .mdebug.abi32  0x0000000000000000        0x0 build/default/debug/User/VCP_Debug.o
 .mdebug.abi32  0x0000000000000000        0x0 build/default/debug/main.o
 .mdebug.abi32  0x0000000000000000        0x0 c:/program files/microchip/xc32/v4.40/bin/bin/../../lib/gcc/pic32mx/8.3.1/../../../../pic32mx/lib/micromips\libpic32.a(default-bootstrap-exception-handler.o)
 .mdebug.abi32  0x0000000000000000        0x0 c:/program files/microchip/xc32/v4.40/bin/bin/../../lib/gcc/pic32mx/8.3.1/../../../../pic32mx/lib/micromips\libpic32.a(default-on-reset.o)
 .mdebug.abi32  0x0000000000000000        0x0 c:/program files/microchip/xc32/v4.40/bin/bin/../../lib/gcc/pic32mx/8.3.1/../../../../pic32mx/lib/micromips\libpic32.a(default-on-bootstrap.o)
 .mdebug.abi32  0x0000000000000000        0x0 c:/program files/microchip/xc32/v4.40/bin/bin/../../lib/gcc/pic32mx/8.3.1/../../../../pic32mx/lib/micromips\libpic32.a(defaultinterrupt.o)
 .mdebug.abi32  0x0000000000000000        0x0 c:/program files/microchip/xc32/v4.40/bin/bin/../../lib/gcc/pic32mx/8.3.1/../../../../pic32mx/lib/micromips\libc-musl.a(rand.o)
 .mdebug.abi32  0x0000000000000000        0x0 c:/program files/microchip/xc32/v4.40/bin/bin/../../lib/gcc/pic32mx/8.3.1/../../../../pic32mx/lib/micromips\libc-musl.a(__sio_printf_cdnpsxX.o)
 .mdebug.abi32  0x0000000000000000        0x0 c:/program files/microchip/xc32/v4.40/bin/bin/../../lib/gcc/pic32mx/8.3.1/../../../../pic32mx/lib/micromips\libc-musl.a(__fmt_d.o)
 .mdebug.abi32  0x0000000000000000        0x0 c:/program files/microchip/xc32/v4.40/bin/bin/../../lib/gcc/pic32mx/8.3.1/../../../../pic32mx/lib/micromips\libc-musl.a(__fmt_s.o)
 .mdebug.abi32  0x0000000000000000        0x0 c:/program files/microchip/xc32/v4.40/bin/bin/../../lib/gcc/pic32mx/8.3.1/../../../../pic32mx/lib/micromips\libc-musl.a(__fmt_x.o)
 .mdebug.abi32  0x0000000000000000        0x0 c:/program files/microchip/xc32/v4.40/bin/bin/../../lib/gcc/pic32mx/8.3.1/../../../../pic32mx/lib/micromips\libc-musl.a(__pop_int.o)
 .mdebug.abi32  0x0000000000000000        0x0 c:/program files/microchip/xc32/v4.40/bin/bin/../../lib/gcc/pic32mx/8.3.1/../../../../pic32mx/lib/micromips\libc-musl.a(__pop_ptr.o)
 .mdebug.abi32  0x0000000000000000        0x0 c:/program files/microchip/xc32/v4.40/bin/bin/../../lib/gcc/pic32mx/8.3.1/../../../../pic32mx/lib/micromips\libc-musl.a(__printf_core.o)
 .mdebug.abi32  0x0000000000000000        0x0 c:/program files/microchip/xc32/v4.40/bin/bin/../../lib/gcc/pic32mx/8.3.1/../../../../pic32mx/lib/micromips\libc-musl.a(stdout.o)
 .mdebug.abi32  0x0000000000000000        0x0 c:/program files/microchip/xc32/v4.40/bin/bin/../../lib/gcc/pic32mx/8.3.1/../../../../pic32mx/lib/micromips\libc-musl.a(putchar.o)
 .mdebug.abi32  0x0000000000000000        0x0 c:/program files/microchip/xc32/v4.40/bin/bin/../../lib/gcc/pic32mx/8.3.1/../../../../pic32mx/lib/micromips\libc-musl.a(atoi.o)
 .mdebug.abi32  0x0000000000000000        0x0 c:/program files/microchip/xc32/v4.40/bin/bin/../../lib/gcc/pic32mx/8.3.1/../../../../pic32mx/lib/micromips\libc-musl.a(memcpy.o)
 .mdebug.abi32  0x0000000000000000        0x0 c:/program files/microchip/xc32/v4.40/bin/bin/../../lib/gcc/pic32mx/8.3.1/../../../../pic32mx/lib/micromips\libc-musl.a(tolower.o)
 .mdebug.abi32  0x0000000000000000        0x0 c:/program files/microchip/xc32/v4.40/bin/bin/../../lib/gcc/pic32mx/8.3.1/../../../../pic32mx/lib/micromips\libc-musl.a(toupper.o)
 .mdebug.abi32  0x0000000000000000        0x0 c:/program files/microchip/xc32/v4.40/bin/bin/../../lib/gcc/pic32mx/8.3.1/../../../../pic32mx/lib/micromips\libc-musl.a(__int_vfprintf.o)
 .mdebug.abi32  0x0000000000000000        0x0 c:/program files/microchip/xc32/v4.40/bin/bin/../../lib/gcc/pic32mx/8.3.1/../../../../pic32mx/lib/micromips\libc-musl.a(__cvt_u.o)
 .mdebug.abi32  0x0000000000000000        0x0 c:/program files/microchip/xc32/v4.40/bin/bin/../../lib/gcc/pic32mx/8.3.1/../../../../pic32mx/lib/micromips\libc-musl.a(__io_init_needed.o)
 .mdebug.abi32  0x0000000000000000        0x0 c:/program files/microchip/xc32/v4.40/bin/bin/../../lib/gcc/pic32mx/8.3.1/../../../../pic32mx/lib/micromips\libc-musl.a(__out.o)
 .mdebug.abi32  0x0000000000000000        0x0 c:/program files/microchip/xc32/v4.40/bin/bin/../../lib/gcc/pic32mx/8.3.1/../../../../pic32mx/lib/micromips\libc-musl.a(__pop_float.o)
 .mdebug.abi32  0x0000000000000000        0x0 c:/program files/microchip/xc32/v4.40/bin/bin/../../lib/gcc/pic32mx/8.3.1/../../../../pic32mx/lib/micromips\libc-musl.a(__stdio_close.o)
 .mdebug.abi32  0x0000000000000000        0x0 c:/program files/microchip/xc32/v4.40/bin/bin/../../lib/gcc/pic32mx/8.3.1/../../../../pic32mx/lib/micromips\libc-musl.a(putc.o)
 .mdebug.abi32  0x0000000000000000        0x0 c:/program files/microchip/xc32/v4.40/bin/bin/../../lib/gcc/pic32mx/8.3.1/../../../../pic32mx/lib/micromips\libc-musl.a(__init_stdio.o)
 .mdebug.abi32  0x0000000000000000        0x0 c:/program files/microchip/xc32/v4.40/bin/bin/../../lib/gcc/pic32mx/8.3.1/../../../../pic32mx/lib/micromips\libc-musl.a(__io_file_needed.o)
 .mdebug.abi32  0x0000000000000000        0x0 c:/program files/microchip/xc32/v4.40/bin/bin/../../lib/gcc/pic32mx/8.3.1/micromips\libgcc.a(_udivdi3.o)
 .mdebug.abi32  0x0000000000000000        0x0 c:/program files/microchip/xc32/v4.40/bin/bin/../../lib/gcc/pic32mx/8.3.1/micromips\libgcc.a(_umoddi3.o)
 .mdebug.abi32  0x0000000000000000        0x0 c:/program files/microchip/xc32/v4.40/bin/bin/../../lib/gcc/pic32mx/8.3.1/../../../../pic32mx/lib/micromips\libpic32.a(write.o)
 .mdebug.abi32  0x0000000000000000        0x0 c:/program files/microchip/xc32/v4.40/bin/bin/../../lib/gcc/pic32mx/8.3.1/../../../../pic32mx/lib/micromips\libpic32.a(lseek.o)
 .mdebug.abi32  0x0000000000000000        0x0 c:/program files/microchip/xc32/v4.40/bin/bin/../../lib/gcc/pic32mx/8.3.1/../../../../pic32mx/lib/micromips\libpic32.a(close.o)
 .mdebug.abi32  0x0000000000000000        0x0 c:/program files/microchip/xc32/v4.40/bin/bin/../../lib/gcc/pic32mx/8.3.1/../../../../pic32mx/lib/micromips\libpic32.a(errno.o)

.mdebug.abiN32
 *(.mdebug.abiN32)

.mdebug.abi64
 *(.mdebug.abi64)

.mdebug.abiO64
 *(.mdebug.abiO64)

.mdebug.eabi32
 *(.mdebug.eabi32)

.mdebug.eabi64
 *(.mdebug.eabi64)

.gcc_compiled_long32
 *(.gcc_compiled_long32)

.gcc_compiled_long64
 *(.gcc_compiled_long64)

.stab
 *(.stab)

.stabstr
 *(.stabstr)

.stab.excl
 *(.stab.excl)

.stab.exclstr
 *(.stab.exclstr)

.stab.index
 *(.stab.index)

.stab.indexstr
 *(.stab.indexstr)

.comment        0x0000000000000000       0x75
 *(.comment)
 .comment       0x0000000000000000       0x2b build/default/debug/Cfg/Debug_Cfg.o
                                         0x2c (size before relaxing)
 .comment       0x000000000000002b       0x2c build/default/debug/mcc_generated_files/drivers/i2c_types.o
 .comment       0x000000000000002b       0x2c build/default/debug/mcc_generated_files/drivers/i2c_master.o
 .comment       0x000000000000002b       0x2c build/default/debug/mcc_generated_files/drivers/i2c_simple_master.o
 .comment       0x000000000000002b       0x2c build/default/debug/mcc_generated_files/drivers/spi_master.o
 .comment       0x000000000000002b       0x2c build/default/debug/mcc_generated_files/memory/flash_demo.o
 .comment       0x000000000000002b       0x2c build/default/debug/mcc_generated_files/memory/flash.o
 .comment       0x000000000000002b       0x2c build/default/debug/flashfunc.o
 .comment       0x000000000000002b       0x2c build/default/debug/mcc_generated_files/usb/usb_device_generic.o
 .comment       0x000000000000002b       0x2c build/default/debug/mcc_generated_files/usb/usb_device_events.o
 .comment       0x000000000000002b       0x2c build/default/debug/mcc_generated_files/usb/usb_device.o
 .comment       0x000000000000002b       0x2c build/default/debug/mcc_generated_files/usb/usb_descriptors.o
 .comment       0x000000000000002b       0x2c build/default/debug/mcc_generated_files/usb/usb_device_cdc.o
 .comment       0x000000000000002b       0x2c build/default/debug/mcc_generated_files/uart3.o
 .comment       0x000000000000002b       0x2c build/default/debug/mcc_generated_files/system.o
 .comment       0x000000000000002b       0x2c build/default/debug/mcc_generated_files/coretimer.o
 .comment       0x000000000000002b       0x2c build/default/debug/mcc_generated_files/clock.o
 .comment       0x000000000000002b       0x2c build/default/debug/mcc_generated_files/exceptions.o
 .comment       0x000000000000002b       0x2c build/default/debug/mcc_generated_files/interrupt_manager.o
 .comment       0x000000000000002b       0x2c build/default/debug/mcc_generated_files/mcc.o
 .comment       0x000000000000002b       0x2c build/default/debug/mcc_generated_files/pin_manager.o
 .comment       0x000000000000002b       0x2c build/default/debug/mcc_generated_files/i2c1_driver.o
 .comment       0x000000000000002b       0x2c build/default/debug/mcc_generated_files/spi2_driver.o
 .comment       0x000000000000002b       0x2c build/default/debug/mcc_generated_files/uart2.o
 .comment       0x000000000000002b       0x2c build/default/debug/_ext/1209153551/Buttons.o
 .comment       0x000000000000002b       0x2c build/default/debug/_ext/1362353914/TelitAtCmd.o
 .comment       0x000000000000002b       0x2c build/default/debug/_ext/1362353914/TelitPwrCtrl.o
 .comment       0x000000000000002b       0x2c build/default/debug/_ext/1124510853/Debug.o
 .comment       0x000000000000002b       0x2c build/default/debug/_ext/1124510853/Utils.o
 .comment       0x000000000000002b       0x2c build/default/debug/_ext/657024065/PIC32MM_Gpio.o
 .comment       0x000000000000002b       0x2c build/default/debug/_ext/657024065/softWdt.o
 .comment       0x000000000000002b       0x2c build/default/debug/_ext/657024065/TaskManager.o
 .comment       0x000000000000002b       0x2c build/default/debug/_ext/657024065/TickTimer.o
 .comment       0x000000000000002b       0x2c build/default/debug/User/AppMain.o
 .comment       0x000000000000002b       0x2c build/default/debug/User/VCP.o
 .comment       0x000000000000002b       0x2c build/default/debug/User/VCP_Debug.o
 .comment       0x000000000000002b       0x2c build/default/debug/main.o
 .comment       0x000000000000002b       0x18 c:/program files/microchip/xc32/v4.40/bin/bin/../../lib/gcc/pic32mx/8.3.1/../../../../pic32mx/lib/micromips\libpic32.a(memset.o)
                                         0x19 (size before relaxing)
 .comment       0x0000000000000043       0x19 c:/program files/microchip/xc32/v4.40/bin/bin/../../lib/gcc/pic32mx/8.3.1/../../../../pic32mx/lib/micromips\libpic32.a(strcpy.o)
                                         0x1a (size before relaxing)
 .comment       0x000000000000005c       0x19 c:/program files/microchip/xc32/v4.40/bin/bin/../../lib/gcc/pic32mx/8.3.1/../../../../pic32mx/lib/micromips\libpic32.a(strlen.o)
                                         0x1a (size before relaxing)
 .comment       0x0000000000000075       0x2c c:/program files/microchip/xc32/v4.40/bin/bin/../../lib/gcc/pic32mx/8.3.1/../../../../pic32mx/lib/micromips\libpic32.a(default-bootstrap-exception-handler.o)
 .comment       0x0000000000000075       0x2c c:/program files/microchip/xc32/v4.40/bin/bin/../../lib/gcc/pic32mx/8.3.1/../../../../pic32mx/lib/micromips\libpic32.a(default-on-reset.o)
 .comment       0x0000000000000075       0x2c c:/program files/microchip/xc32/v4.40/bin/bin/../../lib/gcc/pic32mx/8.3.1/../../../../pic32mx/lib/micromips\libpic32.a(default-on-bootstrap.o)
 .comment       0x0000000000000075       0x2c c:/program files/microchip/xc32/v4.40/bin/bin/../../lib/gcc/pic32mx/8.3.1/../../../../pic32mx/lib/micromips\libpic32.a(defaultinterrupt.o)
 .comment       0x0000000000000075       0x2c c:/program files/microchip/xc32/v4.40/bin/bin/../../lib/gcc/pic32mx/8.3.1/../../../../pic32mx/lib/micromips\libc-musl.a(rand.o)
 .comment       0x0000000000000075       0x2c c:/program files/microchip/xc32/v4.40/bin/bin/../../lib/gcc/pic32mx/8.3.1/../../../../pic32mx/lib/micromips\libc-musl.a(__sio_printf_cdnpsxX.o)
 .comment       0x0000000000000075       0x2c c:/program files/microchip/xc32/v4.40/bin/bin/../../lib/gcc/pic32mx/8.3.1/../../../../pic32mx/lib/micromips\libc-musl.a(__fmt_d.o)
 .comment       0x0000000000000075       0x2c c:/program files/microchip/xc32/v4.40/bin/bin/../../lib/gcc/pic32mx/8.3.1/../../../../pic32mx/lib/micromips\libc-musl.a(__fmt_s.o)
 .comment       0x0000000000000075       0x2c c:/program files/microchip/xc32/v4.40/bin/bin/../../lib/gcc/pic32mx/8.3.1/../../../../pic32mx/lib/micromips\libc-musl.a(__fmt_x.o)
 .comment       0x0000000000000075       0x2c c:/program files/microchip/xc32/v4.40/bin/bin/../../lib/gcc/pic32mx/8.3.1/../../../../pic32mx/lib/micromips\libc-musl.a(__pop_int.o)
 .comment       0x0000000000000075       0x2c c:/program files/microchip/xc32/v4.40/bin/bin/../../lib/gcc/pic32mx/8.3.1/../../../../pic32mx/lib/micromips\libc-musl.a(__pop_ptr.o)
 .comment       0x0000000000000075       0x2c c:/program files/microchip/xc32/v4.40/bin/bin/../../lib/gcc/pic32mx/8.3.1/../../../../pic32mx/lib/micromips\libc-musl.a(__printf_core.o)
 .comment       0x0000000000000075       0x2c c:/program files/microchip/xc32/v4.40/bin/bin/../../lib/gcc/pic32mx/8.3.1/../../../../pic32mx/lib/micromips\libc-musl.a(stdout.o)
 .comment       0x0000000000000075       0x2c c:/program files/microchip/xc32/v4.40/bin/bin/../../lib/gcc/pic32mx/8.3.1/../../../../pic32mx/lib/micromips\libc-musl.a(putchar.o)
 .comment       0x0000000000000075       0x2c c:/program files/microchip/xc32/v4.40/bin/bin/../../lib/gcc/pic32mx/8.3.1/../../../../pic32mx/lib/micromips\libc-musl.a(atoi.o)
 .comment       0x0000000000000075       0x2c c:/program files/microchip/xc32/v4.40/bin/bin/../../lib/gcc/pic32mx/8.3.1/../../../../pic32mx/lib/micromips\libc-musl.a(memcpy.o)
 .comment       0x0000000000000075       0x2c c:/program files/microchip/xc32/v4.40/bin/bin/../../lib/gcc/pic32mx/8.3.1/../../../../pic32mx/lib/micromips\libc-musl.a(tolower.o)
 .comment       0x0000000000000075       0x2c c:/program files/microchip/xc32/v4.40/bin/bin/../../lib/gcc/pic32mx/8.3.1/../../../../pic32mx/lib/micromips\libc-musl.a(toupper.o)
 .comment       0x0000000000000075       0x2c c:/program files/microchip/xc32/v4.40/bin/bin/../../lib/gcc/pic32mx/8.3.1/../../../../pic32mx/lib/micromips\libc-musl.a(__int_vfprintf.o)
 .comment       0x0000000000000075       0x2c c:/program files/microchip/xc32/v4.40/bin/bin/../../lib/gcc/pic32mx/8.3.1/../../../../pic32mx/lib/micromips\libc-musl.a(__cvt_u.o)
 .comment       0x0000000000000075       0x2c c:/program files/microchip/xc32/v4.40/bin/bin/../../lib/gcc/pic32mx/8.3.1/../../../../pic32mx/lib/micromips\libc-musl.a(__io_init_needed.o)
 .comment       0x0000000000000075       0x2c c:/program files/microchip/xc32/v4.40/bin/bin/../../lib/gcc/pic32mx/8.3.1/../../../../pic32mx/lib/micromips\libc-musl.a(__out.o)
 .comment       0x0000000000000075       0x2c c:/program files/microchip/xc32/v4.40/bin/bin/../../lib/gcc/pic32mx/8.3.1/../../../../pic32mx/lib/micromips\libc-musl.a(__pop_float.o)
 .comment       0x0000000000000075       0x2c c:/program files/microchip/xc32/v4.40/bin/bin/../../lib/gcc/pic32mx/8.3.1/../../../../pic32mx/lib/micromips\libc-musl.a(__stdio_close.o)
 .comment       0x0000000000000075       0x2c c:/program files/microchip/xc32/v4.40/bin/bin/../../lib/gcc/pic32mx/8.3.1/../../../../pic32mx/lib/micromips\libc-musl.a(putc.o)
 .comment       0x0000000000000075       0x2c c:/program files/microchip/xc32/v4.40/bin/bin/../../lib/gcc/pic32mx/8.3.1/../../../../pic32mx/lib/micromips\libc-musl.a(__init_stdio.o)
 .comment       0x0000000000000075       0x2c c:/program files/microchip/xc32/v4.40/bin/bin/../../lib/gcc/pic32mx/8.3.1/../../../../pic32mx/lib/micromips\libc-musl.a(__io_file_needed.o)
 .comment       0x0000000000000075       0x2c c:/program files/microchip/xc32/v4.40/bin/bin/../../lib/gcc/pic32mx/8.3.1/micromips\libgcc.a(_udivdi3.o)
 .comment       0x0000000000000075       0x2c c:/program files/microchip/xc32/v4.40/bin/bin/../../lib/gcc/pic32mx/8.3.1/micromips\libgcc.a(_umoddi3.o)
 .comment       0x0000000000000075       0x2c c:/program files/microchip/xc32/v4.40/bin/bin/../../lib/gcc/pic32mx/8.3.1/../../../../pic32mx/lib/micromips\libpic32.a(write.o)
 .comment       0x0000000000000075       0x2c c:/program files/microchip/xc32/v4.40/bin/bin/../../lib/gcc/pic32mx/8.3.1/../../../../pic32mx/lib/micromips\libpic32.a(lseek.o)
 .comment       0x0000000000000075       0x2c c:/program files/microchip/xc32/v4.40/bin/bin/../../lib/gcc/pic32mx/8.3.1/../../../../pic32mx/lib/micromips\libpic32.a(close.o)
 .comment       0x0000000000000075       0x2c c:/program files/microchip/xc32/v4.40/bin/bin/../../lib/gcc/pic32mx/8.3.1/../../../../pic32mx/lib/micromips\libpic32.a(errno.o)

.debug
 *.elf(.debug)
 *(.debug)

.line
 *.elf(.line)
 *(.line)

.debug_srcinfo
 *.elf(.debug_srcinfo)
 *(.debug_srcinfo)

.debug_sfnames
 *.elf(.debug_sfnames)
 *(.debug_sfnames)

.debug_aranges  0x0000000000000000     0x13d8
 *.elf(.debug_aranges)
 *(.debug_aranges)
 .debug_aranges
                0x0000000000000000       0x20 build/default/debug/Cfg/Debug_Cfg.o
 .debug_aranges
                0x0000000000000020       0x38 build/default/debug/mcc_generated_files/drivers/i2c_types.o
 .debug_aranges
                0x0000000000000058      0x128 build/default/debug/mcc_generated_files/drivers/i2c_master.o
 .debug_aranges
                0x0000000000000180       0x78 build/default/debug/mcc_generated_files/drivers/i2c_simple_master.o
 .debug_aranges
                0x00000000000001f8       0x40 build/default/debug/mcc_generated_files/drivers/spi_master.o
 .debug_aranges
                0x0000000000000238       0x20 build/default/debug/mcc_generated_files/memory/flash_demo.o
 .debug_aranges
                0x0000000000000258       0x68 build/default/debug/mcc_generated_files/memory/flash.o
 .debug_aranges
                0x00000000000002c0       0x78 build/default/debug/flashfunc.o
 .debug_aranges
                0x0000000000000338       0x18 build/default/debug/mcc_generated_files/usb/usb_device_generic.o
 .debug_aranges
                0x0000000000000350       0x28 build/default/debug/mcc_generated_files/usb/usb_device_events.o
 .debug_aranges
                0x0000000000000378       0x80 build/default/debug/mcc_generated_files/usb/usb_device.o
 .debug_aranges
                0x00000000000003f8       0x20 build/default/debug/mcc_generated_files/usb/usb_descriptors.o
 .debug_aranges
                0x0000000000000418       0x78 build/default/debug/mcc_generated_files/usb/usb_device_cdc.o
 .debug_aranges
                0x0000000000000490       0xe8 build/default/debug/mcc_generated_files/uart3.o
 .debug_aranges
                0x0000000000000578       0x20 build/default/debug/mcc_generated_files/system.o
 .debug_aranges
                0x0000000000000598       0x48 build/default/debug/mcc_generated_files/coretimer.o
 .debug_aranges
                0x00000000000005e0       0x20 build/default/debug/mcc_generated_files/clock.o
 .debug_aranges
                0x0000000000000600       0x20 build/default/debug/mcc_generated_files/exceptions.o
 .debug_aranges
                0x0000000000000620       0x20 build/default/debug/mcc_generated_files/interrupt_manager.o
 .debug_aranges
                0x0000000000000640       0xc8 build/default/debug/mcc_generated_files/pin_manager.o
 .debug_aranges
                0x0000000000000708      0x140 build/default/debug/mcc_generated_files/i2c1_driver.o
 .debug_aranges
                0x0000000000000848       0x60 build/default/debug/mcc_generated_files/spi2_driver.o
 .debug_aranges
                0x00000000000008a8       0xe8 build/default/debug/mcc_generated_files/uart2.o
 .debug_aranges
                0x0000000000000990       0x20 build/default/debug/_ext/1209153551/Buttons.o
 .debug_aranges
                0x00000000000009b0       0x58 build/default/debug/_ext/1362353914/TelitAtCmd.o
 .debug_aranges
                0x0000000000000a08       0x40 build/default/debug/_ext/1362353914/TelitPwrCtrl.o
 .debug_aranges
                0x0000000000000a48       0xa8 build/default/debug/_ext/1124510853/Debug.o
 .debug_aranges
                0x0000000000000af0      0x250 build/default/debug/_ext/1124510853/Utils.o
 .debug_aranges
                0x0000000000000d40       0x30 build/default/debug/_ext/657024065/PIC32MM_Gpio.o
 .debug_aranges
                0x0000000000000d70       0x50 build/default/debug/_ext/657024065/softWdt.o
 .debug_aranges
                0x0000000000000dc0       0x40 build/default/debug/_ext/657024065/TaskManager.o
 .debug_aranges
                0x0000000000000e00       0x30 build/default/debug/_ext/657024065/TickTimer.o
 .debug_aranges
                0x0000000000000e30       0x58 build/default/debug/User/AppMain.o
 .debug_aranges
                0x0000000000000e88       0x20 build/default/debug/User/VCP.o
 .debug_aranges
                0x0000000000000ea8       0x40 build/default/debug/User/VCP_Debug.o
 .debug_aranges
                0x0000000000000ee8       0x20 build/default/debug/main.o
 .debug_aranges
                0x0000000000000f08       0x40 C:\Users\ADMIN\AppData\Local\Temp\ccMUuKnQ.o
 .debug_aranges
                0x0000000000000f48       0x20 c:/program files/microchip/xc32/v4.40/bin/bin/../../lib/gcc/pic32mx/8.3.1/../../../../pic32mx/lib/micromips\libpic32.a(default-bootstrap-exception-handler.o)
 .debug_aranges
                0x0000000000000f68       0x20 c:/program files/microchip/xc32/v4.40/bin/bin/../../lib/gcc/pic32mx/8.3.1/../../../../pic32mx/lib/micromips\libpic32.a(default-on-reset.o)
 .debug_aranges
                0x0000000000000f88       0x20 c:/program files/microchip/xc32/v4.40/bin/bin/../../lib/gcc/pic32mx/8.3.1/../../../../pic32mx/lib/micromips\libpic32.a(default-on-bootstrap.o)
 .debug_aranges
                0x0000000000000fa8       0x20 c:/program files/microchip/xc32/v4.40/bin/bin/../../lib/gcc/pic32mx/8.3.1/../../../../pic32mx/lib/micromips\libpic32.a(defaultinterrupt.o)
 .debug_aranges
                0x0000000000000fc8       0x28 c:/program files/microchip/xc32/v4.40/bin/bin/../../lib/gcc/pic32mx/8.3.1/../../../../pic32mx/lib/micromips\libc-musl.a(rand.o)
 .debug_aranges
                0x0000000000000ff0       0x28 c:/program files/microchip/xc32/v4.40/bin/bin/../../lib/gcc/pic32mx/8.3.1/../../../../pic32mx/lib/micromips\libc-musl.a(__sio_printf_cdnpsxX.o)
 .debug_aranges
                0x0000000000001018       0x20 c:/program files/microchip/xc32/v4.40/bin/bin/../../lib/gcc/pic32mx/8.3.1/../../../../pic32mx/lib/micromips\libc-musl.a(__fmt_d.o)
 .debug_aranges
                0x0000000000001038       0x20 c:/program files/microchip/xc32/v4.40/bin/bin/../../lib/gcc/pic32mx/8.3.1/../../../../pic32mx/lib/micromips\libc-musl.a(__fmt_s.o)
 .debug_aranges
                0x0000000000001058       0x20 c:/program files/microchip/xc32/v4.40/bin/bin/../../lib/gcc/pic32mx/8.3.1/../../../../pic32mx/lib/micromips\libc-musl.a(__fmt_x.o)
 .debug_aranges
                0x0000000000001078       0x20 c:/program files/microchip/xc32/v4.40/bin/bin/../../lib/gcc/pic32mx/8.3.1/../../../../pic32mx/lib/micromips\libc-musl.a(__pop_int.o)
 .debug_aranges
                0x0000000000001098       0x20 c:/program files/microchip/xc32/v4.40/bin/bin/../../lib/gcc/pic32mx/8.3.1/../../../../pic32mx/lib/micromips\libc-musl.a(__pop_ptr.o)
 .debug_aranges
                0x00000000000010b8       0x50 c:/program files/microchip/xc32/v4.40/bin/bin/../../lib/gcc/pic32mx/8.3.1/../../../../pic32mx/lib/micromips\libc-musl.a(__printf_core.o)
 .debug_aranges
                0x0000000000001108       0x30 c:/program files/microchip/xc32/v4.40/bin/bin/../../lib/gcc/pic32mx/8.3.1/../../../../pic32mx/lib/micromips\libc-musl.a(stdout.o)
 .debug_aranges
                0x0000000000001138       0x20 c:/program files/microchip/xc32/v4.40/bin/bin/../../lib/gcc/pic32mx/8.3.1/../../../../pic32mx/lib/micromips\libc-musl.a(putchar.o)
 .debug_aranges
                0x0000000000001158       0x20 c:/program files/microchip/xc32/v4.40/bin/bin/../../lib/gcc/pic32mx/8.3.1/../../../../pic32mx/lib/micromips\libc-musl.a(atoi.o)
 .debug_aranges
                0x0000000000001178       0x20 c:/program files/microchip/xc32/v4.40/bin/bin/../../lib/gcc/pic32mx/8.3.1/../../../../pic32mx/lib/micromips\libc-musl.a(memcpy.o)
 .debug_aranges
                0x0000000000001198       0x28 c:/program files/microchip/xc32/v4.40/bin/bin/../../lib/gcc/pic32mx/8.3.1/../../../../pic32mx/lib/micromips\libc-musl.a(tolower.o)
 .debug_aranges
                0x00000000000011c0       0x28 c:/program files/microchip/xc32/v4.40/bin/bin/../../lib/gcc/pic32mx/8.3.1/../../../../pic32mx/lib/micromips\libc-musl.a(toupper.o)
 .debug_aranges
                0x00000000000011e8       0x20 c:/program files/microchip/xc32/v4.40/bin/bin/../../lib/gcc/pic32mx/8.3.1/../../../../pic32mx/lib/micromips\libc-musl.a(__int_vfprintf.o)
 .debug_aranges
                0x0000000000001208       0x20 c:/program files/microchip/xc32/v4.40/bin/bin/../../lib/gcc/pic32mx/8.3.1/../../../../pic32mx/lib/micromips\libc-musl.a(__cvt_u.o)
 .debug_aranges
                0x0000000000001228       0x28 c:/program files/microchip/xc32/v4.40/bin/bin/../../lib/gcc/pic32mx/8.3.1/../../../../pic32mx/lib/micromips\libc-musl.a(__io_init_needed.o)
 .debug_aranges
                0x0000000000001250       0x28 c:/program files/microchip/xc32/v4.40/bin/bin/../../lib/gcc/pic32mx/8.3.1/../../../../pic32mx/lib/micromips\libc-musl.a(__out.o)
 .debug_aranges
                0x0000000000001278       0x20 c:/program files/microchip/xc32/v4.40/bin/bin/../../lib/gcc/pic32mx/8.3.1/../../../../pic32mx/lib/micromips\libc-musl.a(__pop_float.o)
 .debug_aranges
                0x0000000000001298       0x28 c:/program files/microchip/xc32/v4.40/bin/bin/../../lib/gcc/pic32mx/8.3.1/../../../../pic32mx/lib/micromips\libc-musl.a(__stdio_close.o)
 .debug_aranges
                0x00000000000012c0       0x30 c:/program files/microchip/xc32/v4.40/bin/bin/../../lib/gcc/pic32mx/8.3.1/../../../../pic32mx/lib/micromips\libc-musl.a(putc.o)
 .debug_aranges
                0x00000000000012f0       0x28 c:/program files/microchip/xc32/v4.40/bin/bin/../../lib/gcc/pic32mx/8.3.1/../../../../pic32mx/lib/micromips\libc-musl.a(__init_stdio.o)
 .debug_aranges
                0x0000000000001318       0x20 c:/program files/microchip/xc32/v4.40/bin/bin/../../lib/gcc/pic32mx/8.3.1/../../../../pic32mx/lib/micromips\libc-musl.a(__io_file_needed.o)
 .debug_aranges
                0x0000000000001338       0x20 c:/program files/microchip/xc32/v4.40/bin/bin/../../lib/gcc/pic32mx/8.3.1/micromips\libgcc.a(_udivdi3.o)
 .debug_aranges
                0x0000000000001358       0x20 c:/program files/microchip/xc32/v4.40/bin/bin/../../lib/gcc/pic32mx/8.3.1/micromips\libgcc.a(_umoddi3.o)
 .debug_aranges
                0x0000000000001378       0x20 c:/program files/microchip/xc32/v4.40/bin/bin/../../lib/gcc/pic32mx/8.3.1/../../../../pic32mx/lib/micromips\libpic32.a(write.o)
 .debug_aranges
                0x0000000000001398       0x20 c:/program files/microchip/xc32/v4.40/bin/bin/../../lib/gcc/pic32mx/8.3.1/../../../../pic32mx/lib/micromips\libpic32.a(lseek.o)
 .debug_aranges
                0x00000000000013b8       0x20 c:/program files/microchip/xc32/v4.40/bin/bin/../../lib/gcc/pic32mx/8.3.1/../../../../pic32mx/lib/micromips\libpic32.a(close.o)

.debug_pubnames
 *.elf(.debug_pubnames)
 *(.debug_pubnames)

.debug_info     0x0000000000000000    0x17c87
 *.elf(.debug_info .gnu.linkonce.wi.*)
 *(.debug_info .gnu.linkonce.wi.*)
 .debug_info    0x0000000000000000       0xd6 build/default/debug/Cfg/Debug_Cfg.o
 .debug_info    0x00000000000000d6      0x15a build/default/debug/mcc_generated_files/drivers/i2c_types.o
 .debug_info    0x0000000000000230      0xdc2 build/default/debug/mcc_generated_files/drivers/i2c_master.o
 .debug_info    0x0000000000000ff2      0x8e1 build/default/debug/mcc_generated_files/drivers/i2c_simple_master.o
 .debug_info    0x00000000000018d3      0x368 build/default/debug/mcc_generated_files/drivers/spi_master.o
 .debug_info    0x0000000000001c3b      0x3b9 build/default/debug/mcc_generated_files/memory/flash_demo.o
 .debug_info    0x0000000000001ff4      0x3d6 build/default/debug/mcc_generated_files/memory/flash.o
 .debug_info    0x00000000000023ca      0x989 build/default/debug/flashfunc.o
 .debug_info    0x0000000000002d53       0x79 build/default/debug/mcc_generated_files/usb/usb_device_generic.o
 .debug_info    0x0000000000002dcc      0x27d build/default/debug/mcc_generated_files/usb/usb_device_events.o
 .debug_info    0x0000000000003049     0x213c build/default/debug/mcc_generated_files/usb/usb_device.o
 .debug_info    0x0000000000005185      0x573 build/default/debug/mcc_generated_files/usb/usb_descriptors.o
 .debug_info    0x00000000000056f8     0x13fb build/default/debug/mcc_generated_files/usb/usb_device_cdc.o
 .debug_info    0x0000000000006af3      0xc7c build/default/debug/mcc_generated_files/uart3.o
 .debug_info    0x000000000000776f      0x162 build/default/debug/mcc_generated_files/system.o
 .debug_info    0x00000000000078d1      0x309 build/default/debug/mcc_generated_files/coretimer.o
 .debug_info    0x0000000000007bda      0x30d build/default/debug/mcc_generated_files/clock.o
 .debug_info    0x0000000000007ee7       0xe1 build/default/debug/mcc_generated_files/exceptions.o
 .debug_info    0x0000000000007fc8      0x52d build/default/debug/mcc_generated_files/interrupt_manager.o
 .debug_info    0x00000000000084f5     0x16ef build/default/debug/mcc_generated_files/pin_manager.o
 .debug_info    0x0000000000009be4      0xe69 build/default/debug/mcc_generated_files/i2c1_driver.o
 .debug_info    0x000000000000aa4d      0xb98 build/default/debug/mcc_generated_files/spi2_driver.o
 .debug_info    0x000000000000b5e5      0xc0b build/default/debug/mcc_generated_files/uart2.o
 .debug_info    0x000000000000c1f0      0x296 build/default/debug/_ext/1209153551/Buttons.o
 .debug_info    0x000000000000c486      0xc25 build/default/debug/_ext/1362353914/TelitAtCmd.o
 .debug_info    0x000000000000d0ab      0xb5a build/default/debug/_ext/1362353914/TelitPwrCtrl.o
 .debug_info    0x000000000000dc05      0xbe4 build/default/debug/_ext/1124510853/Debug.o
 .debug_info    0x000000000000e7e9     0x1dc0 build/default/debug/_ext/1124510853/Utils.o
 .debug_info    0x00000000000105a9      0x30b build/default/debug/_ext/657024065/PIC32MM_Gpio.o
 .debug_info    0x00000000000108b4      0x7a1 build/default/debug/_ext/657024065/softWdt.o
 .debug_info    0x0000000000011055      0x298 build/default/debug/_ext/657024065/TaskManager.o
 .debug_info    0x00000000000112ed      0x36b build/default/debug/_ext/657024065/TickTimer.o
 .debug_info    0x0000000000011658     0x128d build/default/debug/User/AppMain.o
 .debug_info    0x00000000000128e5       0xdc build/default/debug/User/VCP.o
 .debug_info    0x00000000000129c1      0x73f build/default/debug/User/VCP_Debug.o
 .debug_info    0x0000000000013100      0xa6d build/default/debug/main.o
 .debug_info    0x0000000000013b6d       0x22 C:\Users\ADMIN\AppData\Local\Temp\ccMUuKnQ.o
 .debug_info    0x0000000000013b8f       0x41 c:/program files/microchip/xc32/v4.40/bin/bin/../../lib/gcc/pic32mx/8.3.1/../../../../pic32mx/lib/micromips\libpic32.a(default-bootstrap-exception-handler.o)
 .debug_info    0x0000000000013bd0       0x3f c:/program files/microchip/xc32/v4.40/bin/bin/../../lib/gcc/pic32mx/8.3.1/../../../../pic32mx/lib/micromips\libpic32.a(default-on-reset.o)
 .debug_info    0x0000000000013c0f       0x3f c:/program files/microchip/xc32/v4.40/bin/bin/../../lib/gcc/pic32mx/8.3.1/../../../../pic32mx/lib/micromips\libpic32.a(default-on-bootstrap.o)
 .debug_info    0x0000000000013c4e       0x40 c:/program files/microchip/xc32/v4.40/bin/bin/../../lib/gcc/pic32mx/8.3.1/../../../../pic32mx/lib/micromips\libpic32.a(defaultinterrupt.o)
 .debug_info    0x0000000000013c8e       0xd0 c:/program files/microchip/xc32/v4.40/bin/bin/../../lib/gcc/pic32mx/8.3.1/../../../../pic32mx/lib/micromips\libc-musl.a(rand.o)
 .debug_info    0x0000000000013d5e      0x1cc c:/program files/microchip/xc32/v4.40/bin/bin/../../lib/gcc/pic32mx/8.3.1/../../../../pic32mx/lib/micromips\libc-musl.a(__sio_printf_cdnpsxX.o)
 .debug_info    0x0000000000013f2a      0x327 c:/program files/microchip/xc32/v4.40/bin/bin/../../lib/gcc/pic32mx/8.3.1/../../../../pic32mx/lib/micromips\libc-musl.a(__fmt_d.o)
 .debug_info    0x0000000000014251      0x2a9 c:/program files/microchip/xc32/v4.40/bin/bin/../../lib/gcc/pic32mx/8.3.1/../../../../pic32mx/lib/micromips\libc-musl.a(__fmt_s.o)
 .debug_info    0x00000000000144fa      0x328 c:/program files/microchip/xc32/v4.40/bin/bin/../../lib/gcc/pic32mx/8.3.1/../../../../pic32mx/lib/micromips\libc-musl.a(__fmt_x.o)
 .debug_info    0x0000000000014822      0x14e c:/program files/microchip/xc32/v4.40/bin/bin/../../lib/gcc/pic32mx/8.3.1/../../../../pic32mx/lib/micromips\libc-musl.a(__pop_int.o)
 .debug_info    0x0000000000014970      0x15e c:/program files/microchip/xc32/v4.40/bin/bin/../../lib/gcc/pic32mx/8.3.1/../../../../pic32mx/lib/micromips\libc-musl.a(__pop_ptr.o)
 .debug_info    0x0000000000014ace      0xa27 c:/program files/microchip/xc32/v4.40/bin/bin/../../lib/gcc/pic32mx/8.3.1/../../../../pic32mx/lib/micromips\libc-musl.a(__printf_core.o)
 .debug_info    0x00000000000154f5      0x40c c:/program files/microchip/xc32/v4.40/bin/bin/../../lib/gcc/pic32mx/8.3.1/../../../../pic32mx/lib/micromips\libc-musl.a(stdout.o)
 .debug_info    0x0000000000015901       0xce c:/program files/microchip/xc32/v4.40/bin/bin/../../lib/gcc/pic32mx/8.3.1/../../../../pic32mx/lib/micromips\libc-musl.a(putchar.o)
 .debug_info    0x00000000000159cf       0xee c:/program files/microchip/xc32/v4.40/bin/bin/../../lib/gcc/pic32mx/8.3.1/../../../../pic32mx/lib/micromips\libc-musl.a(atoi.o)
 .debug_info    0x0000000000015abd       0xf7 c:/program files/microchip/xc32/v4.40/bin/bin/../../lib/gcc/pic32mx/8.3.1/../../../../pic32mx/lib/micromips\libc-musl.a(memcpy.o)
 .debug_info    0x0000000000015bb4      0x11b c:/program files/microchip/xc32/v4.40/bin/bin/../../lib/gcc/pic32mx/8.3.1/../../../../pic32mx/lib/micromips\libc-musl.a(tolower.o)
 .debug_info    0x0000000000015ccf      0x11b c:/program files/microchip/xc32/v4.40/bin/bin/../../lib/gcc/pic32mx/8.3.1/../../../../pic32mx/lib/micromips\libc-musl.a(toupper.o)
 .debug_info    0x0000000000015dea      0x1e0 c:/program files/microchip/xc32/v4.40/bin/bin/../../lib/gcc/pic32mx/8.3.1/../../../../pic32mx/lib/micromips\libc-musl.a(__int_vfprintf.o)
 .debug_info    0x0000000000015fca      0x1d0 c:/program files/microchip/xc32/v4.40/bin/bin/../../lib/gcc/pic32mx/8.3.1/../../../../pic32mx/lib/micromips\libc-musl.a(__cvt_u.o)
 .debug_info    0x000000000001619a       0xdf c:/program files/microchip/xc32/v4.40/bin/bin/../../lib/gcc/pic32mx/8.3.1/../../../../pic32mx/lib/micromips\libc-musl.a(__io_init_needed.o)
 .debug_info    0x0000000000016279      0x29f c:/program files/microchip/xc32/v4.40/bin/bin/../../lib/gcc/pic32mx/8.3.1/../../../../pic32mx/lib/micromips\libc-musl.a(__out.o)
 .debug_info    0x0000000000016518      0x134 c:/program files/microchip/xc32/v4.40/bin/bin/../../lib/gcc/pic32mx/8.3.1/../../../../pic32mx/lib/micromips\libc-musl.a(__pop_float.o)
 .debug_info    0x000000000001664c      0x3f6 c:/program files/microchip/xc32/v4.40/bin/bin/../../lib/gcc/pic32mx/8.3.1/../../../../pic32mx/lib/micromips\libc-musl.a(__stdio_close.o)
 .debug_info    0x0000000000016a42      0x217 c:/program files/microchip/xc32/v4.40/bin/bin/../../lib/gcc/pic32mx/8.3.1/../../../../pic32mx/lib/micromips\libc-musl.a(putc.o)
 .debug_info    0x0000000000016c59       0xb9 c:/program files/microchip/xc32/v4.40/bin/bin/../../lib/gcc/pic32mx/8.3.1/../../../../pic32mx/lib/micromips\libc-musl.a(__init_stdio.o)
 .debug_info    0x0000000000016d12       0xaf c:/program files/microchip/xc32/v4.40/bin/bin/../../lib/gcc/pic32mx/8.3.1/../../../../pic32mx/lib/micromips\libc-musl.a(__io_file_needed.o)
 .debug_info    0x0000000000016dc1      0x6ca c:/program files/microchip/xc32/v4.40/bin/bin/../../lib/gcc/pic32mx/8.3.1/micromips\libgcc.a(_udivdi3.o)
 .debug_info    0x000000000001748b      0x73e c:/program files/microchip/xc32/v4.40/bin/bin/../../lib/gcc/pic32mx/8.3.1/micromips\libgcc.a(_umoddi3.o)
 .debug_info    0x0000000000017bc9       0x40 c:/program files/microchip/xc32/v4.40/bin/bin/../../lib/gcc/pic32mx/8.3.1/../../../../pic32mx/lib/micromips\libpic32.a(write.o)
 .debug_info    0x0000000000017c09       0x3f c:/program files/microchip/xc32/v4.40/bin/bin/../../lib/gcc/pic32mx/8.3.1/../../../../pic32mx/lib/micromips\libpic32.a(lseek.o)
 .debug_info    0x0000000000017c48       0x3f c:/program files/microchip/xc32/v4.40/bin/bin/../../lib/gcc/pic32mx/8.3.1/../../../../pic32mx/lib/micromips\libpic32.a(close.o)

.debug_abbrev   0x0000000000000000     0x6337
 *.elf(.debug_abbrev)
 *(.debug_abbrev)
 .debug_abbrev  0x0000000000000000       0x8a build/default/debug/Cfg/Debug_Cfg.o
 .debug_abbrev  0x000000000000008a       0xa9 build/default/debug/mcc_generated_files/drivers/i2c_types.o
 .debug_abbrev  0x0000000000000133      0x37a build/default/debug/mcc_generated_files/drivers/i2c_master.o
 .debug_abbrev  0x00000000000004ad      0x19e build/default/debug/mcc_generated_files/drivers/i2c_simple_master.o
 .debug_abbrev  0x000000000000064b      0x151 build/default/debug/mcc_generated_files/drivers/spi_master.o
 .debug_abbrev  0x000000000000079c      0x141 build/default/debug/mcc_generated_files/memory/flash_demo.o
 .debug_abbrev  0x00000000000008dd      0x1a1 build/default/debug/mcc_generated_files/memory/flash.o
 .debug_abbrev  0x0000000000000a7e      0x228 build/default/debug/flashfunc.o
 .debug_abbrev  0x0000000000000ca6       0x26 build/default/debug/mcc_generated_files/usb/usb_device_generic.o
 .debug_abbrev  0x0000000000000ccc       0xef build/default/debug/mcc_generated_files/usb/usb_device_events.o
 .debug_abbrev  0x0000000000000dbb      0x521 build/default/debug/mcc_generated_files/usb/usb_device.o
 .debug_abbrev  0x00000000000012dc      0x1bf build/default/debug/mcc_generated_files/usb/usb_descriptors.o
 .debug_abbrev  0x000000000000149b      0x466 build/default/debug/mcc_generated_files/usb/usb_device_cdc.o
 .debug_abbrev  0x0000000000001901      0x388 build/default/debug/mcc_generated_files/uart3.o
 .debug_abbrev  0x0000000000001c89       0xa2 build/default/debug/mcc_generated_files/system.o
 .debug_abbrev  0x0000000000001d2b      0x16a build/default/debug/mcc_generated_files/coretimer.o
 .debug_abbrev  0x0000000000001e95      0x101 build/default/debug/mcc_generated_files/clock.o
 .debug_abbrev  0x0000000000001f96       0x81 build/default/debug/mcc_generated_files/exceptions.o
 .debug_abbrev  0x0000000000002017       0xaf build/default/debug/mcc_generated_files/interrupt_manager.o
 .debug_abbrev  0x00000000000020c6      0x1f1 build/default/debug/mcc_generated_files/pin_manager.o
 .debug_abbrev  0x00000000000022b7      0x1e7 build/default/debug/mcc_generated_files/i2c1_driver.o
 .debug_abbrev  0x000000000000249e      0x294 build/default/debug/mcc_generated_files/spi2_driver.o
 .debug_abbrev  0x0000000000002732      0x318 build/default/debug/mcc_generated_files/uart2.o
 .debug_abbrev  0x0000000000002a4a       0xfc build/default/debug/_ext/1209153551/Buttons.o
 .debug_abbrev  0x0000000000002b46      0x321 build/default/debug/_ext/1362353914/TelitAtCmd.o
 .debug_abbrev  0x0000000000002e67      0x311 build/default/debug/_ext/1362353914/TelitPwrCtrl.o
 .debug_abbrev  0x0000000000003178      0x1aa build/default/debug/_ext/1124510853/Debug.o
 .debug_abbrev  0x0000000000003322      0x35f build/default/debug/_ext/1124510853/Utils.o
 .debug_abbrev  0x0000000000003681      0x130 build/default/debug/_ext/657024065/PIC32MM_Gpio.o
 .debug_abbrev  0x00000000000037b1      0x2a7 build/default/debug/_ext/657024065/softWdt.o
 .debug_abbrev  0x0000000000003a58      0x146 build/default/debug/_ext/657024065/TaskManager.o
 .debug_abbrev  0x0000000000003b9e      0x181 build/default/debug/_ext/657024065/TickTimer.o
 .debug_abbrev  0x0000000000003d1f      0x32e build/default/debug/User/AppMain.o
 .debug_abbrev  0x000000000000404d       0x96 build/default/debug/User/VCP.o
 .debug_abbrev  0x00000000000040e3      0x2dd build/default/debug/User/VCP_Debug.o
 .debug_abbrev  0x00000000000043c0      0x2bb build/default/debug/main.o
 .debug_abbrev  0x000000000000467b       0x12 C:\Users\ADMIN\AppData\Local\Temp\ccMUuKnQ.o
 .debug_abbrev  0x000000000000468d       0x31 c:/program files/microchip/xc32/v4.40/bin/bin/../../lib/gcc/pic32mx/8.3.1/../../../../pic32mx/lib/micromips\libpic32.a(default-bootstrap-exception-handler.o)
 .debug_abbrev  0x00000000000046be       0x2e c:/program files/microchip/xc32/v4.40/bin/bin/../../lib/gcc/pic32mx/8.3.1/../../../../pic32mx/lib/micromips\libpic32.a(default-on-reset.o)
 .debug_abbrev  0x00000000000046ec       0x2e c:/program files/microchip/xc32/v4.40/bin/bin/../../lib/gcc/pic32mx/8.3.1/../../../../pic32mx/lib/micromips\libpic32.a(default-on-bootstrap.o)
 .debug_abbrev  0x000000000000471a       0x31 c:/program files/microchip/xc32/v4.40/bin/bin/../../lib/gcc/pic32mx/8.3.1/../../../../pic32mx/lib/micromips\libpic32.a(defaultinterrupt.o)
 .debug_abbrev  0x000000000000474b       0x96 c:/program files/microchip/xc32/v4.40/bin/bin/../../lib/gcc/pic32mx/8.3.1/../../../../pic32mx/lib/micromips\libc-musl.a(rand.o)
 .debug_abbrev  0x00000000000047e1      0x12b c:/program files/microchip/xc32/v4.40/bin/bin/../../lib/gcc/pic32mx/8.3.1/../../../../pic32mx/lib/micromips\libc-musl.a(__sio_printf_cdnpsxX.o)
 .debug_abbrev  0x000000000000490c      0x161 c:/program files/microchip/xc32/v4.40/bin/bin/../../lib/gcc/pic32mx/8.3.1/../../../../pic32mx/lib/micromips\libc-musl.a(__fmt_d.o)
 .debug_abbrev  0x0000000000004a6d      0x14c c:/program files/microchip/xc32/v4.40/bin/bin/../../lib/gcc/pic32mx/8.3.1/../../../../pic32mx/lib/micromips\libc-musl.a(__fmt_s.o)
 .debug_abbrev  0x0000000000004bb9      0x150 c:/program files/microchip/xc32/v4.40/bin/bin/../../lib/gcc/pic32mx/8.3.1/../../../../pic32mx/lib/micromips\libc-musl.a(__fmt_x.o)
 .debug_abbrev  0x0000000000004d09       0xc3 c:/program files/microchip/xc32/v4.40/bin/bin/../../lib/gcc/pic32mx/8.3.1/../../../../pic32mx/lib/micromips\libc-musl.a(__pop_int.o)
 .debug_abbrev  0x0000000000004dcc       0xd7 c:/program files/microchip/xc32/v4.40/bin/bin/../../lib/gcc/pic32mx/8.3.1/../../../../pic32mx/lib/micromips\libc-musl.a(__pop_ptr.o)
 .debug_abbrev  0x0000000000004ea3      0x318 c:/program files/microchip/xc32/v4.40/bin/bin/../../lib/gcc/pic32mx/8.3.1/../../../../pic32mx/lib/micromips\libc-musl.a(__printf_core.o)
 .debug_abbrev  0x00000000000051bb      0x1bd c:/program files/microchip/xc32/v4.40/bin/bin/../../lib/gcc/pic32mx/8.3.1/../../../../pic32mx/lib/micromips\libc-musl.a(stdout.o)
 .debug_abbrev  0x0000000000005378       0xc4 c:/program files/microchip/xc32/v4.40/bin/bin/../../lib/gcc/pic32mx/8.3.1/../../../../pic32mx/lib/micromips\libc-musl.a(putchar.o)
 .debug_abbrev  0x000000000000543c       0xc4 c:/program files/microchip/xc32/v4.40/bin/bin/../../lib/gcc/pic32mx/8.3.1/../../../../pic32mx/lib/micromips\libc-musl.a(atoi.o)
 .debug_abbrev  0x0000000000005500       0xaa c:/program files/microchip/xc32/v4.40/bin/bin/../../lib/gcc/pic32mx/8.3.1/../../../../pic32mx/lib/micromips\libc-musl.a(memcpy.o)
 .debug_abbrev  0x00000000000055aa       0xf1 c:/program files/microchip/xc32/v4.40/bin/bin/../../lib/gcc/pic32mx/8.3.1/../../../../pic32mx/lib/micromips\libc-musl.a(tolower.o)
 .debug_abbrev  0x000000000000569b       0xf1 c:/program files/microchip/xc32/v4.40/bin/bin/../../lib/gcc/pic32mx/8.3.1/../../../../pic32mx/lib/micromips\libc-musl.a(toupper.o)
 .debug_abbrev  0x000000000000578c      0x118 c:/program files/microchip/xc32/v4.40/bin/bin/../../lib/gcc/pic32mx/8.3.1/../../../../pic32mx/lib/micromips\libc-musl.a(__int_vfprintf.o)
 .debug_abbrev  0x00000000000058a4       0xe5 c:/program files/microchip/xc32/v4.40/bin/bin/../../lib/gcc/pic32mx/8.3.1/../../../../pic32mx/lib/micromips\libc-musl.a(__cvt_u.o)
 .debug_abbrev  0x0000000000005989       0x81 c:/program files/microchip/xc32/v4.40/bin/bin/../../lib/gcc/pic32mx/8.3.1/../../../../pic32mx/lib/micromips\libc-musl.a(__io_init_needed.o)
 .debug_abbrev  0x0000000000005a0a      0x17a c:/program files/microchip/xc32/v4.40/bin/bin/../../lib/gcc/pic32mx/8.3.1/../../../../pic32mx/lib/micromips\libc-musl.a(__out.o)
 .debug_abbrev  0x0000000000005b84       0xc3 c:/program files/microchip/xc32/v4.40/bin/bin/../../lib/gcc/pic32mx/8.3.1/../../../../pic32mx/lib/micromips\libc-musl.a(__pop_float.o)
 .debug_abbrev  0x0000000000005c47      0x15a c:/program files/microchip/xc32/v4.40/bin/bin/../../lib/gcc/pic32mx/8.3.1/../../../../pic32mx/lib/micromips\libc-musl.a(__stdio_close.o)
 .debug_abbrev  0x0000000000005da1      0x122 c:/program files/microchip/xc32/v4.40/bin/bin/../../lib/gcc/pic32mx/8.3.1/../../../../pic32mx/lib/micromips\libc-musl.a(putc.o)
 .debug_abbrev  0x0000000000005ec3       0x65 c:/program files/microchip/xc32/v4.40/bin/bin/../../lib/gcc/pic32mx/8.3.1/../../../../pic32mx/lib/micromips\libc-musl.a(__init_stdio.o)
 .debug_abbrev  0x0000000000005f28       0x67 c:/program files/microchip/xc32/v4.40/bin/bin/../../lib/gcc/pic32mx/8.3.1/../../../../pic32mx/lib/micromips\libc-musl.a(__io_file_needed.o)
 .debug_abbrev  0x0000000000005f8f      0x184 c:/program files/microchip/xc32/v4.40/bin/bin/../../lib/gcc/pic32mx/8.3.1/micromips\libgcc.a(_udivdi3.o)
 .debug_abbrev  0x0000000000006113      0x19a c:/program files/microchip/xc32/v4.40/bin/bin/../../lib/gcc/pic32mx/8.3.1/micromips\libgcc.a(_umoddi3.o)
 .debug_abbrev  0x00000000000062ad       0x2e c:/program files/microchip/xc32/v4.40/bin/bin/../../lib/gcc/pic32mx/8.3.1/../../../../pic32mx/lib/micromips\libpic32.a(write.o)
 .debug_abbrev  0x00000000000062db       0x2e c:/program files/microchip/xc32/v4.40/bin/bin/../../lib/gcc/pic32mx/8.3.1/../../../../pic32mx/lib/micromips\libpic32.a(lseek.o)
 .debug_abbrev  0x0000000000006309       0x2e c:/program files/microchip/xc32/v4.40/bin/bin/../../lib/gcc/pic32mx/8.3.1/../../../../pic32mx/lib/micromips\libpic32.a(close.o)

.debug_line     0x0000000000000000     0xdf9b
 *.elf(.debug_line)
 *(.debug_line)
 .debug_line    0x0000000000000000      0x107 build/default/debug/Cfg/Debug_Cfg.o
 .debug_line    0x0000000000000107       0xe5 build/default/debug/mcc_generated_files/drivers/i2c_types.o
 .debug_line    0x00000000000001ec      0x7c5 build/default/debug/mcc_generated_files/drivers/i2c_master.o
 .debug_line    0x00000000000009b1      0x345 build/default/debug/mcc_generated_files/drivers/i2c_simple_master.o
 .debug_line    0x0000000000000cf6      0x1ec build/default/debug/mcc_generated_files/drivers/spi_master.o
 .debug_line    0x0000000000000ee2      0x1f9 build/default/debug/mcc_generated_files/memory/flash_demo.o
 .debug_line    0x00000000000010db      0x332 build/default/debug/mcc_generated_files/memory/flash.o
 .debug_line    0x000000000000140d      0x448 build/default/debug/flashfunc.o
 .debug_line    0x0000000000001855       0x1d build/default/debug/mcc_generated_files/usb/usb_device_generic.o
 .debug_line    0x0000000000001872      0x13e build/default/debug/mcc_generated_files/usb/usb_device_events.o
 .debug_line    0x00000000000019b0     0x14bd build/default/debug/mcc_generated_files/usb/usb_device.o
 .debug_line    0x0000000000002e6d      0x1f0 build/default/debug/mcc_generated_files/usb/usb_descriptors.o
 .debug_line    0x000000000000305d      0x70e build/default/debug/mcc_generated_files/usb/usb_device_cdc.o
 .debug_line    0x000000000000376b      0x6cd build/default/debug/mcc_generated_files/uart3.o
 .debug_line    0x0000000000003e38      0x143 build/default/debug/mcc_generated_files/system.o
 .debug_line    0x0000000000003f7b      0x1f0 build/default/debug/mcc_generated_files/coretimer.o
 .debug_line    0x000000000000416b      0x1c2 build/default/debug/mcc_generated_files/clock.o
 .debug_line    0x000000000000432d       0xa1 build/default/debug/mcc_generated_files/exceptions.o
 .debug_line    0x00000000000043ce      0x212 build/default/debug/mcc_generated_files/interrupt_manager.o
 .debug_line    0x00000000000045e0        0x0 build/default/debug/mcc_generated_files/mcc.o
 .debug_line    0x00000000000045e0      0x69c build/default/debug/mcc_generated_files/pin_manager.o
 .debug_line    0x0000000000004c7c      0x657 build/default/debug/mcc_generated_files/i2c1_driver.o
 .debug_line    0x00000000000052d3      0x342 build/default/debug/mcc_generated_files/spi2_driver.o
 .debug_line    0x0000000000005615      0x74f build/default/debug/mcc_generated_files/uart2.o
 .debug_line    0x0000000000005d64      0x245 build/default/debug/_ext/1209153551/Buttons.o
 .debug_line    0x0000000000005fa9      0x8d3 build/default/debug/_ext/1362353914/TelitAtCmd.o
 .debug_line    0x000000000000687c      0x6c2 build/default/debug/_ext/1362353914/TelitPwrCtrl.o
 .debug_line    0x0000000000006f3e      0x52d build/default/debug/_ext/1124510853/Debug.o
 .debug_line    0x000000000000746b     0x1595 build/default/debug/_ext/1124510853/Utils.o
 .debug_line    0x0000000000008a00      0x23e build/default/debug/_ext/657024065/PIC32MM_Gpio.o
 .debug_line    0x0000000000008c3e      0x336 build/default/debug/_ext/657024065/softWdt.o
 .debug_line    0x0000000000008f74      0x252 build/default/debug/_ext/657024065/TaskManager.o
 .debug_line    0x00000000000091c6      0x268 build/default/debug/_ext/657024065/TickTimer.o
 .debug_line    0x000000000000942e      0x5d7 build/default/debug/User/AppMain.o
 .debug_line    0x0000000000009a05       0xce build/default/debug/User/VCP.o
 .debug_line    0x0000000000009ad3      0x3bb build/default/debug/User/VCP_Debug.o
 .debug_line    0x0000000000009e8e      0x4a7 build/default/debug/main.o
 .debug_line    0x000000000000a335      0x14c C:\Users\ADMIN\AppData\Local\Temp\ccMUuKnQ.o
 .debug_line    0x000000000000a481       0xc9 c:/program files/microchip/xc32/v4.40/bin/bin/../../lib/gcc/pic32mx/8.3.1/../../../../pic32mx/lib/micromips\libpic32.a(default-bootstrap-exception-handler.o)
 .debug_line    0x000000000000a54a       0xa5 c:/program files/microchip/xc32/v4.40/bin/bin/../../lib/gcc/pic32mx/8.3.1/../../../../pic32mx/lib/micromips\libpic32.a(default-on-reset.o)
 .debug_line    0x000000000000a5ef       0xa9 c:/program files/microchip/xc32/v4.40/bin/bin/../../lib/gcc/pic32mx/8.3.1/../../../../pic32mx/lib/micromips\libpic32.a(default-on-bootstrap.o)
 .debug_line    0x000000000000a698       0xc8 c:/program files/microchip/xc32/v4.40/bin/bin/../../lib/gcc/pic32mx/8.3.1/../../../../pic32mx/lib/micromips\libpic32.a(defaultinterrupt.o)
 .debug_line    0x000000000000a760      0x147 c:/program files/microchip/xc32/v4.40/bin/bin/../../lib/gcc/pic32mx/8.3.1/../../../../pic32mx/lib/micromips\libc-musl.a(rand.o)
 .debug_line    0x000000000000a8a7      0x260 c:/program files/microchip/xc32/v4.40/bin/bin/../../lib/gcc/pic32mx/8.3.1/../../../../pic32mx/lib/micromips\libc-musl.a(__sio_printf_cdnpsxX.o)
 .debug_line    0x000000000000ab07      0x247 c:/program files/microchip/xc32/v4.40/bin/bin/../../lib/gcc/pic32mx/8.3.1/../../../../pic32mx/lib/micromips\libc-musl.a(__fmt_d.o)
 .debug_line    0x000000000000ad4e      0x245 c:/program files/microchip/xc32/v4.40/bin/bin/../../lib/gcc/pic32mx/8.3.1/../../../../pic32mx/lib/micromips\libc-musl.a(__fmt_s.o)
 .debug_line    0x000000000000af93      0x315 c:/program files/microchip/xc32/v4.40/bin/bin/../../lib/gcc/pic32mx/8.3.1/../../../../pic32mx/lib/micromips\libc-musl.a(__fmt_x.o)
 .debug_line    0x000000000000b2a8      0x24b c:/program files/microchip/xc32/v4.40/bin/bin/../../lib/gcc/pic32mx/8.3.1/../../../../pic32mx/lib/micromips\libc-musl.a(__pop_int.o)
 .debug_line    0x000000000000b4f3      0x205 c:/program files/microchip/xc32/v4.40/bin/bin/../../lib/gcc/pic32mx/8.3.1/../../../../pic32mx/lib/micromips\libc-musl.a(__pop_ptr.o)
 .debug_line    0x000000000000b6f8      0x6f9 c:/program files/microchip/xc32/v4.40/bin/bin/../../lib/gcc/pic32mx/8.3.1/../../../../pic32mx/lib/micromips\libc-musl.a(__printf_core.o)
 .debug_line    0x000000000000bdf1      0x25e c:/program files/microchip/xc32/v4.40/bin/bin/../../lib/gcc/pic32mx/8.3.1/../../../../pic32mx/lib/micromips\libc-musl.a(stdout.o)
 .debug_line    0x000000000000c04f      0x191 c:/program files/microchip/xc32/v4.40/bin/bin/../../lib/gcc/pic32mx/8.3.1/../../../../pic32mx/lib/micromips\libc-musl.a(putchar.o)
 .debug_line    0x000000000000c1e0      0x16f c:/program files/microchip/xc32/v4.40/bin/bin/../../lib/gcc/pic32mx/8.3.1/../../../../pic32mx/lib/micromips\libc-musl.a(atoi.o)
 .debug_line    0x000000000000c34f      0x13d c:/program files/microchip/xc32/v4.40/bin/bin/../../lib/gcc/pic32mx/8.3.1/../../../../pic32mx/lib/micromips\libc-musl.a(memcpy.o)
 .debug_line    0x000000000000c48c      0x1b4 c:/program files/microchip/xc32/v4.40/bin/bin/../../lib/gcc/pic32mx/8.3.1/../../../../pic32mx/lib/micromips\libc-musl.a(tolower.o)
 .debug_line    0x000000000000c640      0x1b4 c:/program files/microchip/xc32/v4.40/bin/bin/../../lib/gcc/pic32mx/8.3.1/../../../../pic32mx/lib/micromips\libc-musl.a(toupper.o)
 .debug_line    0x000000000000c7f4      0x1ba c:/program files/microchip/xc32/v4.40/bin/bin/../../lib/gcc/pic32mx/8.3.1/../../../../pic32mx/lib/micromips\libc-musl.a(__int_vfprintf.o)
 .debug_line    0x000000000000c9ae      0x22e c:/program files/microchip/xc32/v4.40/bin/bin/../../lib/gcc/pic32mx/8.3.1/../../../../pic32mx/lib/micromips\libc-musl.a(__cvt_u.o)
 .debug_line    0x000000000000cbdc      0x145 c:/program files/microchip/xc32/v4.40/bin/bin/../../lib/gcc/pic32mx/8.3.1/../../../../pic32mx/lib/micromips\libc-musl.a(__io_init_needed.o)
 .debug_line    0x000000000000cd21      0x293 c:/program files/microchip/xc32/v4.40/bin/bin/../../lib/gcc/pic32mx/8.3.1/../../../../pic32mx/lib/micromips\libc-musl.a(__out.o)
 .debug_line    0x000000000000cfb4      0x1aa c:/program files/microchip/xc32/v4.40/bin/bin/../../lib/gcc/pic32mx/8.3.1/../../../../pic32mx/lib/micromips\libc-musl.a(__pop_float.o)
 .debug_line    0x000000000000d15e      0x2d9 c:/program files/microchip/xc32/v4.40/bin/bin/../../lib/gcc/pic32mx/8.3.1/../../../../pic32mx/lib/micromips\libc-musl.a(__stdio_close.o)
 .debug_line    0x000000000000d437      0x203 c:/program files/microchip/xc32/v4.40/bin/bin/../../lib/gcc/pic32mx/8.3.1/../../../../pic32mx/lib/micromips\libc-musl.a(putc.o)
 .debug_line    0x000000000000d63a       0xc8 c:/program files/microchip/xc32/v4.40/bin/bin/../../lib/gcc/pic32mx/8.3.1/../../../../pic32mx/lib/micromips\libc-musl.a(__init_stdio.o)
 .debug_line    0x000000000000d702       0xbc c:/program files/microchip/xc32/v4.40/bin/bin/../../lib/gcc/pic32mx/8.3.1/../../../../pic32mx/lib/micromips\libc-musl.a(__io_file_needed.o)
 .debug_line    0x000000000000d7be      0x2d8 c:/program files/microchip/xc32/v4.40/bin/bin/../../lib/gcc/pic32mx/8.3.1/micromips\libgcc.a(_udivdi3.o)
 .debug_line    0x000000000000da96      0x31c c:/program files/microchip/xc32/v4.40/bin/bin/../../lib/gcc/pic32mx/8.3.1/micromips\libgcc.a(_umoddi3.o)
 .debug_line    0x000000000000ddb2       0xb5 c:/program files/microchip/xc32/v4.40/bin/bin/../../lib/gcc/pic32mx/8.3.1/../../../../pic32mx/lib/micromips\libpic32.a(write.o)
 .debug_line    0x000000000000de67       0x9a c:/program files/microchip/xc32/v4.40/bin/bin/../../lib/gcc/pic32mx/8.3.1/../../../../pic32mx/lib/micromips\libpic32.a(lseek.o)
 .debug_line    0x000000000000df01       0x9a c:/program files/microchip/xc32/v4.40/bin/bin/../../lib/gcc/pic32mx/8.3.1/../../../../pic32mx/lib/micromips\libpic32.a(close.o)
 .debug_line    0x000000000000df9b        0x0 c:/program files/microchip/xc32/v4.40/bin/bin/../../lib/gcc/pic32mx/8.3.1/../../../../pic32mx/lib/micromips\libpic32.a(errno.o)

.debug_frame    0x0000000000000000     0x2ea8
 *.elf(.debug_frame)
 *(.debug_frame)
 .debug_frame   0x0000000000000000       0x2c build/default/debug/Cfg/Debug_Cfg.o
 .debug_frame   0x000000000000002c       0x50 build/default/debug/mcc_generated_files/drivers/i2c_types.o
 .debug_frame   0x000000000000007c      0x394 build/default/debug/mcc_generated_files/drivers/i2c_master.o
 .debug_frame   0x0000000000000410      0x170 build/default/debug/mcc_generated_files/drivers/i2c_simple_master.o
 .debug_frame   0x0000000000000580       0x9c build/default/debug/mcc_generated_files/drivers/spi_master.o
 .debug_frame   0x000000000000061c       0x34 build/default/debug/mcc_generated_files/memory/flash_demo.o
 .debug_frame   0x0000000000000650       0xe0 build/default/debug/mcc_generated_files/memory/flash.o
 .debug_frame   0x0000000000000730      0x170 build/default/debug/flashfunc.o
 .debug_frame   0x00000000000008a0       0x88 build/default/debug/mcc_generated_files/usb/usb_device_events.o
 .debug_frame   0x0000000000000928      0x10c build/default/debug/mcc_generated_files/usb/usb_device.o
 .debug_frame   0x0000000000000a34       0x34 build/default/debug/mcc_generated_files/usb/usb_descriptors.o
 .debug_frame   0x0000000000000a68      0x11c build/default/debug/mcc_generated_files/usb/usb_device_cdc.o
 .debug_frame   0x0000000000000b84      0x300 build/default/debug/mcc_generated_files/uart3.o
 .debug_frame   0x0000000000000e84       0x2c build/default/debug/mcc_generated_files/system.o
 .debug_frame   0x0000000000000eb0       0xdc build/default/debug/mcc_generated_files/coretimer.o
 .debug_frame   0x0000000000000f8c       0x20 build/default/debug/mcc_generated_files/clock.o
 .debug_frame   0x0000000000000fac       0x28 build/default/debug/mcc_generated_files/exceptions.o
 .debug_frame   0x0000000000000fd4       0x20 build/default/debug/mcc_generated_files/interrupt_manager.o
 .debug_frame   0x0000000000000ff4      0x2b8 build/default/debug/mcc_generated_files/pin_manager.o
 .debug_frame   0x00000000000012ac      0x350 build/default/debug/mcc_generated_files/i2c1_driver.o
 .debug_frame   0x00000000000015fc       0xdc build/default/debug/mcc_generated_files/spi2_driver.o
 .debug_frame   0x00000000000016d8      0x30c build/default/debug/mcc_generated_files/uart2.o
 .debug_frame   0x00000000000019e4       0x30 build/default/debug/_ext/1209153551/Buttons.o
 .debug_frame   0x0000000000001a14      0x11c build/default/debug/_ext/1362353914/TelitAtCmd.o
 .debug_frame   0x0000000000001b30       0x8c build/default/debug/_ext/1362353914/TelitPwrCtrl.o
 .debug_frame   0x0000000000001bbc      0x230 build/default/debug/_ext/1124510853/Debug.o
 .debug_frame   0x0000000000001dec      0x61c build/default/debug/_ext/1124510853/Utils.o
 .debug_frame   0x0000000000002408       0x4c build/default/debug/_ext/657024065/PIC32MM_Gpio.o
 .debug_frame   0x0000000000002454       0xbc build/default/debug/_ext/657024065/softWdt.o
 .debug_frame   0x0000000000002510       0x60 build/default/debug/_ext/657024065/TaskManager.o
 .debug_frame   0x0000000000002570       0x5c build/default/debug/_ext/657024065/TickTimer.o
 .debug_frame   0x00000000000025cc      0x10c build/default/debug/User/AppMain.o
 .debug_frame   0x00000000000026d8       0x2c build/default/debug/User/VCP.o
 .debug_frame   0x0000000000002704       0x90 build/default/debug/User/VCP_Debug.o
 .debug_frame   0x0000000000002794       0x3c build/default/debug/main.o
 .debug_frame   0x00000000000027d0       0x2c c:/program files/microchip/xc32/v4.40/bin/bin/../../lib/gcc/pic32mx/8.3.1/../../../../pic32mx/lib/micromips\libpic32.a(default-bootstrap-exception-handler.o)
 .debug_frame   0x00000000000027fc       0x20 c:/program files/microchip/xc32/v4.40/bin/bin/../../lib/gcc/pic32mx/8.3.1/../../../../pic32mx/lib/micromips\libpic32.a(default-on-reset.o)
 .debug_frame   0x000000000000281c       0x20 c:/program files/microchip/xc32/v4.40/bin/bin/../../lib/gcc/pic32mx/8.3.1/../../../../pic32mx/lib/micromips\libpic32.a(default-on-bootstrap.o)
 .debug_frame   0x000000000000283c       0x20 c:/program files/microchip/xc32/v4.40/bin/bin/../../lib/gcc/pic32mx/8.3.1/../../../../pic32mx/lib/micromips\libpic32.a(defaultinterrupt.o)
 .debug_frame   0x000000000000285c       0x30 c:/program files/microchip/xc32/v4.40/bin/bin/../../lib/gcc/pic32mx/8.3.1/../../../../pic32mx/lib/micromips\libc-musl.a(rand.o)
 .debug_frame   0x000000000000288c       0x48 c:/program files/microchip/xc32/v4.40/bin/bin/../../lib/gcc/pic32mx/8.3.1/../../../../pic32mx/lib/micromips\libc-musl.a(__sio_printf_cdnpsxX.o)
 .debug_frame   0x00000000000028d4       0x38 c:/program files/microchip/xc32/v4.40/bin/bin/../../lib/gcc/pic32mx/8.3.1/../../../../pic32mx/lib/micromips\libc-musl.a(__fmt_d.o)
 .debug_frame   0x000000000000290c       0x34 c:/program files/microchip/xc32/v4.40/bin/bin/../../lib/gcc/pic32mx/8.3.1/../../../../pic32mx/lib/micromips\libc-musl.a(__fmt_s.o)
 .debug_frame   0x0000000000002940       0x40 c:/program files/microchip/xc32/v4.40/bin/bin/../../lib/gcc/pic32mx/8.3.1/../../../../pic32mx/lib/micromips\libc-musl.a(__fmt_x.o)
 .debug_frame   0x0000000000002980       0x20 c:/program files/microchip/xc32/v4.40/bin/bin/../../lib/gcc/pic32mx/8.3.1/../../../../pic32mx/lib/micromips\libc-musl.a(__pop_int.o)
 .debug_frame   0x00000000000029a0       0x20 c:/program files/microchip/xc32/v4.40/bin/bin/../../lib/gcc/pic32mx/8.3.1/../../../../pic32mx/lib/micromips\libc-musl.a(__pop_ptr.o)
 .debug_frame   0x00000000000029c0       0xc8 c:/program files/microchip/xc32/v4.40/bin/bin/../../lib/gcc/pic32mx/8.3.1/../../../../pic32mx/lib/micromips\libc-musl.a(__printf_core.o)
 .debug_frame   0x0000000000002a88       0x4c c:/program files/microchip/xc32/v4.40/bin/bin/../../lib/gcc/pic32mx/8.3.1/../../../../pic32mx/lib/micromips\libc-musl.a(stdout.o)
 .debug_frame   0x0000000000002ad4       0x2c c:/program files/microchip/xc32/v4.40/bin/bin/../../lib/gcc/pic32mx/8.3.1/../../../../pic32mx/lib/micromips\libc-musl.a(putchar.o)
 .debug_frame   0x0000000000002b00       0x20 c:/program files/microchip/xc32/v4.40/bin/bin/../../lib/gcc/pic32mx/8.3.1/../../../../pic32mx/lib/micromips\libc-musl.a(atoi.o)
 .debug_frame   0x0000000000002b20       0x20 c:/program files/microchip/xc32/v4.40/bin/bin/../../lib/gcc/pic32mx/8.3.1/../../../../pic32mx/lib/micromips\libc-musl.a(memcpy.o)
 .debug_frame   0x0000000000002b40       0x3c c:/program files/microchip/xc32/v4.40/bin/bin/../../lib/gcc/pic32mx/8.3.1/../../../../pic32mx/lib/micromips\libc-musl.a(tolower.o)
 .debug_frame   0x0000000000002b7c       0x3c c:/program files/microchip/xc32/v4.40/bin/bin/../../lib/gcc/pic32mx/8.3.1/../../../../pic32mx/lib/micromips\libc-musl.a(toupper.o)
 .debug_frame   0x0000000000002bb8       0x2c c:/program files/microchip/xc32/v4.40/bin/bin/../../lib/gcc/pic32mx/8.3.1/../../../../pic32mx/lib/micromips\libc-musl.a(__int_vfprintf.o)
 .debug_frame   0x0000000000002be4       0x40 c:/program files/microchip/xc32/v4.40/bin/bin/../../lib/gcc/pic32mx/8.3.1/../../../../pic32mx/lib/micromips\libc-musl.a(__cvt_u.o)
 .debug_frame   0x0000000000002c24       0x48 c:/program files/microchip/xc32/v4.40/bin/bin/../../lib/gcc/pic32mx/8.3.1/../../../../pic32mx/lib/micromips\libc-musl.a(__io_init_needed.o)
 .debug_frame   0x0000000000002c6c       0x4c c:/program files/microchip/xc32/v4.40/bin/bin/../../lib/gcc/pic32mx/8.3.1/../../../../pic32mx/lib/micromips\libc-musl.a(__out.o)
 .debug_frame   0x0000000000002cb8       0x20 c:/program files/microchip/xc32/v4.40/bin/bin/../../lib/gcc/pic32mx/8.3.1/../../../../pic32mx/lib/micromips\libc-musl.a(__pop_float.o)
 .debug_frame   0x0000000000002cd8       0x50 c:/program files/microchip/xc32/v4.40/bin/bin/../../lib/gcc/pic32mx/8.3.1/../../../../pic32mx/lib/micromips\libc-musl.a(__stdio_close.o)
 .debug_frame   0x0000000000002d28       0x64 c:/program files/microchip/xc32/v4.40/bin/bin/../../lib/gcc/pic32mx/8.3.1/../../../../pic32mx/lib/micromips\libc-musl.a(putc.o)
 .debug_frame   0x0000000000002d8c       0x3c c:/program files/microchip/xc32/v4.40/bin/bin/../../lib/gcc/pic32mx/8.3.1/../../../../pic32mx/lib/micromips\libc-musl.a(__init_stdio.o)
 .debug_frame   0x0000000000002dc8       0x2c c:/program files/microchip/xc32/v4.40/bin/bin/../../lib/gcc/pic32mx/8.3.1/../../../../pic32mx/lib/micromips\libc-musl.a(__io_file_needed.o)
 .debug_frame   0x0000000000002df4       0x20 c:/program files/microchip/xc32/v4.40/bin/bin/../../lib/gcc/pic32mx/8.3.1/micromips\libgcc.a(_udivdi3.o)
 .debug_frame   0x0000000000002e14       0x20 c:/program files/microchip/xc32/v4.40/bin/bin/../../lib/gcc/pic32mx/8.3.1/micromips\libgcc.a(_umoddi3.o)
 .debug_frame   0x0000000000002e34       0x34 c:/program files/microchip/xc32/v4.40/bin/bin/../../lib/gcc/pic32mx/8.3.1/../../../../pic32mx/lib/micromips\libpic32.a(write.o)
 .debug_frame   0x0000000000002e68       0x20 c:/program files/microchip/xc32/v4.40/bin/bin/../../lib/gcc/pic32mx/8.3.1/../../../../pic32mx/lib/micromips\libpic32.a(lseek.o)
 .debug_frame   0x0000000000002e88       0x20 c:/program files/microchip/xc32/v4.40/bin/bin/../../lib/gcc/pic32mx/8.3.1/../../../../pic32mx/lib/micromips\libpic32.a(close.o)

.debug_str      0x0000000000000000    0x167f3
 *.elf(.debug_str)
 *(.debug_str)
 .debug_str     0x0000000000000000      0x292 build/default/debug/Cfg/Debug_Cfg.o
 .debug_str     0x0000000000000292      0x302 build/default/debug/mcc_generated_files/drivers/i2c_types.o
 .debug_str     0x0000000000000594      0x983 build/default/debug/mcc_generated_files/drivers/i2c_master.o
 .debug_str     0x0000000000000f17      0x4a4 build/default/debug/mcc_generated_files/drivers/i2c_simple_master.o
 .debug_str     0x00000000000013bb      0x3df build/default/debug/mcc_generated_files/drivers/spi_master.o
 .debug_str     0x000000000000179a      0x355 build/default/debug/mcc_generated_files/memory/flash_demo.o
 .debug_str     0x0000000000001aef      0x3c8 build/default/debug/mcc_generated_files/memory/flash.o
 .debug_str     0x0000000000001eb7      0x6e3 build/default/debug/flashfunc.o
 .debug_str     0x000000000000259a      0x286 build/default/debug/mcc_generated_files/usb/usb_device_generic.o
 .debug_str     0x0000000000002820      0x615 build/default/debug/mcc_generated_files/usb/usb_device_events.o
 .debug_str     0x0000000000002e35     0x11da build/default/debug/mcc_generated_files/usb/usb_device.o
 .debug_str     0x000000000000400f      0x6bd build/default/debug/mcc_generated_files/usb/usb_descriptors.o
 .debug_str     0x00000000000046cc      0xb03 build/default/debug/mcc_generated_files/usb/usb_device_cdc.o
 .debug_str     0x00000000000051cf      0x849 build/default/debug/mcc_generated_files/uart3.o
 .debug_str     0x0000000000005a18      0x321 build/default/debug/mcc_generated_files/system.o
 .debug_str     0x0000000000005d39      0x3d6 build/default/debug/mcc_generated_files/coretimer.o
 .debug_str     0x000000000000610f      0x38e build/default/debug/mcc_generated_files/clock.o
 .debug_str     0x000000000000649d      0x2b8 build/default/debug/mcc_generated_files/exceptions.o
 .debug_str     0x0000000000006755      0x476 build/default/debug/mcc_generated_files/interrupt_manager.o
 .debug_str     0x0000000000006bcb      0x1dd build/default/debug/mcc_generated_files/mcc.o
 .debug_str     0x0000000000006da8      0xbe4 build/default/debug/mcc_generated_files/pin_manager.o
 .debug_str     0x000000000000798c      0xbb7 build/default/debug/mcc_generated_files/i2c1_driver.o
 .debug_str     0x0000000000008543      0x93d build/default/debug/mcc_generated_files/spi2_driver.o
 .debug_str     0x0000000000008e80      0x7e9 build/default/debug/mcc_generated_files/uart2.o
 .debug_str     0x0000000000009669      0x60c build/default/debug/_ext/1209153551/Buttons.o
 .debug_str     0x0000000000009c75      0x74f build/default/debug/_ext/1362353914/TelitAtCmd.o
 .debug_str     0x000000000000a3c4      0x9c0 build/default/debug/_ext/1362353914/TelitPwrCtrl.o
 .debug_str     0x000000000000ad84      0x6b3 build/default/debug/_ext/1124510853/Debug.o
 .debug_str     0x000000000000b437      0x75f build/default/debug/_ext/1124510853/Utils.o
 .debug_str     0x000000000000bb96      0x463 build/default/debug/_ext/657024065/PIC32MM_Gpio.o
 .debug_str     0x000000000000bff9      0x8d7 build/default/debug/_ext/657024065/softWdt.o
 .debug_str     0x000000000000c8d0      0x35a build/default/debug/_ext/657024065/TaskManager.o
 .debug_str     0x000000000000cc2a      0x5f2 build/default/debug/_ext/657024065/TickTimer.o
 .debug_str     0x000000000000d21c      0x9e3 build/default/debug/User/AppMain.o
 .debug_str     0x000000000000dbff      0x284 build/default/debug/User/VCP.o
 .debug_str     0x000000000000de83      0x7d0 build/default/debug/User/VCP_Debug.o
 .debug_str     0x000000000000e653      0x914 build/default/debug/main.o
 .debug_str     0x000000000000ef67       0xa7 C:\Users\ADMIN\AppData\Local\Temp\ccMUuKnQ.o
 .debug_str     0x000000000000f00e      0x36d c:/program files/microchip/xc32/v4.40/bin/bin/../../lib/gcc/pic32mx/8.3.1/../../../../pic32mx/lib/micromips\libpic32.a(default-bootstrap-exception-handler.o)
 .debug_str     0x000000000000f37b      0x347 c:/program files/microchip/xc32/v4.40/bin/bin/../../lib/gcc/pic32mx/8.3.1/../../../../pic32mx/lib/micromips\libpic32.a(default-on-reset.o)
 .debug_str     0x000000000000f6c2      0x34f c:/program files/microchip/xc32/v4.40/bin/bin/../../lib/gcc/pic32mx/8.3.1/../../../../pic32mx/lib/micromips\libpic32.a(default-on-bootstrap.o)
 .debug_str     0x000000000000fa11      0x361 c:/program files/microchip/xc32/v4.40/bin/bin/../../lib/gcc/pic32mx/8.3.1/../../../../pic32mx/lib/micromips\libpic32.a(defaultinterrupt.o)
 .debug_str     0x000000000000fd72      0x371 c:/program files/microchip/xc32/v4.40/bin/bin/../../lib/gcc/pic32mx/8.3.1/../../../../pic32mx/lib/micromips\libc-musl.a(rand.o)
 .debug_str     0x00000000000100e3      0x418 c:/program files/microchip/xc32/v4.40/bin/bin/../../lib/gcc/pic32mx/8.3.1/../../../../pic32mx/lib/micromips\libc-musl.a(__sio_printf_cdnpsxX.o)
 .debug_str     0x00000000000104fb      0x3e2 c:/program files/microchip/xc32/v4.40/bin/bin/../../lib/gcc/pic32mx/8.3.1/../../../../pic32mx/lib/micromips\libc-musl.a(__fmt_d.o)
 .debug_str     0x00000000000108dd      0x3ce c:/program files/microchip/xc32/v4.40/bin/bin/../../lib/gcc/pic32mx/8.3.1/../../../../pic32mx/lib/micromips\libc-musl.a(__fmt_s.o)
 .debug_str     0x0000000000010cab      0x3e2 c:/program files/microchip/xc32/v4.40/bin/bin/../../lib/gcc/pic32mx/8.3.1/../../../../pic32mx/lib/micromips\libc-musl.a(__fmt_x.o)
 .debug_str     0x000000000001108d      0x3bb c:/program files/microchip/xc32/v4.40/bin/bin/../../lib/gcc/pic32mx/8.3.1/../../../../pic32mx/lib/micromips\libc-musl.a(__pop_int.o)
 .debug_str     0x0000000000011448      0x3bd c:/program files/microchip/xc32/v4.40/bin/bin/../../lib/gcc/pic32mx/8.3.1/../../../../pic32mx/lib/micromips\libc-musl.a(__pop_ptr.o)
 .debug_str     0x0000000000011805      0x4d1 c:/program files/microchip/xc32/v4.40/bin/bin/../../lib/gcc/pic32mx/8.3.1/../../../../pic32mx/lib/micromips\libc-musl.a(__printf_core.o)
 .debug_str     0x0000000000011cd6      0x487 c:/program files/microchip/xc32/v4.40/bin/bin/../../lib/gcc/pic32mx/8.3.1/../../../../pic32mx/lib/micromips\libc-musl.a(stdout.o)
 .debug_str     0x000000000001215d      0x324 c:/program files/microchip/xc32/v4.40/bin/bin/../../lib/gcc/pic32mx/8.3.1/../../../../pic32mx/lib/micromips\libc-musl.a(putchar.o)
 .debug_str     0x0000000000012481      0x31b c:/program files/microchip/xc32/v4.40/bin/bin/../../lib/gcc/pic32mx/8.3.1/../../../../pic32mx/lib/micromips\libc-musl.a(atoi.o)
 .debug_str     0x000000000001279c      0x328 c:/program files/microchip/xc32/v4.40/bin/bin/../../lib/gcc/pic32mx/8.3.1/../../../../pic32mx/lib/micromips\libc-musl.a(memcpy.o)
 .debug_str     0x0000000000012ac4      0x348 c:/program files/microchip/xc32/v4.40/bin/bin/../../lib/gcc/pic32mx/8.3.1/../../../../pic32mx/lib/micromips\libc-musl.a(tolower.o)
 .debug_str     0x0000000000012e0c      0x348 c:/program files/microchip/xc32/v4.40/bin/bin/../../lib/gcc/pic32mx/8.3.1/../../../../pic32mx/lib/micromips\libc-musl.a(toupper.o)
 .debug_str     0x0000000000013154      0x3d9 c:/program files/microchip/xc32/v4.40/bin/bin/../../lib/gcc/pic32mx/8.3.1/../../../../pic32mx/lib/micromips\libc-musl.a(__int_vfprintf.o)
 .debug_str     0x000000000001352d      0x39e c:/program files/microchip/xc32/v4.40/bin/bin/../../lib/gcc/pic32mx/8.3.1/../../../../pic32mx/lib/micromips\libc-musl.a(__cvt_u.o)
 .debug_str     0x00000000000138cb      0x3c1 c:/program files/microchip/xc32/v4.40/bin/bin/../../lib/gcc/pic32mx/8.3.1/../../../../pic32mx/lib/micromips\libc-musl.a(__io_init_needed.o)
 .debug_str     0x0000000000013c8c      0x3c7 c:/program files/microchip/xc32/v4.40/bin/bin/../../lib/gcc/pic32mx/8.3.1/../../../../pic32mx/lib/micromips\libc-musl.a(__out.o)
 .debug_str     0x0000000000014053      0x3b0 c:/program files/microchip/xc32/v4.40/bin/bin/../../lib/gcc/pic32mx/8.3.1/../../../../pic32mx/lib/micromips\libc-musl.a(__pop_float.o)
 .debug_str     0x0000000000014403      0x44a c:/program files/microchip/xc32/v4.40/bin/bin/../../lib/gcc/pic32mx/8.3.1/../../../../pic32mx/lib/micromips\libc-musl.a(__stdio_close.o)
 .debug_str     0x000000000001484d      0x3d7 c:/program files/microchip/xc32/v4.40/bin/bin/../../lib/gcc/pic32mx/8.3.1/../../../../pic32mx/lib/micromips\libc-musl.a(putc.o)
 .debug_str     0x0000000000014c24      0x387 c:/program files/microchip/xc32/v4.40/bin/bin/../../lib/gcc/pic32mx/8.3.1/../../../../pic32mx/lib/micromips\libc-musl.a(__init_stdio.o)
 .debug_str     0x0000000000014fab      0x394 c:/program files/microchip/xc32/v4.40/bin/bin/../../lib/gcc/pic32mx/8.3.1/../../../../pic32mx/lib/micromips\libc-musl.a(__io_file_needed.o)
 .debug_str     0x000000000001533f      0x3ed c:/program files/microchip/xc32/v4.40/bin/bin/../../lib/gcc/pic32mx/8.3.1/micromips\libgcc.a(_udivdi3.o)
 .debug_str     0x000000000001572c      0x3ed c:/program files/microchip/xc32/v4.40/bin/bin/../../lib/gcc/pic32mx/8.3.1/micromips\libgcc.a(_umoddi3.o)
 .debug_str     0x0000000000015b19      0x338 c:/program files/microchip/xc32/v4.40/bin/bin/../../lib/gcc/pic32mx/8.3.1/../../../../pic32mx/lib/micromips\libpic32.a(write.o)
 .debug_str     0x0000000000015e51      0x338 c:/program files/microchip/xc32/v4.40/bin/bin/../../lib/gcc/pic32mx/8.3.1/../../../../pic32mx/lib/micromips\libpic32.a(lseek.o)
 .debug_str     0x0000000000016189      0x338 c:/program files/microchip/xc32/v4.40/bin/bin/../../lib/gcc/pic32mx/8.3.1/../../../../pic32mx/lib/micromips\libpic32.a(close.o)
 .debug_str     0x00000000000164c1      0x332 c:/program files/microchip/xc32/v4.40/bin/bin/../../lib/gcc/pic32mx/8.3.1/../../../../pic32mx/lib/micromips\libpic32.a(errno.o)

.debug_loc      0x0000000000000000     0xb4a7
 *.elf(.debug_loc)
 *(.debug_loc)
 .debug_loc     0x0000000000000000       0x51 build/default/debug/Cfg/Debug_Cfg.o
 .debug_loc     0x0000000000000051      0x848 build/default/debug/mcc_generated_files/drivers/i2c_master.o
 .debug_loc     0x0000000000000899      0x5a9 build/default/debug/mcc_generated_files/drivers/i2c_simple_master.o
 .debug_loc     0x0000000000000e42      0x169 build/default/debug/mcc_generated_files/drivers/spi_master.o
 .debug_loc     0x0000000000000fab      0x11a build/default/debug/mcc_generated_files/memory/flash_demo.o
 .debug_loc     0x00000000000010c5      0x294 build/default/debug/mcc_generated_files/memory/flash.o
 .debug_loc     0x0000000000001359      0x615 build/default/debug/flashfunc.o
 .debug_loc     0x000000000000196e      0x184 build/default/debug/mcc_generated_files/usb/usb_device_events.o
 .debug_loc     0x0000000000001af2      0x638 build/default/debug/mcc_generated_files/usb/usb_device.o
 .debug_loc     0x000000000000212a       0x97 build/default/debug/mcc_generated_files/usb/usb_descriptors.o
 .debug_loc     0x00000000000021c1      0x4c6 build/default/debug/mcc_generated_files/usb/usb_device_cdc.o
 .debug_loc     0x0000000000002687      0x598 build/default/debug/mcc_generated_files/uart3.o
 .debug_loc     0x0000000000002c1f       0x2c build/default/debug/mcc_generated_files/system.o
 .debug_loc     0x0000000000002c4b       0x9f build/default/debug/mcc_generated_files/coretimer.o
 .debug_loc     0x0000000000002cea       0x20 build/default/debug/mcc_generated_files/exceptions.o
 .debug_loc     0x0000000000002d0a      0x3cb build/default/debug/mcc_generated_files/pin_manager.o
 .debug_loc     0x00000000000030d5       0xd5 build/default/debug/mcc_generated_files/i2c1_driver.o
 .debug_loc     0x00000000000031aa      0x2c7 build/default/debug/mcc_generated_files/spi2_driver.o
 .debug_loc     0x0000000000003471      0x567 build/default/debug/mcc_generated_files/uart2.o
 .debug_loc     0x00000000000039d8      0x152 build/default/debug/_ext/1209153551/Buttons.o
 .debug_loc     0x0000000000003b2a      0xa21 build/default/debug/_ext/1362353914/TelitAtCmd.o
 .debug_loc     0x000000000000454b      0x26c build/default/debug/_ext/1362353914/TelitPwrCtrl.o
 .debug_loc     0x00000000000047b7      0xa31 build/default/debug/_ext/1124510853/Debug.o
 .debug_loc     0x00000000000051e8     0x2dce build/default/debug/_ext/1124510853/Utils.o
 .debug_loc     0x0000000000007fb6      0x18e build/default/debug/_ext/657024065/PIC32MM_Gpio.o
 .debug_loc     0x0000000000008144      0x199 build/default/debug/_ext/657024065/softWdt.o
 .debug_loc     0x00000000000082dd      0x150 build/default/debug/_ext/657024065/TaskManager.o
 .debug_loc     0x000000000000842d      0x191 build/default/debug/_ext/657024065/TickTimer.o
 .debug_loc     0x00000000000085be      0x30b build/default/debug/User/AppMain.o
 .debug_loc     0x00000000000088c9       0x50 build/default/debug/User/VCP.o
 .debug_loc     0x0000000000008919      0x1a7 build/default/debug/User/VCP_Debug.o
 .debug_loc     0x0000000000008ac0      0x172 build/default/debug/main.o
 .debug_loc     0x0000000000008c32       0x2c c:/program files/microchip/xc32/v4.40/bin/bin/../../lib/gcc/pic32mx/8.3.1/../../../../pic32mx/lib/micromips\libpic32.a(default-bootstrap-exception-handler.o)
 .debug_loc     0x0000000000008c5e       0x24 c:/program files/microchip/xc32/v4.40/bin/bin/../../lib/gcc/pic32mx/8.3.1/../../../../pic32mx/lib/micromips\libc-musl.a(rand.o)
 .debug_loc     0x0000000000008c82       0x47 c:/program files/microchip/xc32/v4.40/bin/bin/../../lib/gcc/pic32mx/8.3.1/../../../../pic32mx/lib/micromips\libc-musl.a(__sio_printf_cdnpsxX.o)
 .debug_loc     0x0000000000008cc9      0x241 c:/program files/microchip/xc32/v4.40/bin/bin/../../lib/gcc/pic32mx/8.3.1/../../../../pic32mx/lib/micromips\libc-musl.a(__fmt_d.o)
 .debug_loc     0x0000000000008f0a      0x11f c:/program files/microchip/xc32/v4.40/bin/bin/../../lib/gcc/pic32mx/8.3.1/../../../../pic32mx/lib/micromips\libc-musl.a(__fmt_s.o)
 .debug_loc     0x0000000000009029      0x317 c:/program files/microchip/xc32/v4.40/bin/bin/../../lib/gcc/pic32mx/8.3.1/../../../../pic32mx/lib/micromips\libc-musl.a(__fmt_x.o)
 .debug_loc     0x0000000000009340       0x40 c:/program files/microchip/xc32/v4.40/bin/bin/../../lib/gcc/pic32mx/8.3.1/../../../../pic32mx/lib/micromips\libc-musl.a(__pop_ptr.o)
 .debug_loc     0x0000000000009380      0x56c c:/program files/microchip/xc32/v4.40/bin/bin/../../lib/gcc/pic32mx/8.3.1/../../../../pic32mx/lib/micromips\libc-musl.a(__printf_core.o)
 .debug_loc     0x00000000000098ec       0x25 c:/program files/microchip/xc32/v4.40/bin/bin/../../lib/gcc/pic32mx/8.3.1/../../../../pic32mx/lib/micromips\libc-musl.a(putchar.o)
 .debug_loc     0x0000000000009911       0xbe c:/program files/microchip/xc32/v4.40/bin/bin/../../lib/gcc/pic32mx/8.3.1/../../../../pic32mx/lib/micromips\libc-musl.a(atoi.o)
 .debug_loc     0x00000000000099cf       0xd6 c:/program files/microchip/xc32/v4.40/bin/bin/../../lib/gcc/pic32mx/8.3.1/../../../../pic32mx/lib/micromips\libc-musl.a(memcpy.o)
 .debug_loc     0x0000000000009aa5       0x9f c:/program files/microchip/xc32/v4.40/bin/bin/../../lib/gcc/pic32mx/8.3.1/../../../../pic32mx/lib/micromips\libc-musl.a(__int_vfprintf.o)
 .debug_loc     0x0000000000009b44      0x1fe c:/program files/microchip/xc32/v4.40/bin/bin/../../lib/gcc/pic32mx/8.3.1/../../../../pic32mx/lib/micromips\libc-musl.a(__cvt_u.o)
 .debug_loc     0x0000000000009d42      0x1ab c:/program files/microchip/xc32/v4.40/bin/bin/../../lib/gcc/pic32mx/8.3.1/../../../../pic32mx/lib/micromips\libc-musl.a(__out.o)
 .debug_loc     0x0000000000009eed      0x130 c:/program files/microchip/xc32/v4.40/bin/bin/../../lib/gcc/pic32mx/8.3.1/../../../../pic32mx/lib/micromips\libc-musl.a(__stdio_close.o)
 .debug_loc     0x000000000000a01d       0xdb c:/program files/microchip/xc32/v4.40/bin/bin/../../lib/gcc/pic32mx/8.3.1/../../../../pic32mx/lib/micromips\libc-musl.a(putc.o)
 .debug_loc     0x000000000000a0f8      0x9f5 c:/program files/microchip/xc32/v4.40/bin/bin/../../lib/gcc/pic32mx/8.3.1/micromips\libgcc.a(_udivdi3.o)
 .debug_loc     0x000000000000aaed      0x99a c:/program files/microchip/xc32/v4.40/bin/bin/../../lib/gcc/pic32mx/8.3.1/micromips\libgcc.a(_umoddi3.o)
 .debug_loc     0x000000000000b487       0x20 c:/program files/microchip/xc32/v4.40/bin/bin/../../lib/gcc/pic32mx/8.3.1/../../../../pic32mx/lib/micromips\libpic32.a(write.o)

.debug_macinfo
 *.elf(.debug_macinfo)
 *(.debug_macinfo)

.debug_weaknames
 *.elf(.debug_weaknames)
 *(.debug_weaknames)

.debug_funcnames
 *.elf(.debug_funcnames)
 *(.debug_funcnames)

.debug_typenames
 *.elf(.debug_typenames)
 *(.debug_typenames)

.debug_varnames
 *.elf(.debug_varnames)
 *(.debug_varnames)

.debug_pubtypes
 *.elf(.debug_pubtypes)
 *(.debug_pubtypes)

.debug_ranges   0x0000000000000000     0x18b0
 *.elf(.debug_ranges)
 *(.debug_ranges)
 .debug_ranges  0x0000000000000000       0x10 build/default/debug/Cfg/Debug_Cfg.o
 .debug_ranges  0x0000000000000010       0x28 build/default/debug/mcc_generated_files/drivers/i2c_types.o
 .debug_ranges  0x0000000000000038      0x118 build/default/debug/mcc_generated_files/drivers/i2c_master.o
 .debug_ranges  0x0000000000000150       0x68 build/default/debug/mcc_generated_files/drivers/i2c_simple_master.o
 .debug_ranges  0x00000000000001b8       0x30 build/default/debug/mcc_generated_files/drivers/spi_master.o
 .debug_ranges  0x00000000000001e8       0x58 build/default/debug/mcc_generated_files/memory/flash_demo.o
 .debug_ranges  0x0000000000000240       0x58 build/default/debug/mcc_generated_files/memory/flash.o
 .debug_ranges  0x0000000000000298       0x68 build/default/debug/flashfunc.o
 .debug_ranges  0x0000000000000300       0x18 build/default/debug/mcc_generated_files/usb/usb_device_events.o
 .debug_ranges  0x0000000000000318      0x468 build/default/debug/mcc_generated_files/usb/usb_device.o
 .debug_ranges  0x0000000000000780       0x10 build/default/debug/mcc_generated_files/usb/usb_descriptors.o
 .debug_ranges  0x0000000000000790       0xa8 build/default/debug/mcc_generated_files/usb/usb_device_cdc.o
 .debug_ranges  0x0000000000000838       0xd8 build/default/debug/mcc_generated_files/uart3.o
 .debug_ranges  0x0000000000000910       0x10 build/default/debug/mcc_generated_files/system.o
 .debug_ranges  0x0000000000000920       0x38 build/default/debug/mcc_generated_files/coretimer.o
 .debug_ranges  0x0000000000000958       0x10 build/default/debug/mcc_generated_files/clock.o
 .debug_ranges  0x0000000000000968       0x10 build/default/debug/mcc_generated_files/exceptions.o
 .debug_ranges  0x0000000000000978       0x10 build/default/debug/mcc_generated_files/interrupt_manager.o
 .debug_ranges  0x0000000000000988       0xb8 build/default/debug/mcc_generated_files/pin_manager.o
 .debug_ranges  0x0000000000000a40      0x130 build/default/debug/mcc_generated_files/i2c1_driver.o
 .debug_ranges  0x0000000000000b70       0x50 build/default/debug/mcc_generated_files/spi2_driver.o
 .debug_ranges  0x0000000000000bc0       0xd8 build/default/debug/mcc_generated_files/uart2.o
 .debug_ranges  0x0000000000000c98       0x10 build/default/debug/_ext/1209153551/Buttons.o
 .debug_ranges  0x0000000000000ca8       0xa8 build/default/debug/_ext/1362353914/TelitAtCmd.o
 .debug_ranges  0x0000000000000d50       0x30 build/default/debug/_ext/1362353914/TelitPwrCtrl.o
 .debug_ranges  0x0000000000000d80       0x98 build/default/debug/_ext/1124510853/Debug.o
 .debug_ranges  0x0000000000000e18      0x298 build/default/debug/_ext/1124510853/Utils.o
 .debug_ranges  0x00000000000010b0       0x20 build/default/debug/_ext/657024065/PIC32MM_Gpio.o
 .debug_ranges  0x00000000000010d0       0x40 build/default/debug/_ext/657024065/softWdt.o
 .debug_ranges  0x0000000000001110       0x30 build/default/debug/_ext/657024065/TaskManager.o
 .debug_ranges  0x0000000000001140       0x20 build/default/debug/_ext/657024065/TickTimer.o
 .debug_ranges  0x0000000000001160      0x130 build/default/debug/User/AppMain.o
 .debug_ranges  0x0000000000001290       0x10 build/default/debug/User/VCP.o
 .debug_ranges  0x00000000000012a0       0x30 build/default/debug/User/VCP_Debug.o
 .debug_ranges  0x00000000000012d0       0xc0 build/default/debug/main.o
 .debug_ranges  0x0000000000001390       0x38 C:\Users\ADMIN\AppData\Local\Temp\ccMUuKnQ.o
 .debug_ranges  0x00000000000013c8       0x10 c:/program files/microchip/xc32/v4.40/bin/bin/../../lib/gcc/pic32mx/8.3.1/../../../../pic32mx/lib/micromips\libpic32.a(default-bootstrap-exception-handler.o)
 .debug_ranges  0x00000000000013d8       0x10 c:/program files/microchip/xc32/v4.40/bin/bin/../../lib/gcc/pic32mx/8.3.1/../../../../pic32mx/lib/micromips\libpic32.a(default-on-reset.o)
 .debug_ranges  0x00000000000013e8       0x10 c:/program files/microchip/xc32/v4.40/bin/bin/../../lib/gcc/pic32mx/8.3.1/../../../../pic32mx/lib/micromips\libpic32.a(default-on-bootstrap.o)
 .debug_ranges  0x00000000000013f8       0x10 c:/program files/microchip/xc32/v4.40/bin/bin/../../lib/gcc/pic32mx/8.3.1/../../../../pic32mx/lib/micromips\libpic32.a(defaultinterrupt.o)
 .debug_ranges  0x0000000000001408       0x18 c:/program files/microchip/xc32/v4.40/bin/bin/../../lib/gcc/pic32mx/8.3.1/../../../../pic32mx/lib/micromips\libc-musl.a(rand.o)
 .debug_ranges  0x0000000000001420       0x18 c:/program files/microchip/xc32/v4.40/bin/bin/../../lib/gcc/pic32mx/8.3.1/../../../../pic32mx/lib/micromips\libc-musl.a(__sio_printf_cdnpsxX.o)
 .debug_ranges  0x0000000000001438       0x10 c:/program files/microchip/xc32/v4.40/bin/bin/../../lib/gcc/pic32mx/8.3.1/../../../../pic32mx/lib/micromips\libc-musl.a(__fmt_d.o)
 .debug_ranges  0x0000000000001448       0x10 c:/program files/microchip/xc32/v4.40/bin/bin/../../lib/gcc/pic32mx/8.3.1/../../../../pic32mx/lib/micromips\libc-musl.a(__fmt_s.o)
 .debug_ranges  0x0000000000001458       0x10 c:/program files/microchip/xc32/v4.40/bin/bin/../../lib/gcc/pic32mx/8.3.1/../../../../pic32mx/lib/micromips\libc-musl.a(__fmt_x.o)
 .debug_ranges  0x0000000000001468       0x10 c:/program files/microchip/xc32/v4.40/bin/bin/../../lib/gcc/pic32mx/8.3.1/../../../../pic32mx/lib/micromips\libc-musl.a(__pop_int.o)
 .debug_ranges  0x0000000000001478       0x10 c:/program files/microchip/xc32/v4.40/bin/bin/../../lib/gcc/pic32mx/8.3.1/../../../../pic32mx/lib/micromips\libc-musl.a(__pop_ptr.o)
 .debug_ranges  0x0000000000001488       0xf0 c:/program files/microchip/xc32/v4.40/bin/bin/../../lib/gcc/pic32mx/8.3.1/../../../../pic32mx/lib/micromips\libc-musl.a(__printf_core.o)
 .debug_ranges  0x0000000000001578       0x20 c:/program files/microchip/xc32/v4.40/bin/bin/../../lib/gcc/pic32mx/8.3.1/../../../../pic32mx/lib/micromips\libc-musl.a(stdout.o)
 .debug_ranges  0x0000000000001598       0x10 c:/program files/microchip/xc32/v4.40/bin/bin/../../lib/gcc/pic32mx/8.3.1/../../../../pic32mx/lib/micromips\libc-musl.a(putchar.o)
 .debug_ranges  0x00000000000015a8       0x28 c:/program files/microchip/xc32/v4.40/bin/bin/../../lib/gcc/pic32mx/8.3.1/../../../../pic32mx/lib/micromips\libc-musl.a(atoi.o)
 .debug_ranges  0x00000000000015d0       0x10 c:/program files/microchip/xc32/v4.40/bin/bin/../../lib/gcc/pic32mx/8.3.1/../../../../pic32mx/lib/micromips\libc-musl.a(memcpy.o)
 .debug_ranges  0x00000000000015e0       0x18 c:/program files/microchip/xc32/v4.40/bin/bin/../../lib/gcc/pic32mx/8.3.1/../../../../pic32mx/lib/micromips\libc-musl.a(tolower.o)
 .debug_ranges  0x00000000000015f8       0x18 c:/program files/microchip/xc32/v4.40/bin/bin/../../lib/gcc/pic32mx/8.3.1/../../../../pic32mx/lib/micromips\libc-musl.a(toupper.o)
 .debug_ranges  0x0000000000001610       0x10 c:/program files/microchip/xc32/v4.40/bin/bin/../../lib/gcc/pic32mx/8.3.1/../../../../pic32mx/lib/micromips\libc-musl.a(__int_vfprintf.o)
 .debug_ranges  0x0000000000001620       0x10 c:/program files/microchip/xc32/v4.40/bin/bin/../../lib/gcc/pic32mx/8.3.1/../../../../pic32mx/lib/micromips\libc-musl.a(__cvt_u.o)
 .debug_ranges  0x0000000000001630       0x18 c:/program files/microchip/xc32/v4.40/bin/bin/../../lib/gcc/pic32mx/8.3.1/../../../../pic32mx/lib/micromips\libc-musl.a(__io_init_needed.o)
 .debug_ranges  0x0000000000001648       0x30 c:/program files/microchip/xc32/v4.40/bin/bin/../../lib/gcc/pic32mx/8.3.1/../../../../pic32mx/lib/micromips\libc-musl.a(__out.o)
 .debug_ranges  0x0000000000001678       0x10 c:/program files/microchip/xc32/v4.40/bin/bin/../../lib/gcc/pic32mx/8.3.1/../../../../pic32mx/lib/micromips\libc-musl.a(__pop_float.o)
 .debug_ranges  0x0000000000001688       0x18 c:/program files/microchip/xc32/v4.40/bin/bin/../../lib/gcc/pic32mx/8.3.1/../../../../pic32mx/lib/micromips\libc-musl.a(__stdio_close.o)
 .debug_ranges  0x00000000000016a0       0x20 c:/program files/microchip/xc32/v4.40/bin/bin/../../lib/gcc/pic32mx/8.3.1/../../../../pic32mx/lib/micromips\libc-musl.a(putc.o)
 .debug_ranges  0x00000000000016c0       0x18 c:/program files/microchip/xc32/v4.40/bin/bin/../../lib/gcc/pic32mx/8.3.1/../../../../pic32mx/lib/micromips\libc-musl.a(__init_stdio.o)
 .debug_ranges  0x00000000000016d8       0x10 c:/program files/microchip/xc32/v4.40/bin/bin/../../lib/gcc/pic32mx/8.3.1/../../../../pic32mx/lib/micromips\libc-musl.a(__io_file_needed.o)
 .debug_ranges  0x00000000000016e8       0xd8 c:/program files/microchip/xc32/v4.40/bin/bin/../../lib/gcc/pic32mx/8.3.1/micromips\libgcc.a(_udivdi3.o)
 .debug_ranges  0x00000000000017c0       0xc0 c:/program files/microchip/xc32/v4.40/bin/bin/../../lib/gcc/pic32mx/8.3.1/micromips\libgcc.a(_umoddi3.o)
 .debug_ranges  0x0000000000001880       0x10 c:/program files/microchip/xc32/v4.40/bin/bin/../../lib/gcc/pic32mx/8.3.1/../../../../pic32mx/lib/micromips\libpic32.a(write.o)
 .debug_ranges  0x0000000000001890       0x10 c:/program files/microchip/xc32/v4.40/bin/bin/../../lib/gcc/pic32mx/8.3.1/../../../../pic32mx/lib/micromips\libpic32.a(lseek.o)
 .debug_ranges  0x00000000000018a0       0x10 c:/program files/microchip/xc32/v4.40/bin/bin/../../lib/gcc/pic32mx/8.3.1/../../../../pic32mx/lib/micromips\libpic32.a(close.o)

.gnu.attributes
                0x0000000000000000       0x10
 *(.gnu.attributes)
 .gnu.attributes
                0x0000000000000000       0x10 c:/program files/microchip/xc32/v4.40/bin/bin/../../lib/gcc/pic32mx/8.3.1/../../../../pic32mx/lib/micromips\debug-exception-return.o
 .gnu.attributes
                0x0000000000000010       0x10 build/default/debug/Cfg/Debug_Cfg.o
 .gnu.attributes
                0x0000000000000020       0x10 build/default/debug/mcc_generated_files/drivers/i2c_types.o
 .gnu.attributes
                0x0000000000000030       0x10 build/default/debug/mcc_generated_files/drivers/i2c_master.o
 .gnu.attributes
                0x0000000000000040       0x10 build/default/debug/mcc_generated_files/drivers/i2c_simple_master.o
 .gnu.attributes
                0x0000000000000050       0x10 build/default/debug/mcc_generated_files/drivers/spi_master.o
 .gnu.attributes
                0x0000000000000060       0x10 build/default/debug/mcc_generated_files/memory/flash_demo.o
 .gnu.attributes
                0x0000000000000070       0x10 build/default/debug/mcc_generated_files/memory/flash.o
 .gnu.attributes
                0x0000000000000080       0x10 build/default/debug/flashfunc.o
 .gnu.attributes
                0x0000000000000090       0x10 build/default/debug/mcc_generated_files/usb/usb_device_generic.o
 .gnu.attributes
                0x00000000000000a0       0x10 build/default/debug/mcc_generated_files/usb/usb_device_events.o
 .gnu.attributes
                0x00000000000000b0       0x10 build/default/debug/mcc_generated_files/usb/usb_device.o
 .gnu.attributes
                0x00000000000000c0       0x10 build/default/debug/mcc_generated_files/usb/usb_descriptors.o
 .gnu.attributes
                0x00000000000000d0       0x10 build/default/debug/mcc_generated_files/usb/usb_device_cdc.o
 .gnu.attributes
                0x00000000000000e0       0x10 build/default/debug/mcc_generated_files/uart3.o
 .gnu.attributes
                0x00000000000000f0       0x10 build/default/debug/mcc_generated_files/system.o
 .gnu.attributes
                0x0000000000000100       0x10 build/default/debug/mcc_generated_files/coretimer.o
 .gnu.attributes
                0x0000000000000110       0x10 build/default/debug/mcc_generated_files/clock.o
 .gnu.attributes
                0x0000000000000120       0x10 build/default/debug/mcc_generated_files/exceptions.o
 .gnu.attributes
                0x0000000000000130       0x10 build/default/debug/mcc_generated_files/interrupt_manager.o
 .gnu.attributes
                0x0000000000000140       0x10 build/default/debug/mcc_generated_files/mcc.o
 .gnu.attributes
                0x0000000000000150       0x10 build/default/debug/mcc_generated_files/pin_manager.o
 .gnu.attributes
                0x0000000000000160       0x10 build/default/debug/mcc_generated_files/i2c1_driver.o
 .gnu.attributes
                0x0000000000000170       0x10 build/default/debug/mcc_generated_files/spi2_driver.o
 .gnu.attributes
                0x0000000000000180       0x10 build/default/debug/mcc_generated_files/uart2.o
 .gnu.attributes
                0x0000000000000190       0x10 build/default/debug/_ext/1209153551/Buttons.o
 .gnu.attributes
                0x00000000000001a0       0x10 build/default/debug/_ext/1362353914/TelitAtCmd.o
 .gnu.attributes
                0x00000000000001b0       0x10 build/default/debug/_ext/1362353914/TelitPwrCtrl.o
 .gnu.attributes
                0x00000000000001c0       0x10 build/default/debug/_ext/1124510853/Debug.o
 .gnu.attributes
                0x00000000000001d0       0x10 build/default/debug/_ext/1124510853/Utils.o
 .gnu.attributes
                0x00000000000001e0       0x10 build/default/debug/_ext/657024065/PIC32MM_Gpio.o
 .gnu.attributes
                0x00000000000001f0       0x10 build/default/debug/_ext/657024065/softWdt.o
 .gnu.attributes
                0x0000000000000200       0x10 build/default/debug/_ext/657024065/TaskManager.o
 .gnu.attributes
                0x0000000000000210       0x10 build/default/debug/_ext/657024065/TickTimer.o
 .gnu.attributes
                0x0000000000000220       0x10 build/default/debug/User/AppMain.o
 .gnu.attributes
                0x0000000000000230       0x10 build/default/debug/User/VCP.o
 .gnu.attributes
                0x0000000000000240       0x10 build/default/debug/User/VCP_Debug.o
 .gnu.attributes
                0x0000000000000250       0x10 build/default/debug/main.o
 .gnu.attributes
                0x0000000000000260       0x10 C:\Users\ADMIN\AppData\Local\Temp\ccMUuKnQ.o
 .gnu.attributes
                0x0000000000000270       0x10 C:\Users\ADMIN\AppData\Local\Temp\ccvzJgnR.o
 .gnu.attributes
                0x0000000000000280       0x10 C:\Users\ADMIN\AppData\Local\Temp\ccUDEFaV.o
 .gnu.attributes
                0x0000000000000290       0x10 c:/program files/microchip/xc32/v4.40/bin/bin/../../lib/gcc/pic32mx/8.3.1/../../../../pic32mx/lib/./proc/32MM0256GPM048\default_isr_vectors.o
 .gnu.attributes
                0x00000000000002a0       0x10 c:/program files/microchip/xc32/v4.40/bin/bin/../../lib/gcc/pic32mx/8.3.1/../../../../pic32mx/lib/micromips\pic32_software_reset.o
 .gnu.attributes
                0x00000000000002b0       0x10 c:/program files/microchip/xc32/v4.40/bin/bin/../../lib/gcc/pic32mx/8.3.1/../../../../pic32mx/lib/micromips\libpic32.a(memset.o)
 .gnu.attributes
                0x00000000000002c0       0x10 c:/program files/microchip/xc32/v4.40/bin/bin/../../lib/gcc/pic32mx/8.3.1/../../../../pic32mx/lib/micromips\libpic32.a(strcpy.o)
 .gnu.attributes
                0x00000000000002d0       0x10 c:/program files/microchip/xc32/v4.40/bin/bin/../../lib/gcc/pic32mx/8.3.1/../../../../pic32mx/lib/micromips\libpic32.a(strlen.o)
 .gnu.attributes
                0x00000000000002e0       0x10 c:/program files/microchip/xc32/v4.40/bin/bin/../../lib/gcc/pic32mx/8.3.1/../../../../pic32mx/lib/micromips\libpic32.a(default-bootstrap-exception-handler.o)
 .gnu.attributes
                0x00000000000002f0       0x10 c:/program files/microchip/xc32/v4.40/bin/bin/../../lib/gcc/pic32mx/8.3.1/../../../../pic32mx/lib/micromips\libpic32.a(default-on-reset.o)
 .gnu.attributes
                0x0000000000000300       0x10 c:/program files/microchip/xc32/v4.40/bin/bin/../../lib/gcc/pic32mx/8.3.1/../../../../pic32mx/lib/micromips\libpic32.a(default-on-bootstrap.o)
 .gnu.attributes
                0x0000000000000310       0x10 c:/program files/microchip/xc32/v4.40/bin/bin/../../lib/gcc/pic32mx/8.3.1/../../../../pic32mx/lib/micromips\libpic32.a(default-nmi-handler.o)
 .gnu.attributes
                0x0000000000000320       0x10 c:/program files/microchip/xc32/v4.40/bin/bin/../../lib/gcc/pic32mx/8.3.1/../../../../pic32mx/lib/micromips\libpic32.a(pic32_data_init_core.o)
 .gnu.attributes
                0x0000000000000330       0x10 c:/program files/microchip/xc32/v4.40/bin/bin/../../lib/gcc/pic32mx/8.3.1/../../../../pic32mx/lib/micromips\libpic32.a(general-exception.o)
 .gnu.attributes
                0x0000000000000340       0x10 c:/program files/microchip/xc32/v4.40/bin/bin/../../lib/gcc/pic32mx/8.3.1/../../../../pic32mx/lib/micromips\libpic32.a(vector1.o)
 .gnu.attributes
                0x0000000000000350       0x10 c:/program files/microchip/xc32/v4.40/bin/bin/../../lib/gcc/pic32mx/8.3.1/../../../../pic32mx/lib/micromips\libpic32.a(vector2.o)
 .gnu.attributes
                0x0000000000000360       0x10 c:/program files/microchip/xc32/v4.40/bin/bin/../../lib/gcc/pic32mx/8.3.1/../../../../pic32mx/lib/micromips\libpic32.a(vector3.o)
 .gnu.attributes
                0x0000000000000370       0x10 c:/program files/microchip/xc32/v4.40/bin/bin/../../lib/gcc/pic32mx/8.3.1/../../../../pic32mx/lib/micromips\libpic32.a(vector4.o)
 .gnu.attributes
                0x0000000000000380       0x10 c:/program files/microchip/xc32/v4.40/bin/bin/../../lib/gcc/pic32mx/8.3.1/../../../../pic32mx/lib/micromips\libpic32.a(vector5.o)
 .gnu.attributes
                0x0000000000000390       0x10 c:/program files/microchip/xc32/v4.40/bin/bin/../../lib/gcc/pic32mx/8.3.1/../../../../pic32mx/lib/micromips\libpic32.a(vector6.o)
 .gnu.attributes
                0x00000000000003a0       0x10 c:/program files/microchip/xc32/v4.40/bin/bin/../../lib/gcc/pic32mx/8.3.1/../../../../pic32mx/lib/micromips\libpic32.a(vector7.o)
 .gnu.attributes
                0x00000000000003b0       0x10 c:/program files/microchip/xc32/v4.40/bin/bin/../../lib/gcc/pic32mx/8.3.1/../../../../pic32mx/lib/micromips\libpic32.a(vector11.o)
 .gnu.attributes
                0x00000000000003c0       0x10 c:/program files/microchip/xc32/v4.40/bin/bin/../../lib/gcc/pic32mx/8.3.1/../../../../pic32mx/lib/micromips\libpic32.a(vector12.o)
 .gnu.attributes
                0x00000000000003d0       0x10 c:/program files/microchip/xc32/v4.40/bin/bin/../../lib/gcc/pic32mx/8.3.1/../../../../pic32mx/lib/micromips\libpic32.a(vector13.o)
 .gnu.attributes
                0x00000000000003e0       0x10 c:/program files/microchip/xc32/v4.40/bin/bin/../../lib/gcc/pic32mx/8.3.1/../../../../pic32mx/lib/micromips\libpic32.a(vector14.o)
 .gnu.attributes
                0x00000000000003f0       0x10 c:/program files/microchip/xc32/v4.40/bin/bin/../../lib/gcc/pic32mx/8.3.1/../../../../pic32mx/lib/micromips\libpic32.a(vector15.o)
 .gnu.attributes
                0x0000000000000400       0x10 c:/program files/microchip/xc32/v4.40/bin/bin/../../lib/gcc/pic32mx/8.3.1/../../../../pic32mx/lib/micromips\libpic32.a(vector16.o)
 .gnu.attributes
                0x0000000000000410       0x10 c:/program files/microchip/xc32/v4.40/bin/bin/../../lib/gcc/pic32mx/8.3.1/../../../../pic32mx/lib/micromips\libpic32.a(vector17.o)
 .gnu.attributes
                0x0000000000000420       0x10 c:/program files/microchip/xc32/v4.40/bin/bin/../../lib/gcc/pic32mx/8.3.1/../../../../pic32mx/lib/micromips\libpic32.a(vector18.o)
 .gnu.attributes
                0x0000000000000430       0x10 c:/program files/microchip/xc32/v4.40/bin/bin/../../lib/gcc/pic32mx/8.3.1/../../../../pic32mx/lib/micromips\libpic32.a(vector19.o)
 .gnu.attributes
                0x0000000000000440       0x10 c:/program files/microchip/xc32/v4.40/bin/bin/../../lib/gcc/pic32mx/8.3.1/../../../../pic32mx/lib/micromips\libpic32.a(vector20.o)
 .gnu.attributes
                0x0000000000000450       0x10 c:/program files/microchip/xc32/v4.40/bin/bin/../../lib/gcc/pic32mx/8.3.1/../../../../pic32mx/lib/micromips\libpic32.a(vector21.o)
 .gnu.attributes
                0x0000000000000460       0x10 c:/program files/microchip/xc32/v4.40/bin/bin/../../lib/gcc/pic32mx/8.3.1/../../../../pic32mx/lib/micromips\libpic32.a(vector22.o)
 .gnu.attributes
                0x0000000000000470       0x10 c:/program files/microchip/xc32/v4.40/bin/bin/../../lib/gcc/pic32mx/8.3.1/../../../../pic32mx/lib/micromips\libpic32.a(vector23.o)
 .gnu.attributes
                0x0000000000000480       0x10 c:/program files/microchip/xc32/v4.40/bin/bin/../../lib/gcc/pic32mx/8.3.1/../../../../pic32mx/lib/micromips\libpic32.a(vector24.o)
 .gnu.attributes
                0x0000000000000490       0x10 c:/program files/microchip/xc32/v4.40/bin/bin/../../lib/gcc/pic32mx/8.3.1/../../../../pic32mx/lib/micromips\libpic32.a(vector25.o)
 .gnu.attributes
                0x00000000000004a0       0x10 c:/program files/microchip/xc32/v4.40/bin/bin/../../lib/gcc/pic32mx/8.3.1/../../../../pic32mx/lib/micromips\libpic32.a(vector26.o)
 .gnu.attributes
                0x00000000000004b0       0x10 c:/program files/microchip/xc32/v4.40/bin/bin/../../lib/gcc/pic32mx/8.3.1/../../../../pic32mx/lib/micromips\libpic32.a(vector27.o)
 .gnu.attributes
                0x00000000000004c0       0x10 c:/program files/microchip/xc32/v4.40/bin/bin/../../lib/gcc/pic32mx/8.3.1/../../../../pic32mx/lib/micromips\libpic32.a(vector28.o)
 .gnu.attributes
                0x00000000000004d0       0x10 c:/program files/microchip/xc32/v4.40/bin/bin/../../lib/gcc/pic32mx/8.3.1/../../../../pic32mx/lib/micromips\libpic32.a(vector30.o)
 .gnu.attributes
                0x00000000000004e0       0x10 c:/program files/microchip/xc32/v4.40/bin/bin/../../lib/gcc/pic32mx/8.3.1/../../../../pic32mx/lib/micromips\libpic32.a(vector31.o)
 .gnu.attributes
                0x00000000000004f0       0x10 c:/program files/microchip/xc32/v4.40/bin/bin/../../lib/gcc/pic32mx/8.3.1/../../../../pic32mx/lib/micromips\libpic32.a(vector32.o)
 .gnu.attributes
                0x0000000000000500       0x10 c:/program files/microchip/xc32/v4.40/bin/bin/../../lib/gcc/pic32mx/8.3.1/../../../../pic32mx/lib/micromips\libpic32.a(vector33.o)
 .gnu.attributes
                0x0000000000000510       0x10 c:/program files/microchip/xc32/v4.40/bin/bin/../../lib/gcc/pic32mx/8.3.1/../../../../pic32mx/lib/micromips\libpic32.a(vector34.o)
 .gnu.attributes
                0x0000000000000520       0x10 c:/program files/microchip/xc32/v4.40/bin/bin/../../lib/gcc/pic32mx/8.3.1/../../../../pic32mx/lib/micromips\libpic32.a(vector35.o)
 .gnu.attributes
                0x0000000000000530       0x10 c:/program files/microchip/xc32/v4.40/bin/bin/../../lib/gcc/pic32mx/8.3.1/../../../../pic32mx/lib/micromips\libpic32.a(vector36.o)
 .gnu.attributes
                0x0000000000000540       0x10 c:/program files/microchip/xc32/v4.40/bin/bin/../../lib/gcc/pic32mx/8.3.1/../../../../pic32mx/lib/micromips\libpic32.a(vector37.o)
 .gnu.attributes
                0x0000000000000550       0x10 c:/program files/microchip/xc32/v4.40/bin/bin/../../lib/gcc/pic32mx/8.3.1/../../../../pic32mx/lib/micromips\libpic32.a(vector38.o)
 .gnu.attributes
                0x0000000000000560       0x10 c:/program files/microchip/xc32/v4.40/bin/bin/../../lib/gcc/pic32mx/8.3.1/../../../../pic32mx/lib/micromips\libpic32.a(vector39.o)
 .gnu.attributes
                0x0000000000000570       0x10 c:/program files/microchip/xc32/v4.40/bin/bin/../../lib/gcc/pic32mx/8.3.1/../../../../pic32mx/lib/micromips\libpic32.a(vector40.o)
 .gnu.attributes
                0x0000000000000580       0x10 c:/program files/microchip/xc32/v4.40/bin/bin/../../lib/gcc/pic32mx/8.3.1/../../../../pic32mx/lib/micromips\libpic32.a(vector41.o)
 .gnu.attributes
                0x0000000000000590       0x10 c:/program files/microchip/xc32/v4.40/bin/bin/../../lib/gcc/pic32mx/8.3.1/../../../../pic32mx/lib/micromips\libpic32.a(vector42.o)
 .gnu.attributes
                0x00000000000005a0       0x10 c:/program files/microchip/xc32/v4.40/bin/bin/../../lib/gcc/pic32mx/8.3.1/../../../../pic32mx/lib/micromips\libpic32.a(vector43.o)
 .gnu.attributes
                0x00000000000005b0       0x10 c:/program files/microchip/xc32/v4.40/bin/bin/../../lib/gcc/pic32mx/8.3.1/../../../../pic32mx/lib/micromips\libpic32.a(vector44.o)
 .gnu.attributes
                0x00000000000005c0       0x10 c:/program files/microchip/xc32/v4.40/bin/bin/../../lib/gcc/pic32mx/8.3.1/../../../../pic32mx/lib/micromips\libpic32.a(vector45.o)
 .gnu.attributes
                0x00000000000005d0       0x10 c:/program files/microchip/xc32/v4.40/bin/bin/../../lib/gcc/pic32mx/8.3.1/../../../../pic32mx/lib/micromips\libpic32.a(vector46.o)
 .gnu.attributes
                0x00000000000005e0       0x10 c:/program files/microchip/xc32/v4.40/bin/bin/../../lib/gcc/pic32mx/8.3.1/../../../../pic32mx/lib/micromips\libpic32.a(vector47.o)
 .gnu.attributes
                0x00000000000005f0       0x10 c:/program files/microchip/xc32/v4.40/bin/bin/../../lib/gcc/pic32mx/8.3.1/../../../../pic32mx/lib/micromips\libpic32.a(vector48.o)
 .gnu.attributes
                0x0000000000000600       0x10 c:/program files/microchip/xc32/v4.40/bin/bin/../../lib/gcc/pic32mx/8.3.1/../../../../pic32mx/lib/micromips\libpic32.a(vector49.o)
 .gnu.attributes
                0x0000000000000610       0x10 c:/program files/microchip/xc32/v4.40/bin/bin/../../lib/gcc/pic32mx/8.3.1/../../../../pic32mx/lib/micromips\libpic32.a(vector50.o)
 .gnu.attributes
                0x0000000000000620       0x10 c:/program files/microchip/xc32/v4.40/bin/bin/../../lib/gcc/pic32mx/8.3.1/../../../../pic32mx/lib/micromips\libpic32.a(vector51.o)
 .gnu.attributes
                0x0000000000000630       0x10 c:/program files/microchip/xc32/v4.40/bin/bin/../../lib/gcc/pic32mx/8.3.1/../../../../pic32mx/lib/micromips\libpic32.a(vector52.o)
 .gnu.attributes
                0x0000000000000640       0x10 c:/program files/microchip/xc32/v4.40/bin/bin/../../lib/gcc/pic32mx/8.3.1/../../../../pic32mx/lib/micromips\libpic32.a(vector53.o)
 .gnu.attributes
                0x0000000000000650       0x10 c:/program files/microchip/xc32/v4.40/bin/bin/../../lib/gcc/pic32mx/8.3.1/../../../../pic32mx/lib/micromips\libpic32.a(vector54.o)
 .gnu.attributes
                0x0000000000000660       0x10 c:/program files/microchip/xc32/v4.40/bin/bin/../../lib/gcc/pic32mx/8.3.1/../../../../pic32mx/lib/micromips\libpic32.a(vector55.o)
 .gnu.attributes
                0x0000000000000670       0x10 c:/program files/microchip/xc32/v4.40/bin/bin/../../lib/gcc/pic32mx/8.3.1/../../../../pic32mx/lib/micromips\libpic32.a(vector62.o)
 .gnu.attributes
                0x0000000000000680       0x10 c:/program files/microchip/xc32/v4.40/bin/bin/../../lib/gcc/pic32mx/8.3.1/../../../../pic32mx/lib/micromips\libpic32.a(vector63.o)
 .gnu.attributes
                0x0000000000000690       0x10 c:/program files/microchip/xc32/v4.40/bin/bin/../../lib/gcc/pic32mx/8.3.1/../../../../pic32mx/lib/micromips\libpic32.a(vector64.o)
 .gnu.attributes
                0x00000000000006a0       0x10 c:/program files/microchip/xc32/v4.40/bin/bin/../../lib/gcc/pic32mx/8.3.1/../../../../pic32mx/lib/micromips\libpic32.a(vector68.o)
 .gnu.attributes
                0x00000000000006b0       0x10 c:/program files/microchip/xc32/v4.40/bin/bin/../../lib/gcc/pic32mx/8.3.1/../../../../pic32mx/lib/micromips\libpic32.a(vector69.o)
 .gnu.attributes
                0x00000000000006c0       0x10 c:/program files/microchip/xc32/v4.40/bin/bin/../../lib/gcc/pic32mx/8.3.1/../../../../pic32mx/lib/micromips\libpic32.a(vector70.o)
 .gnu.attributes
                0x00000000000006d0       0x10 c:/program files/microchip/xc32/v4.40/bin/bin/../../lib/gcc/pic32mx/8.3.1/../../../../pic32mx/lib/micromips\libpic32.a(vector71.o)
 .gnu.attributes
                0x00000000000006e0       0x10 c:/program files/microchip/xc32/v4.40/bin/bin/../../lib/gcc/pic32mx/8.3.1/../../../../pic32mx/lib/micromips\libpic32.a(vector72.o)
 .gnu.attributes
                0x00000000000006f0       0x10 c:/program files/microchip/xc32/v4.40/bin/bin/../../lib/gcc/pic32mx/8.3.1/../../../../pic32mx/lib/micromips\libpic32.a(vector73.o)
 .gnu.attributes
                0x0000000000000700       0x10 c:/program files/microchip/xc32/v4.40/bin/bin/../../lib/gcc/pic32mx/8.3.1/../../../../pic32mx/lib/micromips\libpic32.a(vector74.o)
 .gnu.attributes
                0x0000000000000710       0x10 c:/program files/microchip/xc32/v4.40/bin/bin/../../lib/gcc/pic32mx/8.3.1/../../../../pic32mx/lib/micromips\libpic32.a(vector75.o)
 .gnu.attributes
                0x0000000000000720       0x10 c:/program files/microchip/xc32/v4.40/bin/bin/../../lib/gcc/pic32mx/8.3.1/../../../../pic32mx/lib/micromips\libpic32.a(vector76.o)
 .gnu.attributes
                0x0000000000000730       0x10 c:/program files/microchip/xc32/v4.40/bin/bin/../../lib/gcc/pic32mx/8.3.1/../../../../pic32mx/lib/micromips\libpic32.a(vector77.o)
 .gnu.attributes
                0x0000000000000740       0x10 c:/program files/microchip/xc32/v4.40/bin/bin/../../lib/gcc/pic32mx/8.3.1/../../../../pic32mx/lib/micromips\libpic32.a(vector78.o)
 .gnu.attributes
                0x0000000000000750       0x10 c:/program files/microchip/xc32/v4.40/bin/bin/../../lib/gcc/pic32mx/8.3.1/../../../../pic32mx/lib/micromips\libpic32.a(vector79.o)
 .gnu.attributes
                0x0000000000000760       0x10 c:/program files/microchip/xc32/v4.40/bin/bin/../../lib/gcc/pic32mx/8.3.1/../../../../pic32mx/lib/micromips\libpic32.a(vector80.o)
 .gnu.attributes
                0x0000000000000770       0x10 c:/program files/microchip/xc32/v4.40/bin/bin/../../lib/gcc/pic32mx/8.3.1/../../../../pic32mx/lib/micromips\libpic32.a(vector81.o)
 .gnu.attributes
                0x0000000000000780       0x10 c:/program files/microchip/xc32/v4.40/bin/bin/../../lib/gcc/pic32mx/8.3.1/../../../../pic32mx/lib/micromips\libpic32.a(vector82.o)
 .gnu.attributes
                0x0000000000000790       0x10 c:/program files/microchip/xc32/v4.40/bin/bin/../../lib/gcc/pic32mx/8.3.1/../../../../pic32mx/lib/micromips\libpic32.a(vector83.o)
 .gnu.attributes
                0x00000000000007a0       0x10 c:/program files/microchip/xc32/v4.40/bin/bin/../../lib/gcc/pic32mx/8.3.1/../../../../pic32mx/lib/micromips\libpic32.a(vector84.o)
 .gnu.attributes
                0x00000000000007b0       0x10 c:/program files/microchip/xc32/v4.40/bin/bin/../../lib/gcc/pic32mx/8.3.1/../../../../pic32mx/lib/micromips\libpic32.a(vector85.o)
 .gnu.attributes
                0x00000000000007c0       0x10 c:/program files/microchip/xc32/v4.40/bin/bin/../../lib/gcc/pic32mx/8.3.1/../../../../pic32mx/lib/micromips\libpic32.a(vector86.o)
 .gnu.attributes
                0x00000000000007d0       0x10 c:/program files/microchip/xc32/v4.40/bin/bin/../../lib/gcc/pic32mx/8.3.1/../../../../pic32mx/lib/micromips\libpic32.a(vector87.o)
 .gnu.attributes
                0x00000000000007e0       0x10 c:/program files/microchip/xc32/v4.40/bin/bin/../../lib/gcc/pic32mx/8.3.1/../../../../pic32mx/lib/micromips\libpic32.a(vector88.o)
 .gnu.attributes
                0x00000000000007f0       0x10 c:/program files/microchip/xc32/v4.40/bin/bin/../../lib/gcc/pic32mx/8.3.1/../../../../pic32mx/lib/micromips\libpic32.a(vector89.o)
 .gnu.attributes
                0x0000000000000800       0x10 c:/program files/microchip/xc32/v4.40/bin/bin/../../lib/gcc/pic32mx/8.3.1/../../../../pic32mx/lib/micromips\libpic32.a(vector90.o)
 .gnu.attributes
                0x0000000000000810       0x10 c:/program files/microchip/xc32/v4.40/bin/bin/../../lib/gcc/pic32mx/8.3.1/../../../../pic32mx/lib/micromips\libpic32.a(vector91.o)
 .gnu.attributes
                0x0000000000000820       0x10 c:/program files/microchip/xc32/v4.40/bin/bin/../../lib/gcc/pic32mx/8.3.1/../../../../pic32mx/lib/micromips\libpic32.a(vector92.o)
 .gnu.attributes
                0x0000000000000830       0x10 c:/program files/microchip/xc32/v4.40/bin/bin/../../lib/gcc/pic32mx/8.3.1/../../../../pic32mx/lib/micromips\libpic32.a(vector93.o)
 .gnu.attributes
                0x0000000000000840       0x10 c:/program files/microchip/xc32/v4.40/bin/bin/../../lib/gcc/pic32mx/8.3.1/../../../../pic32mx/lib/micromips\libpic32.a(vector94.o)
 .gnu.attributes
                0x0000000000000850       0x10 c:/program files/microchip/xc32/v4.40/bin/bin/../../lib/gcc/pic32mx/8.3.1/../../../../pic32mx/lib/micromips\libpic32.a(vector95.o)
 .gnu.attributes
                0x0000000000000860       0x10 c:/program files/microchip/xc32/v4.40/bin/bin/../../lib/gcc/pic32mx/8.3.1/../../../../pic32mx/lib/micromips\libpic32.a(vector96.o)
 .gnu.attributes
                0x0000000000000870       0x10 c:/program files/microchip/xc32/v4.40/bin/bin/../../lib/gcc/pic32mx/8.3.1/../../../../pic32mx/lib/micromips\libpic32.a(vector97.o)
 .gnu.attributes
                0x0000000000000880       0x10 c:/program files/microchip/xc32/v4.40/bin/bin/../../lib/gcc/pic32mx/8.3.1/../../../../pic32mx/lib/micromips\libpic32.a(vector98.o)
 .gnu.attributes
                0x0000000000000890       0x10 c:/program files/microchip/xc32/v4.40/bin/bin/../../lib/gcc/pic32mx/8.3.1/../../../../pic32mx/lib/micromips\libpic32.a(vector99.o)
 .gnu.attributes
                0x00000000000008a0       0x10 c:/program files/microchip/xc32/v4.40/bin/bin/../../lib/gcc/pic32mx/8.3.1/../../../../pic32mx/lib/micromips\libpic32.a(vector100.o)
 .gnu.attributes
                0x00000000000008b0       0x10 c:/program files/microchip/xc32/v4.40/bin/bin/../../lib/gcc/pic32mx/8.3.1/../../../../pic32mx/lib/micromips\libpic32.a(vector101.o)
 .gnu.attributes
                0x00000000000008c0       0x10 c:/program files/microchip/xc32/v4.40/bin/bin/../../lib/gcc/pic32mx/8.3.1/../../../../pic32mx/lib/micromips\libpic32.a(defaultinterrupt.o)
 .gnu.attributes
                0x00000000000008d0       0x10 c:/program files/microchip/xc32/v4.40/bin/bin/../../lib/gcc/pic32mx/8.3.1/../../../../pic32mx/lib/micromips\libc-musl.a(rand.o)
 .gnu.attributes
                0x00000000000008e0       0x10 c:/program files/microchip/xc32/v4.40/bin/bin/../../lib/gcc/pic32mx/8.3.1/../../../../pic32mx/lib/micromips\libc-musl.a(__sio_printf_cdnpsxX.o)
 .gnu.attributes
                0x00000000000008f0       0x10 c:/program files/microchip/xc32/v4.40/bin/bin/../../lib/gcc/pic32mx/8.3.1/../../../../pic32mx/lib/micromips\libc-musl.a(__fmt_d.o)
 .gnu.attributes
                0x0000000000000900       0x10 c:/program files/microchip/xc32/v4.40/bin/bin/../../lib/gcc/pic32mx/8.3.1/../../../../pic32mx/lib/micromips\libc-musl.a(__fmt_s.o)
 .gnu.attributes
                0x0000000000000910       0x10 c:/program files/microchip/xc32/v4.40/bin/bin/../../lib/gcc/pic32mx/8.3.1/../../../../pic32mx/lib/micromips\libc-musl.a(__fmt_x.o)
 .gnu.attributes
                0x0000000000000920       0x10 c:/program files/microchip/xc32/v4.40/bin/bin/../../lib/gcc/pic32mx/8.3.1/../../../../pic32mx/lib/micromips\libc-musl.a(__pop_int.o)
 .gnu.attributes
                0x0000000000000930       0x10 c:/program files/microchip/xc32/v4.40/bin/bin/../../lib/gcc/pic32mx/8.3.1/../../../../pic32mx/lib/micromips\libc-musl.a(__pop_ptr.o)
 .gnu.attributes
                0x0000000000000940       0x10 c:/program files/microchip/xc32/v4.40/bin/bin/../../lib/gcc/pic32mx/8.3.1/../../../../pic32mx/lib/micromips\libc-musl.a(__printf_core.o)
 .gnu.attributes
                0x0000000000000950       0x10 c:/program files/microchip/xc32/v4.40/bin/bin/../../lib/gcc/pic32mx/8.3.1/../../../../pic32mx/lib/micromips\libc-musl.a(stdout.o)
 .gnu.attributes
                0x0000000000000960       0x10 c:/program files/microchip/xc32/v4.40/bin/bin/../../lib/gcc/pic32mx/8.3.1/../../../../pic32mx/lib/micromips\libc-musl.a(putchar.o)
 .gnu.attributes
                0x0000000000000970       0x10 c:/program files/microchip/xc32/v4.40/bin/bin/../../lib/gcc/pic32mx/8.3.1/../../../../pic32mx/lib/micromips\libc-musl.a(atoi.o)
 .gnu.attributes
                0x0000000000000980       0x10 c:/program files/microchip/xc32/v4.40/bin/bin/../../lib/gcc/pic32mx/8.3.1/../../../../pic32mx/lib/micromips\libc-musl.a(memcpy.o)
 .gnu.attributes
                0x0000000000000990       0x10 c:/program files/microchip/xc32/v4.40/bin/bin/../../lib/gcc/pic32mx/8.3.1/../../../../pic32mx/lib/micromips\libc-musl.a(tolower.o)
 .gnu.attributes
                0x00000000000009a0       0x10 c:/program files/microchip/xc32/v4.40/bin/bin/../../lib/gcc/pic32mx/8.3.1/../../../../pic32mx/lib/micromips\libc-musl.a(toupper.o)
 .gnu.attributes
                0x00000000000009b0       0x10 c:/program files/microchip/xc32/v4.40/bin/bin/../../lib/gcc/pic32mx/8.3.1/../../../../pic32mx/lib/micromips\libc-musl.a(__int_vfprintf.o)
 .gnu.attributes
                0x00000000000009c0       0x10 c:/program files/microchip/xc32/v4.40/bin/bin/../../lib/gcc/pic32mx/8.3.1/../../../../pic32mx/lib/micromips\libc-musl.a(__cvt_u.o)
 .gnu.attributes
                0x00000000000009d0       0x10 c:/program files/microchip/xc32/v4.40/bin/bin/../../lib/gcc/pic32mx/8.3.1/../../../../pic32mx/lib/micromips\libc-musl.a(__io_init_needed.o)
 .gnu.attributes
                0x00000000000009e0       0x10 c:/program files/microchip/xc32/v4.40/bin/bin/../../lib/gcc/pic32mx/8.3.1/../../../../pic32mx/lib/micromips\libc-musl.a(__out.o)
 .gnu.attributes
                0x00000000000009f0       0x10 c:/program files/microchip/xc32/v4.40/bin/bin/../../lib/gcc/pic32mx/8.3.1/../../../../pic32mx/lib/micromips\libc-musl.a(__pop_float.o)
 .gnu.attributes
                0x0000000000000a00       0x10 c:/program files/microchip/xc32/v4.40/bin/bin/../../lib/gcc/pic32mx/8.3.1/../../../../pic32mx/lib/micromips\libc-musl.a(__stdio_close.o)
 .gnu.attributes
                0x0000000000000a10       0x10 c:/program files/microchip/xc32/v4.40/bin/bin/../../lib/gcc/pic32mx/8.3.1/../../../../pic32mx/lib/micromips\libc-musl.a(putc.o)
 .gnu.attributes
                0x0000000000000a20       0x10 c:/program files/microchip/xc32/v4.40/bin/bin/../../lib/gcc/pic32mx/8.3.1/../../../../pic32mx/lib/micromips\libc-musl.a(__init_stdio.o)
 .gnu.attributes
                0x0000000000000a30       0x10 c:/program files/microchip/xc32/v4.40/bin/bin/../../lib/gcc/pic32mx/8.3.1/../../../../pic32mx/lib/micromips\libc-musl.a(__io_file_needed.o)
 .gnu.attributes
                0x0000000000000a40       0x10 c:/program files/microchip/xc32/v4.40/bin/bin/../../lib/gcc/pic32mx/8.3.1/micromips\libgcc.a(_udivdi3.o)
 .gnu.attributes
                0x0000000000000a50       0x10 c:/program files/microchip/xc32/v4.40/bin/bin/../../lib/gcc/pic32mx/8.3.1/micromips\libgcc.a(_umoddi3.o)
 .gnu.attributes
                0x0000000000000a60       0x10 c:/program files/microchip/xc32/v4.40/bin/bin/../../lib/gcc/pic32mx/8.3.1/../../../../pic32mx/lib/micromips\libpic32.a(write.o)
 .gnu.attributes
                0x0000000000000a70       0x10 c:/program files/microchip/xc32/v4.40/bin/bin/../../lib/gcc/pic32mx/8.3.1/../../../../pic32mx/lib/micromips\libpic32.a(lseek.o)
 .gnu.attributes
                0x0000000000000a80       0x10 c:/program files/microchip/xc32/v4.40/bin/bin/../../lib/gcc/pic32mx/8.3.1/../../../../pic32mx/lib/micromips\libpic32.a(close.o)
 .gnu.attributes
                0x0000000000000a90       0x10 c:/program files/microchip/xc32/v4.40/bin/bin/../../lib/gcc/pic32mx/8.3.1/../../../../pic32mx/lib/micromips\libpic32.a(errno.o)
 .gnu.attributes
                0x0000000000000aa0       0x10 c:/program files/microchip/xc32/v4.40/bin/bin/../../lib/gcc/pic32mx/8.3.1/../../../../pic32mx/lib/micromips\libpic32.a(pic32_data_init_clear.o)
 .gnu.attributes
                0x0000000000000ab0       0x10 c:/program files/microchip/xc32/v4.40/bin/bin/../../lib/gcc/pic32mx/8.3.1/../../../../pic32mx/lib/micromips\libpic32.a(pic32_data_init_copy.o)
 .gnu.attributes
                0x0000000000000ac0       0x10 c:/program files/microchip/xc32/v4.40/bin/bin/../../lib/gcc/pic32mx/8.3.1/../../../../pic32mx/lib/micromips\libpic32.a(pic32_data_init_decompress.o)
                0x0000000000000001                __MPLAB_DEBUG = 0x1
                0x0000000000000001                __DEBUG = 0x1
                0x0000000000001000                _min_heap_size = 0x1000
                0x0000000000000800                _min_stack_size = 0x800
LOAD C:\Users\ADMIN\AppData\Local\Temp\ccMUuKnQ.o
LOAD C:\Users\ADMIN\AppData\Local\Temp\ccvzJgnR.o
LOAD C:\Users\ADMIN\AppData\Local\Temp\ccUDEFaV.o
LOAD c:/program files/microchip/xc32/v4.40/bin/bin/../../lib/gcc/pic32mx/8.3.1/../../../../pic32mx/lib/./proc/32MM0256GPM048\default_isr_vectors.o
LOAD c:/program files/microchip/xc32/v4.40/bin/bin/../../lib/gcc/pic32mx/8.3.1/../../../../pic32mx/lib/micromips\pic32_software_reset.o
LOAD c:/program files/microchip/xc32/v4.40/bin/bin/../../lib/gcc/pic32mx/8.3.1/micromips\libgcc.a
START GROUP
LOAD c:/program files/microchip/xc32/v4.40/bin/bin/../../lib/gcc/pic32mx/8.3.1/../../../../pic32mx/lib/micromips\libpic32.a
LOAD c:/program files/microchip/xc32/v4.40/bin/bin/../../lib/gcc/pic32mx/8.3.1/../../../../pic32mx/lib/micromips\liblmalloc-musl.a
LOAD c:/program files/microchip/xc32/v4.40/bin/bin/../../lib/gcc/pic32mx/8.3.1/../../../../pic32mx/lib/micromips\libdebug.a
LOAD c:/program files/microchip/xc32/v4.40/bin/bin/../../lib/gcc/pic32mx/8.3.1/../../../../pic32mx/lib/micromips\libc-musl.a
LOAD c:/program files/microchip/xc32/v4.40/bin/bin/../../lib/gcc/pic32mx/8.3.1/../../../../pic32mx/lib/micromips\libm.a
LOAD c:/program files/microchip/xc32/v4.40/bin/bin/../../lib/gcc/pic32mx/8.3.1/../../../../pic32mx/lib/micromips\libe.a
LOAD c:/program files/microchip/xc32/v4.40/bin/bin/../../lib/gcc/pic32mx/8.3.1/../../../../pic32mx/lib/micromips\libm-musl.a
LOAD c:/program files/microchip/xc32/v4.40/bin/bin/../../lib/gcc/pic32mx/8.3.1/../../../../pic32mx/lib/micromips\libdsp.a
LOAD c:/program files/microchip/xc32/v4.40/bin/bin/../../lib/gcc/pic32mx/8.3.1/micromips\libgcc.a
END GROUP
LOAD c:/program files/microchip/xc32/v4.40/bin/bin/../../lib/gcc/pic32mx/8.3.1/micromips\libgcc.a
OUTPUT(dist/default/debug/SPI.X_-_Copy.debug.elf elf32-tradlittlemips)
LOAD data_init
LOAD stack

.reginfo        0x0000000000000000       0x18
 .reginfo       0x0000000000000000       0x18 c:/program files/microchip/xc32/v4.40/bin/bin/../../lib/gcc/pic32mx/8.3.1/../../../../pic32mx/lib/micromips\debug-exception-return.o

__xc_reference_data
                0x0000000000000000       0x78
 __xc_reference_data
                0x0000000000000000       0x18 c:/program files/microchip/xc32/v4.40/bin/bin/../../lib/gcc/pic32mx/8.3.1/../../../../pic32mx/lib/micromips\libc-musl.a(stdout.o)
                0x0000000000000001                __stdout_needs_init
 __xc_reference_data
                0x0000000000000018       0x30 c:/program files/microchip/xc32/v4.40/bin/bin/../../lib/gcc/pic32mx/8.3.1/../../../../pic32mx/lib/micromips\libc-musl.a(__io_init_needed.o)
                0x0000000000000019                __io_init_needed
                0x0000000000000031                __io_init_needs_file
 __xc_reference_data
                0x0000000000000048       0x18 c:/program files/microchip/xc32/v4.40/bin/bin/../../lib/gcc/pic32mx/8.3.1/../../../../pic32mx/lib/micromips\libc-musl.a(putc.o)
                0x0000000000000049                __putc_needs_out
 __xc_reference_data
                0x0000000000000060       0x18 c:/program files/microchip/xc32/v4.40/bin/bin/../../lib/gcc/pic32mx/8.3.1/../../../../pic32mx/lib/micromips\libc-musl.a(__io_file_needed.o)
                0x0000000000000061                __io_file_needed

.stack          0x00000000800018e8      0x800
 .stack         0x00000000800018e8      0x800 stack

.data           0x0000000080000120       0x68
 .data          0x0000000080000120       0x68 c:/program files/microchip/xc32/v4.40/bin/bin/../../lib/gcc/pic32mx/8.3.1/../../../../pic32mx/lib/micromips\libc-musl.a(stdout.o)
                0x0000000080000120                __stdout_used

.data.sd003     0x0000000080000188       0x22
 .data.sd003    0x0000000080000188       0x22 build/default/debug/mcc_generated_files/usb/usb_descriptors.o
                0x0000000080000188                sd003

.data.Tick      0x00000000800001ac        0x9
 .data.Tick     0x00000000800001ac        0x9 build/default/debug/_ext/657024065/softWdt.o

.data._stdout   0x00000000800001b8        0x4
 .data._stdout  0x00000000800001b8        0x4 c:/program files/microchip/xc32/v4.40/bin/bin/../../lib/gcc/pic32mx/8.3.1/../../../../pic32mx/lib/micromips\libc-musl.a(stdout.o)
                0x00000000800001b8                _stdout

.bss.RxBuff     0x00000000800001bc      0x100
 .bss.RxBuff    0x00000000800001bc      0x100 build/default/debug/User/AppMain.o
                0x00000000800001bc                RxBuff

.bss.rxQueue    0x00000000800002bc       0xff
 .bss.rxQueue   0x00000000800002bc       0xff build/default/debug/mcc_generated_files/uart3.o

.bss.txQueue    0x00000000800003bc       0xff
 .bss.txQueue   0x00000000800003bc       0xff build/default/debug/mcc_generated_files/uart3.o

.bss.rxQueue    0x00000000800004bc       0xff
 .bss.rxQueue   0x00000000800004bc       0xff build/default/debug/mcc_generated_files/uart2.o

.bss.txQueue    0x00000000800005bc       0xff
 .bss.txQueue   0x00000000800005bc       0xff build/default/debug/mcc_generated_files/uart2.o

.bss.BDT        0x0000000080000800       0x60
 .bss.BDT       0x0000000080000800       0x60 build/default/debug/mcc_generated_files/usb/usb_device.o
                0x0000000080000800                BDT

.bss.VcpDbgTxBuf
                0x00000000800006bc       0x4c
 .bss.VcpDbgTxBuf
                0x00000000800006bc       0x4c build/default/debug/User/VCP_Debug.o

.bss.VcpDbgRxBuf
                0x0000000080000708       0x48
 .bss.VcpDbgRxBuf
                0x0000000080000708       0x48 build/default/debug/User/VCP_Debug.o

.bss.cdc_data_rx
                0x0000000080000750       0x40
 .bss.cdc_data_rx
                0x0000000080000750       0x40 build/default/debug/mcc_generated_files/usb/usb_device_cdc.o
                0x0000000080000750                cdc_data_rx

.bss.cdc_data_tx
                0x0000000080000790       0x40
 .bss.cdc_data_tx
                0x0000000080000790       0x40 build/default/debug/mcc_generated_files/usb/usb_device_cdc.o
                0x0000000080000790                cdc_data_tx

.bss.AppCxt     0x00000000800007d0       0x18
 .bss.AppCxt    0x00000000800007d0       0x18 build/default/debug/User/AppMain.o

.bss.__TaskCxt_softWDT_Tasks
                0x00000000800007e8       0x14
 .bss.__TaskCxt_softWDT_Tasks
                0x00000000800007e8       0x14 build/default/debug/_ext/657024065/softWdt.o
                0x00000000800007e8                __TaskCxt_softWDT_Tasks

.bss.__TaskCxt_VCP_Debug_Tasks
                0x0000000080000860       0x14
 .bss.__TaskCxt_VCP_Debug_Tasks
                0x0000000080000860       0x14 build/default/debug/User/VCP_Debug.o

.bss.inPipes    0x0000000080000878       0x10
 .bss.inPipes   0x0000000080000878       0x10 build/default/debug/mcc_generated_files/usb/usb_device.o
                0x0000000080000878                inPipes

.bss.pBDTEntryIn
                0x0000000080000888        0xc
 .bss.pBDTEntryIn
                0x0000000080000888        0xc build/default/debug/mcc_generated_files/usb/usb_device.o
                0x0000000080000888                pBDTEntryIn

.bss.pBDTEntryOut
                0x0000000080000894        0xc
 .bss.pBDTEntryOut
                0x0000000080000894        0xc build/default/debug/mcc_generated_files/usb/usb_device.o
                0x0000000080000894                pBDTEntryOut

.bss.outPipes   0x00000000800008a0        0xb
 .bss.outPipes  0x00000000800008a0        0xb build/default/debug/mcc_generated_files/usb/usb_device.o
                0x00000000800008a0                outPipes

.bss.cdc_notice
                0x00000000800008ac        0xa
 .bss.cdc_notice
                0x00000000800008ac        0xa build/default/debug/mcc_generated_files/usb/usb_device_cdc.o
                0x00000000800008ac                cdc_notice

.bss._digit     0x00000000800008b8        0xa
 .bss._digit    0x00000000800008b8        0xa build/default/debug/_ext/1124510853/Debug.o

.bss.RxTick     0x00000000800008c4        0x9
 .bss.RxTick    0x00000000800008c4        0x9 build/default/debug/User/AppMain.o
                0x00000000800008c4                RxTick

.bss.errno      0x00000000800007fc        0x4
 .bss.errno     0x00000000800007fc        0x4 c:/program files/microchip/xc32/v4.40/bin/bin/../../lib/gcc/pic32mx/8.3.1/../../../../pic32mx/lib/micromips\libpic32.a(errno.o)
                0x00000000800007fc                errno

.text.USBDeviceTasks
                0x000000009d001530      0xf14
 .text.USBDeviceTasks
                0x000000009d001530      0xf14 build/default/debug/mcc_generated_files/usb/usb_device.o
                0x000000009d001531                USBDeviceTasks

.text.main      0x000000009d002444      0x630
 .text.main     0x000000009d002444      0x630 build/default/debug/main.o
                0x000000009d002445                main

.text.__printf_core
                0x000000009d002a74      0x444
 .text.__printf_core
                0x000000009d002a74      0x444 c:/program files/microchip/xc32/v4.40/bin/bin/../../lib/gcc/pic32mx/8.3.1/../../../../pic32mx/lib/micromips\libc-musl.a(__printf_core.o)
                0x000000009d002a75                __printf_core

.dinit          0x000000009d002eb8      0x360
 .dinit         0x000000009d002eb8      0x360 data_init

.text.PIN_MANAGER_Initialize
                0x000000009d003218      0x320
 .text.PIN_MANAGER_Initialize
                0x000000009d003218      0x320 build/default/debug/mcc_generated_files/pin_manager.o
                0x000000009d003219                PIN_MANAGER_Initialize

.text           0x000000009d003538      0x624
 .text          0x000000009d003538      0x314 c:/program files/microchip/xc32/v4.40/bin/bin/../../lib/gcc/pic32mx/8.3.1/micromips\libgcc.a(_umoddi3.o)
                0x000000009d003539                __umoddi3
 .text          0x000000009d00384c      0x310 c:/program files/microchip/xc32/v4.40/bin/bin/../../lib/gcc/pic32mx/8.3.1/micromips\libgcc.a(_udivdi3.o)
                0x000000009d00384d                __udivdi3

.rodata.main.str1.4
                0x000000009d003b5c      0x2b8
 .rodata.main.str1.4
                0x000000009d003b5c      0x2b8 build/default/debug/main.o

.text.USBDeviceInit
                0x000000009d003e14      0x1dc
 .text.USBDeviceInit
                0x000000009d003e14      0x1dc build/default/debug/mcc_generated_files/usb/usb_device.o
                0x000000009d003e15                USBDeviceInit

.text.USBCheckCDCRequest
                0x000000009d003ff0      0x1cc
 .text.USBCheckCDCRequest
                0x000000009d003ff0      0x1cc build/default/debug/mcc_generated_files/usb/usb_device_cdc.o
                0x000000009d003ff1                USBCheckCDCRequest

.text.CDCTxService
                0x000000009d001000      0x180
 .text.CDCTxService
                0x000000009d001000      0x180 build/default/debug/mcc_generated_files/usb/usb_device_cdc.o
                0x000000009d001001                CDCTxService

.text._UART2_RX
                0x000000009d0041bc      0x178
 .text._UART2_RX
                0x000000009d0041bc      0x178 build/default/debug/mcc_generated_files/uart2.o
                0x000000009d0041bd                _UART2_RX

.text.INTERRUPT_Initialize
                0x000000009d004334      0x16c
 .text.INTERRUPT_Initialize
                0x000000009d004334      0x16c build/default/debug/mcc_generated_files/interrupt_manager.o
                0x000000009d004335                INTERRUPT_Initialize

.text._UART2_TX
                0x000000009d0044a0      0x15c
 .text._UART2_TX
                0x000000009d0044a0      0x15c build/default/debug/mcc_generated_files/uart2.o
                0x000000009d0044a1                _UART2_TX

.text           0x000000009d0045fc      0x150
 .text          0x000000009d0045fc      0x150 c:/program files/microchip/xc32/v4.40/bin/bin/../../lib/gcc/pic32mx/8.3.1/../../../../pic32mx/lib/micromips\libpic32.a(strcpy.o)
                0x000000009d0045fd                strcpy

.text.__fmt_x   0x000000009d00474c      0x150
 .text.__fmt_x  0x000000009d00474c      0x150 c:/program files/microchip/xc32/v4.40/bin/bin/../../lib/gcc/pic32mx/8.3.1/../../../../pic32mx/lib/micromips\libc-musl.a(__fmt_x.o)
                0x000000009d00474d                __fmt_x_needed
                0x000000009d00474d                __fmt_x

.text.APP_Main_Initialize
                0x000000009d00489c      0x148
 .text.APP_Main_Initialize
                0x000000009d00489c      0x148 build/default/debug/User/AppMain.o
                0x000000009d00489d                APP_Main_Initialize

.text.VCP_Debug_Tasks
                0x000000009d0049e4      0x128
 .text.VCP_Debug_Tasks
                0x000000009d0049e4      0x128 build/default/debug/User/VCP_Debug.o
                0x000000009d0049e5                VCP_Debug_Tasks

.text._CHANGE_NOTICE_C
                0x000000009d004b0c      0x120
 .text._CHANGE_NOTICE_C
                0x000000009d004b0c      0x120 build/default/debug/mcc_generated_files/pin_manager.o
                0x000000009d004b0d                _CHANGE_NOTICE_C

.text           0x000000009d004c2c      0x110
 .text          0x000000009d004c2c      0x110 c:/program files/microchip/xc32/v4.40/bin/bin/../../lib/gcc/pic32mx/8.3.1/../../../../pic32mx/lib/micromips\libpic32.a(strlen.o)
                0x000000009d004c2d                strlen

.text.USBCtrlTrfTxService
                0x000000009d004d3c      0x10c
 .text.USBCtrlTrfTxService
                0x000000009d004d3c      0x10c build/default/debug/mcc_generated_files/usb/usb_device.o

.text.getsUSBUSART_CMD
                0x000000009d004e48      0x108
 .text.getsUSBUSART_CMD
                0x000000009d004e48      0x108 build/default/debug/mcc_generated_files/usb/usb_device_cdc.o
                0x000000009d004e49                getsUSBUSART_CMD

.text._CHANGE_NOTICE_A
                0x000000009d004f50       0xfc
 .text._CHANGE_NOTICE_A
                0x000000009d004f50       0xfc build/default/debug/mcc_generated_files/pin_manager.o
                0x000000009d004f51                _CHANGE_NOTICE_A

.text.__pop_int
                0x000000009d00504c       0xfc
 .text.__pop_int
                0x000000009d00504c       0xfc c:/program files/microchip/xc32/v4.40/bin/bin/../../lib/gcc/pic32mx/8.3.1/../../../../pic32mx/lib/micromips\libc-musl.a(__pop_int.o)
                0x000000009d00504d                __pop_int_needed
                0x000000009d00504d                __pop_int

.text.USBCtrlEPAllowStatusStage
                0x000000009d005148       0xf8
 .text.USBCtrlEPAllowStatusStage
                0x000000009d005148       0xf8 build/default/debug/mcc_generated_files/usb/usb_device.o
                0x000000009d005149                USBCtrlEPAllowStatusStage

.text._CORE_TIMER_ISR
                0x000000009d005240       0xe8
 .text._CORE_TIMER_ISR
                0x000000009d005240       0xe8 build/default/debug/mcc_generated_files/coretimer.o
                0x000000009d005241                _CORE_TIMER_ISR

.text.USBCtrlEPAllowDataStage
                0x000000009d005328       0xdc
 .text.USBCtrlEPAllowDataStage
                0x000000009d005328       0xdc build/default/debug/mcc_generated_files/usb/usb_device.o
                0x000000009d005329                USBCtrlEPAllowDataStage

.text._CHANGE_NOTICE_B
                0x000000009d005404       0xd8
 .text._CHANGE_NOTICE_B
                0x000000009d005404       0xd8 build/default/debug/mcc_generated_files/pin_manager.o
                0x000000009d005405                _CHANGE_NOTICE_B

.text.__fmt_d   0x000000009d0054dc       0xcc
 .text.__fmt_d  0x000000009d0054dc       0xcc c:/program files/microchip/xc32/v4.40/bin/bin/../../lib/gcc/pic32mx/8.3.1/../../../../pic32mx/lib/micromips\libc-musl.a(__fmt_d.o)
                0x000000009d0054dd                __fmt_d
                0x000000009d0054dd                __fmt_d_needed

.text._UART3_TX
                0x000000009d0055a8       0xb8
 .text._UART3_TX
                0x000000009d0055a8       0xb8 build/default/debug/mcc_generated_files/uart3.o
                0x000000009d0055a9                _UART3_TX

.text._UART3_RX
                0x000000009d005660       0xb8
 .text._UART3_RX
                0x000000009d005660       0xb8 build/default/debug/mcc_generated_files/uart3.o
                0x000000009d005661                _UART3_RX

.text._I2C1_MASTER
                0x000000009d005718       0xb8
 .text._I2C1_MASTER
                0x000000009d005718       0xb8 build/default/debug/mcc_generated_files/i2c1_driver.o
                0x000000009d005719                _I2C1_MASTER

.text._I2C1_SLAVE
                0x000000009d0057d0       0xb8
 .text._I2C1_SLAVE
                0x000000009d0057d0       0xb8 build/default/debug/mcc_generated_files/i2c1_driver.o
                0x000000009d0057d1                _I2C1_SLAVE

.text._I2C1_BUS
                0x000000009d005888       0xb8
 .text._I2C1_BUS
                0x000000009d005888       0xb8 build/default/debug/mcc_generated_files/i2c1_driver.o
                0x000000009d005889                _I2C1_BUS

.text.APP_Main_Tasks
                0x000000009d005940       0xb8
 .text.APP_Main_Tasks
                0x000000009d005940       0xb8 build/default/debug/User/AppMain.o
                0x000000009d005941                APP_Main_Tasks

.text.USB_ISR   0x000000009d0059f8       0xb4
 .text.USB_ISR  0x000000009d0059f8       0xb4 build/default/debug/mcc_generated_files/usb/usb_device_events.o
                0x000000009d0059f9                USB_ISR

.text.debug_hex
                0x000000009d005aac       0xb4
 .text.debug_hex
                0x000000009d005aac       0xb4 build/default/debug/_ext/1124510853/Debug.o
                0x000000009d005aad                debug_hex

.text.UART2_Initialize
                0x000000009d005b60       0xb0
 .text.UART2_Initialize
                0x000000009d005b60       0xb0 build/default/debug/mcc_generated_files/uart2.o
                0x000000009d005b61                UART2_Initialize

.text.USBTransferOnePacket
                0x000000009d005c10       0xa8
 .text.USBTransferOnePacket
                0x000000009d005c10       0xa8 build/default/debug/mcc_generated_files/usb/usb_device.o
                0x000000009d005c11                USBTransferOnePacket

.text.UART3_Initialize
                0x000000009d005cb8       0xa8
 .text.UART3_Initialize
                0x000000009d005cb8       0xa8 build/default/debug/mcc_generated_files/uart3.o
                0x000000009d005cb9                UART3_Initialize

.text.__cvt_u   0x000000009d005d60       0xa8
 .text.__cvt_u  0x000000009d005d60       0xa8 c:/program files/microchip/xc32/v4.40/bin/bin/../../lib/gcc/pic32mx/8.3.1/../../../../pic32mx/lib/micromips\libc-musl.a(__cvt_u.o)
                0x000000009d005d61                __cvt_u

.text.debug_u32
                0x000000009d005e08       0xa4
 .text.debug_u32
                0x000000009d005e08       0xa4 build/default/debug/_ext/1124510853/Debug.o
                0x000000009d005e09                debug_u32

.text.__pop_ptr
                0x000000009d005eac       0x9c
 .text.__pop_ptr
                0x000000009d005eac       0x9c c:/program files/microchip/xc32/v4.40/bin/bin/../../lib/gcc/pic32mx/8.3.1/../../../../pic32mx/lib/micromips\libc-musl.a(__pop_ptr.o)
                0x000000009d005ead                __pop_ptr
                0x000000009d005ead                __pop_ptr_needed

.text.CDCInitEP
                0x000000009d005f48       0x98
 .text.CDCInitEP
                0x000000009d005f48       0x98 build/default/debug/mcc_generated_files/usb/usb_device_cdc.o
                0x000000009d005f49                CDCInitEP

.text.__pad     0x000000009d005fe0       0x98
 .text.__pad    0x000000009d005fe0       0x98 c:/program files/microchip/xc32/v4.40/bin/bin/../../lib/gcc/pic32mx/8.3.1/../../../../pic32mx/lib/micromips\libc-musl.a(__printf_core.o)
                0x000000009d005fe1                __pad

.text.UART3_Receive_ISR
                0x000000009d006078       0x8c
 .text.UART3_Receive_ISR
                0x000000009d006078       0x8c build/default/debug/mcc_generated_files/uart3.o
                0x000000009d006079                UART3_Receive_ISR

.text.Tick_Timer_Is_Over
                0x000000009d006104       0x8c
 .text.Tick_Timer_Is_Over
                0x000000009d006104       0x8c build/default/debug/_ext/657024065/TickTimer.o
                0x000000009d006105                Tick_Timer_Is_Over

.text.CLOCK_Initialize
                0x000000009d006190       0x88
 .text.CLOCK_Initialize
                0x000000009d006190       0x88 build/default/debug/mcc_generated_files/clock.o
                0x000000009d006191                CLOCK_Initialize

.text.USBEnableEndpoint
                0x000000009d006218       0x84
 .text.USBEnableEndpoint
                0x000000009d006218       0x84 build/default/debug/mcc_generated_files/usb/usb_device.o
                0x000000009d006219                USBEnableEndpoint

.text.softWDT_Isr
                0x000000009d00629c       0x84
 .text.softWDT_Isr
                0x000000009d00629c       0x84 build/default/debug/_ext/657024065/softWdt.o
                0x000000009d00629d                softWDT_Isr

.text.USBDeviceAttach
                0x000000009d006320       0x80
 .text.USBDeviceAttach
                0x000000009d006320       0x80 build/default/debug/mcc_generated_files/usb/usb_device.o
                0x000000009d006321                USBDeviceAttach

.text._UART3_ERR
                0x000000009d0063a0       0x80
 .text._UART3_ERR
                0x000000009d0063a0       0x80 build/default/debug/mcc_generated_files/uart3.o
                0x000000009d0063a1                _UART3_ERR

.text._UART2_ERR
                0x000000009d006420       0x80
 .text._UART2_ERR
                0x000000009d006420       0x80 build/default/debug/mcc_generated_files/uart2.o
                0x000000009d006421                _UART2_ERR

.rodata.HwInfo  0x000000009d0064a0       0x80
 .rodata.HwInfo
                0x000000009d0064a0       0x80 build/default/debug/main.o

.text.general_exception
                0x000000009d006520       0x80
 .text.general_exception
                0x000000009d006520       0x80 c:/program files/microchip/xc32/v4.40/bin/bin/../../lib/gcc/pic32mx/8.3.1/../../../../pic32mx/lib/micromips\libpic32.a(general-exception.o)
                0x000000009d006521                _general_exception_context

.text.UART3_Transmit_ISR
                0x000000009d0065a0       0x7c
 .text.UART3_Transmit_ISR
                0x000000009d0065a0       0x7c build/default/debug/mcc_generated_files/uart3.o
                0x000000009d0065a1                UART3_Transmit_ISR

.text           0x000000009d00661c       0x7c
 .text          0x000000009d00661c       0x7c c:/program files/microchip/xc32/v4.40/bin/bin/../../lib/gcc/pic32mx/8.3.1/../../../../pic32mx/lib/micromips\libpic32.a(memset.o)
                0x000000009d00661d                memset

.text.USB_Device_LoadUDID
                0x000000009d006698       0x78
 .text.USB_Device_LoadUDID
                0x000000009d006698       0x78 build/default/debug/mcc_generated_files/usb/usb_descriptors.o
                0x000000009d006699                USB_Device_LoadUDID

.text.get_res   0x000000009d006710       0x78
 .text.get_res  0x000000009d006710       0x78 build/default/debug/User/AppMain.o
                0x000000009d006711                get_res

.text.VCP_Debug_Write
                0x000000009d00118c       0x74
 .text.VCP_Debug_Write
                0x000000009d00118c       0x74 build/default/debug/User/VCP_Debug.o
                0x000000009d00118d                VCP_Debug_Write

.text.__stdio_close_rw
                0x000000009d006788       0x6c
 .text.__stdio_close_rw
                0x000000009d006788       0x6c c:/program files/microchip/xc32/v4.40/bin/bin/../../lib/gcc/pic32mx/8.3.1/../../../../pic32mx/lib/micromips\libc-musl.a(__stdio_close.o)
                0x000000009d006789                __stdio_close_rw

.text           0x000000009d0067f4       0x5c
 .text          0x000000009d0067f4       0x5c c:/program files/microchip/xc32/v4.40/bin/bin/../../lib/gcc/pic32mx/8.3.1/../../../../pic32mx/lib/micromips\libpic32.a(pic32_data_init_core.o)
                0x000000009d0067f5                __dinit_copy_emb
                0x000000009d0067f5                __dinit_copy_val_data
                0x000000009d0067f9                __pic32_data_init

.text.__fmt_s   0x000000009d006850       0x5c
 .text.__fmt_s  0x000000009d006850       0x5c c:/program files/microchip/xc32/v4.40/bin/bin/../../lib/gcc/pic32mx/8.3.1/../../../../pic32mx/lib/micromips\libc-musl.a(__fmt_s.o)
                0x000000009d006851                __fmt_s
                0x000000009d006851                __fmt_0_needed
                0x000000009d006851                __fmt_s_needed

.text.atoi      0x000000009d0068ac       0x58
 .text.atoi     0x000000009d0068ac       0x58 c:/program files/microchip/xc32/v4.40/bin/bin/../../lib/gcc/pic32mx/8.3.1/../../../../pic32mx/lib/micromips\libc-musl.a(atoi.o)
                0x000000009d0068ad                atoi

.text.UART3_Write
                0x000000009d006904       0x50
 .text.UART3_Write
                0x000000009d006904       0x50 build/default/debug/mcc_generated_files/uart3.o
                0x000000009d006905                UART3_Write

.text.UART2_Write
                0x000000009d006954       0x50
 .text.UART2_Write
                0x000000009d006954       0x50 build/default/debug/mcc_generated_files/uart2.o
                0x000000009d006955                UART2_Write

.text.str_1st_contain
                0x000000009d0069a4       0x50
 .text.str_1st_contain
                0x000000009d0069a4       0x50 build/default/debug/_ext/1124510853/Utils.o
                0x000000009d0069a5                str_1st_contain

.text.send_cmd  0x000000009d0069f4       0x50
 .text.send_cmd
                0x000000009d0069f4       0x50 build/default/debug/User/AppMain.o
                0x000000009d0069f5                send_cmd

.rodata.configDescriptor1
                0x000000009d006a44       0x4c
 .rodata.configDescriptor1
                0x000000009d006a44       0x4c build/default/debug/mcc_generated_files/usb/usb_descriptors.o
                0x000000009d006a44                configDescriptor1

.text.Gpio_Set  0x000000009d006a90       0x4c
 .text.Gpio_Set
                0x000000009d006a90       0x4c build/default/debug/_ext/657024065/PIC32MM_Gpio.o
                0x000000009d006a91                Gpio_Set

.text.__out     0x000000009d006adc       0x4c
 .text.__out    0x000000009d006adc       0x4c c:/program files/microchip/xc32/v4.40/bin/bin/../../lib/gcc/pic32mx/8.3.1/../../../../pic32mx/lib/micromips\libc-musl.a(__out.o)
                0x000000009d006add                __out
                0x000000009d006add                __out_needed

.text.write     0x000000009d006b28       0x4c
 .text.write    0x000000009d006b28       0x4c c:/program files/microchip/xc32/v4.40/bin/bin/../../lib/gcc/pic32mx/8.3.1/../../../../pic32mx/lib/micromips\libpic32.a(write.o)
                0x000000009d006b29                write

.text.putUSBUSART
                0x000000009d006b74       0x48
 .text.putUSBUSART
                0x000000009d006b74       0x48 build/default/debug/mcc_generated_files/usb/usb_device_cdc.o
                0x000000009d006b75                putUSBUSART

.text.softWDT_Tasks
                0x000000009d006bbc       0x48
 .text.softWDT_Tasks
                0x000000009d006bbc       0x48 build/default/debug/_ext/657024065/softWdt.o
                0x000000009d006bbd                softWDT_Tasks

.rodata.APP_Main_Initialize.str1.4
                0x000000009d006c04       0x48
 .rodata.APP_Main_Initialize.str1.4
                0x000000009d006c04       0x48 build/default/debug/User/AppMain.o

.text.CORETIMER_Initialize
                0x000000009d006c4c       0x44
 .text.CORETIMER_Initialize
                0x000000009d006c4c       0x44 build/default/debug/mcc_generated_files/coretimer.o
                0x000000009d006c4d                CORETIMER_Initialize

.text.main_entry
                0x000000009d006c90       0x44
 .text.main_entry
                0x000000009d006c90       0x44 C:\Users\ADMIN\AppData\Local\Temp\ccMUuKnQ.o
                0x000000009d006cbb                __crt0_exit

.text           0x000000009d006cd4       0x40
 .text          0x000000009d006cd4       0x40 c:/program files/microchip/xc32/v4.40/bin/bin/../../lib/gcc/pic32mx/8.3.1/../../../../pic32mx/lib/micromips\pic32_software_reset.o
                0x000000009d006cd5                __pic32_software_reset

.text.debug_systime_stamp
                0x000000009d006d14       0x3c
 .text.debug_systime_stamp
                0x000000009d006d14       0x3c build/default/debug/_ext/1124510853/Debug.o
                0x000000009d006d15                debug_systime_stamp

.text.softWDT_Enable
                0x000000009d006d50       0x3c
 .text.softWDT_Enable
                0x000000009d006d50       0x3c build/default/debug/_ext/657024065/softWdt.o
                0x000000009d006d51                softWDT_Enable

.text           0x000000009d006d8c       0x3c
 .text          0x000000009d006d8c       0x3c c:/program files/microchip/xc32/v4.40/bin/bin/../../lib/gcc/pic32mx/8.3.1/../../../../pic32mx/lib/micromips\libpic32.a(pic32_data_init_decompress.o)
                0x000000009d006d8d                __dinit_decompress
                0x000000009d006d8d                __dinit_decompress_needed

.text.DTRPin_SetHandler
                0x000000009d006dc8       0x38
 .text.DTRPin_SetHandler
                0x000000009d006dc8       0x38 build/default/debug/mcc_generated_files/usb/usb_device_cdc.o
                0x000000009d006dc9                DTRPin_SetHandler

.text.SYSTEM_Initialize
                0x000000009d006e00       0x38
 .text.SYSTEM_Initialize
                0x000000009d006e00       0x38 build/default/debug/mcc_generated_files/system.o
                0x000000009d006e01                SYSTEM_Initialize

.text.VCP_Debug_Init
                0x000000009d006e38       0x38
 .text.VCP_Debug_Init
                0x000000009d006e38       0x38 build/default/debug/User/VCP_Debug.o
                0x000000009d006e39                VCP_Debug_Init

.text.__fmt_state
                0x000000009d006e70       0x38
 .text.__fmt_state
                0x000000009d006e70       0x38 c:/program files/microchip/xc32/v4.40/bin/bin/../../lib/gcc/pic32mx/8.3.1/../../../../pic32mx/lib/micromips\libc-musl.a(__printf_core.o)
                0x000000009d006e71                __fmt_state

.text.USBIncrement1msInternalTimers
                0x000000009d006ea8       0x34
 .text.USBIncrement1msInternalTimers
                0x000000009d006ea8       0x34 build/default/debug/mcc_generated_files/usb/usb_device.o
                0x000000009d006ea9                USBIncrement1msInternalTimers

.text.UART2_Read
                0x000000009d006edc       0x34
 .text.UART2_Read
                0x000000009d006edc       0x34 build/default/debug/mcc_generated_files/uart2.o
                0x000000009d006edd                UART2_Read

.text._bootstrap_exception_handler
                0x000000009d006f10       0x34
 .text._bootstrap_exception_handler
                0x000000009d006f10       0x34 c:/program files/microchip/xc32/v4.40/bin/bin/../../lib/gcc/pic32mx/8.3.1/../../../../pic32mx/lib/micromips\libpic32.a(default-bootstrap-exception-handler.o)
                0x000000009d006f11                _bootstrap_exception_handler

.text.USER_USB_CALLBACK_EVENT_HANDLER
                0x000000009d006f44       0x30
 .text.USER_USB_CALLBACK_EVENT_HANDLER
                0x000000009d006f44       0x30 build/default/debug/mcc_generated_files/usb/usb_device_events.o
                0x000000009d006f45                USER_USB_CALLBACK_EVENT_HANDLER

.text.softWDT_SetLedIndicator
                0x000000009d006f74       0x30
 .text.softWDT_SetLedIndicator
                0x000000009d006f74       0x30 build/default/debug/_ext/657024065/softWdt.o
                0x000000009d006f75                softWDT_SetLedIndicator

.vector_default
                0x000000009d006fa4       0x30
 .vector_default
                0x000000009d006fa4       0x30 c:/program files/microchip/xc32/v4.40/bin/bin/../../lib/gcc/pic32mx/8.3.1/../../../../pic32mx/lib/micromips\libpic32.a(defaultinterrupt.o)
                0x000000009d006fa5                _DefaultInterrupt

.text.__pop_float
                0x000000009d006fd4       0x30
 .text.__pop_float
                0x000000009d006fd4       0x30 c:/program files/microchip/xc32/v4.40/bin/bin/../../lib/gcc/pic32mx/8.3.1/../../../../pic32mx/lib/micromips\libc-musl.a(__pop_float.o)
                0x000000009d006fd5                __pop_float_needed
                0x000000009d006fd5                __pop_float

.text.TaskManager_Add_Task
                0x000000009d007004       0x2c
 .text.TaskManager_Add_Task
                0x000000009d007004       0x2c build/default/debug/_ext/657024065/TaskManager.o
                0x000000009d007005                TaskManager_Add_Task

.text.UART3_IsTxReady
                0x000000009d007030       0x28
 .text.UART3_IsTxReady
                0x000000009d007030       0x28 build/default/debug/mcc_generated_files/uart3.o
                0x000000009d007031                UART3_IsTxReady

.text.UART2_IsTxReady
                0x000000009d007058       0x28
 .text.UART2_IsTxReady
                0x000000009d007058       0x28 build/default/debug/mcc_generated_files/uart2.o
                0x000000009d007059                UART2_IsTxReady

.text.debug     0x000000009d007080       0x28
 .text.debug    0x000000009d007080       0x28 build/default/debug/_ext/1124510853/Debug.o
                0x000000009d007081                debug

.text.__wrap_printf
                0x000000009d0070a8       0x28
 .text.__wrap_printf
                0x000000009d0070a8       0x28 c:/program files/microchip/xc32/v4.40/bin/bin/../../lib/gcc/pic32mx/8.3.1/../../../../pic32mx/lib/micromips\libc-musl.a(__sio_printf_cdnpsxX.o)
                0x000000009d0070a9                _printf_cdnpsxX
                0x000000009d0070a9                _dprintf_cdnpsxX

.text.LIGHT_INT_SetInterruptHandler
                0x000000009d0070d0       0x24
 .text.LIGHT_INT_SetInterruptHandler
                0x000000009d0070d0       0x24 build/default/debug/mcc_generated_files/pin_manager.o
                0x000000009d0070d1                LIGHT_INT_SetInterruptHandler

.text.ACC_INT1_SetInterruptHandler
                0x000000009d0070f4       0x24
 .text.ACC_INT1_SetInterruptHandler
                0x000000009d0070f4       0x24 build/default/debug/mcc_generated_files/pin_manager.o
                0x000000009d0070f5                ACC_INT1_SetInterruptHandler

.text.TEMP_INT_SetInterruptHandler
                0x000000009d007118       0x24
 .text.TEMP_INT_SetInterruptHandler
                0x000000009d007118       0x24 build/default/debug/mcc_generated_files/pin_manager.o
                0x000000009d007119                TEMP_INT_SetInterruptHandler

.text.UNO_INT1_SetInterruptHandler
                0x000000009d00713c       0x24
 .text.UNO_INT1_SetInterruptHandler
                0x000000009d00713c       0x24 build/default/debug/mcc_generated_files/pin_manager.o
                0x000000009d00713d                UNO_INT1_SetInterruptHandler

.text.ACC_INT2_SetInterruptHandler
                0x000000009d007160       0x24
 .text.ACC_INT2_SetInterruptHandler
                0x000000009d007160       0x24 build/default/debug/mcc_generated_files/pin_manager.o
                0x000000009d007161                ACC_INT2_SetInterruptHandler

.text.UNO_INT0_SetInterruptHandler
                0x000000009d007184       0x24
 .text.UNO_INT0_SetInterruptHandler
                0x000000009d007184       0x24 build/default/debug/mcc_generated_files/pin_manager.o
                0x000000009d007185                UNO_INT0_SetInterruptHandler

.text.slen      0x000000009d0071a8       0x24
 .text.slen     0x000000009d0071a8       0x24 build/default/debug/_ext/1124510853/Utils.o
                0x000000009d0071a9                slen

.rodata.sd002   0x000000009d0071cc       0x20
 .rodata.sd002  0x000000009d0071cc       0x20 build/default/debug/mcc_generated_files/usb/usb_descriptors.o
                0x000000009d0071cc                sd002

.rodata.sd001   0x000000009d0071ec       0x20
 .rodata.sd001  0x000000009d0071ec       0x20 build/default/debug/mcc_generated_files/usb/usb_descriptors.o
                0x000000009d0071ec                sd001

.text.str_1st_index
                0x000000009d00720c       0x20
 .text.str_1st_index
                0x000000009d00720c       0x20 build/default/debug/_ext/1124510853/Utils.o
                0x000000009d00720d                str_1st_index

.text.__vfprintf
                0x000000009d00722c       0x20
 .text.__vfprintf
                0x000000009d00722c       0x20 c:/program files/microchip/xc32/v4.40/bin/bin/../../lib/gcc/pic32mx/8.3.1/../../../../pic32mx/lib/micromips\libc-musl.a(__int_vfprintf.o)
                0x000000009d00722d                __vfprintf

.text._mon_putc
                0x000000009d00724c       0x1c
 .text._mon_putc
                0x000000009d00724c       0x1c build/default/debug/mcc_generated_files/uart3.o
                0x000000009d00724d                _mon_putc

.text._general_exception_handler
                0x000000009d007268       0x1c
 .text._general_exception_handler
                0x000000009d007268       0x1c build/default/debug/mcc_generated_files/exceptions.o
                0x000000009d007269                _general_exception_handler

.text.UART2_IsTxDone
                0x000000009d007284       0x1c
 .text.UART2_IsTxDone
                0x000000009d007284       0x1c build/default/debug/mcc_generated_files/uart2.o
                0x000000009d007285                UART2_IsTxDone

.text.dbsh      0x000000009d0072a0       0x1c
 .text.dbsh     0x000000009d0072a0       0x1c build/default/debug/_ext/1124510853/Debug.o
                0x000000009d0072a1                dbsh

.text.str_1st_contain_idx
                0x000000009d0072bc       0x1c
 .text.str_1st_contain_idx
                0x000000009d0072bc       0x1c build/default/debug/_ext/1124510853/Utils.o
                0x000000009d0072bd                str_1st_contain_idx

.rodata.APP_Main_Tasks.str1.4
                0x000000009d0072d8       0x1c
 .rodata.APP_Main_Tasks.str1.4
                0x000000009d0072d8       0x1c build/default/debug/User/AppMain.o

.text           0x000000009d0072f4       0x1c
 .text          0x000000009d0072f4       0x1c c:/program files/microchip/xc32/v4.40/bin/bin/../../lib/gcc/pic32mx/8.3.1/../../../../pic32mx/lib/micromips\libpic32.a(pic32_data_init_copy.o)
                0x000000009d0072f5                __dinit_copy_needed
                0x000000009d0072f5                __dinit_copy

.MIPS.abiflags  0x000000009d007310       0x18
 .MIPS.abiflags
                0x000000009d007310       0x18 c:/program files/microchip/xc32/v4.40/bin/bin/../../lib/gcc/pic32mx/8.3.1/../../../../pic32mx/lib/micromips\debug-exception-return.o

.text           0x000000009d007328       0x18
 .text          0x000000009d007328       0x18 c:/program files/microchip/xc32/v4.40/bin/bin/../../lib/gcc/pic32mx/8.3.1/../../../../pic32mx/lib/micromips\libpic32.a(default-nmi-handler.o)
                0x000000009d007329                _nmi_handler

.rodata         0x000000009d007340       0x18
 .rodata        0x000000009d007340       0x18 c:/program files/microchip/xc32/v4.40/bin/bin/../../lib/gcc/pic32mx/8.3.1/../../../../pic32mx/lib/micromips\libc-musl.a(__printf_core.o)

.text.memcpy    0x000000009d007358       0x18
 .text.memcpy   0x000000009d007358       0x18 c:/program files/microchip/xc32/v4.40/bin/bin/../../lib/gcc/pic32mx/8.3.1/../../../../pic32mx/lib/micromips\libc-musl.a(memcpy.o)
                0x000000009d007359                memcpy

.rodata.device_dsc
                0x000000009d007370       0x14
 .rodata.device_dsc
                0x000000009d007370       0x14 build/default/debug/mcc_generated_files/usb/usb_descriptors.o
                0x000000009d007370                device_dsc

.text.Bcd2AHex  0x000000009d007384       0x14
 .text.Bcd2AHex
                0x000000009d007384       0x14 build/default/debug/_ext/1124510853/Utils.o
                0x000000009d007385                Bcd2AHex

.rodata         0x000000009d007398       0x14
 .rodata        0x000000009d007398       0x14 c:/program files/microchip/xc32/v4.40/bin/bin/../../lib/gcc/pic32mx/8.3.1/../../../../pic32mx/lib/micromips\libpic32.a(pic32_data_init_core.o)

.text.tolower   0x000000009d0073ac       0x14
 .text.tolower  0x000000009d0073ac       0x14 c:/program files/microchip/xc32/v4.40/bin/bin/../../lib/gcc/pic32mx/8.3.1/../../../../pic32mx/lib/micromips\libc-musl.a(tolower.o)
                0x000000009d0073ad                tolower

.text.toupper   0x000000009d0073c0       0x14
 .text.toupper  0x000000009d0073c0       0x14 c:/program files/microchip/xc32/v4.40/bin/bin/../../lib/gcc/pic32mx/8.3.1/../../../../pic32mx/lib/micromips\libc-musl.a(toupper.o)
                0x000000009d0073c1                toupper

.text.__fwrite_min
                0x000000009d0073d4       0x14
 .text.__fwrite_min
                0x000000009d0073d4       0x14 c:/program files/microchip/xc32/v4.40/bin/bin/../../lib/gcc/pic32mx/8.3.1/../../../../pic32mx/lib/micromips\libc-musl.a(__out.o)
                0x000000009d0073d5                __fwrite
                0x000000009d0073d5                __stdio_write_unbuffered
                0x000000009d0073d5                __stdio_write

.text.debug_port_write
                0x000000009d0073e8       0x10
 .text.debug_port_write
                0x000000009d0073e8       0x10 build/default/debug/Cfg/Debug_Cfg.o
                0x000000009d0073e9                debug_port_write

.rodata.USB_SD_Ptr
                0x000000009d0073f8       0x10
 .rodata.USB_SD_Ptr
                0x000000009d0073f8       0x10 build/default/debug/mcc_generated_files/usb/usb_descriptors.o
                0x000000009d0073f8                USB_SD_Ptr

.text.UART2_IsRxReady
                0x000000009d007408       0x10
 .text.UART2_IsRxReady
                0x000000009d007408       0x10 build/default/debug/mcc_generated_files/uart2.o
                0x000000009d007409                UART2_IsRxReady

.text.VCP_Init  0x000000009d007418       0x10
 .text.VCP_Init
                0x000000009d007418       0x10 build/default/debug/User/VCP.o
                0x000000009d007419                VCP_Init

.text.DTRPinHandler
                0x000000009d007428       0x10
 .text.DTRPinHandler
                0x000000009d007428       0x10 build/default/debug/User/VCP_Debug.o

.text           0x000000009d007438       0x10
 .text          0x000000009d007438       0x10 c:/program files/microchip/xc32/v4.40/bin/bin/../../lib/gcc/pic32mx/8.3.1/../../../../pic32mx/lib/micromips\libpic32.a(pic32_data_init_clear.o)
                0x000000009d007439                __dinit_clear
                0x000000009d007439                __dinit_clear_needed

.rodata.send_cmd.str1.4
                0x000000009d007448        0xc
 .rodata.send_cmd.str1.4
                0x000000009d007448        0xc build/default/debug/User/AppMain.o

.rodata.get_res.str1.4
                0x000000009d007454        0xc
 .rodata.get_res.str1.4
                0x000000009d007454        0xc build/default/debug/User/AppMain.o

.rodata.str1.4  0x000000009d007460        0xc
 .rodata.str1.4
                0x000000009d007460        0xc c:/program files/microchip/xc32/v4.40/bin/bin/../../lib/gcc/pic32mx/8.3.1/../../../../pic32mx/lib/micromips\libc-musl.a(__printf_core.o)

.text.CORETIMER_SetInterruptHandler
                0x000000009d00746c        0x8
 .text.CORETIMER_SetInterruptHandler
                0x000000009d00746c        0x8 build/default/debug/mcc_generated_files/coretimer.o
                0x000000009d00746d                CORETIMER_SetInterruptHandler

.text.softWDT_SetCbBeforeReset
                0x000000009d007474        0x8
 .text.softWDT_SetCbBeforeReset
                0x000000009d007474        0x8 build/default/debug/_ext/657024065/softWdt.o
                0x000000009d007475                softWDT_SetCbBeforeReset

.text.Tick_Timer_SetFncCallInDelay
                0x000000009d00747c        0x8
 .text.Tick_Timer_SetFncCallInDelay
                0x000000009d00747c        0x8 build/default/debug/_ext/657024065/TickTimer.o
                0x000000009d00747d                Tick_Timer_SetFncCallInDelay

.rodata.USB_CD_Ptr
                0x000000009d007484        0x4
 .rodata.USB_CD_Ptr
                0x000000009d007484        0x4 build/default/debug/mcc_generated_files/usb/usb_descriptors.o
                0x000000009d007484                USB_CD_Ptr

.rodata.sd000   0x000000009d007488        0x4
 .rodata.sd000  0x000000009d007488        0x4 build/default/debug/mcc_generated_files/usb/usb_descriptors.o
                0x000000009d007488                sd000

.text.DTRPin_DefaultHandler
                0x000000009d00748c        0x4
 .text.DTRPin_DefaultHandler
                0x000000009d00748c        0x4 build/default/debug/mcc_generated_files/usb/usb_device_cdc.o

.text.CTSPin_DefaultHandler
                0x000000009d007490        0x4
 .text.CTSPin_DefaultHandler
                0x000000009d007490        0x4 build/default/debug/mcc_generated_files/usb/usb_device_cdc.o

.text.USB_CDC_DefaultLineCodingHandler
                0x000000009d007494        0x4
 .text.USB_CDC_DefaultLineCodingHandler
                0x000000009d007494        0x4 build/default/debug/mcc_generated_files/usb/usb_device_cdc.o

.text.LIGHT_INT_CallBack
                0x000000009d007498        0x4
 .text.LIGHT_INT_CallBack
                0x000000009d007498        0x4 build/default/debug/mcc_generated_files/pin_manager.o
                0x000000009d007499                LIGHT_INT_CallBack

.text.ACC_INT1_CallBack
                0x000000009d00749c        0x4
 .text.ACC_INT1_CallBack
                0x000000009d00749c        0x4 build/default/debug/mcc_generated_files/pin_manager.o
                0x000000009d00749d                ACC_INT1_CallBack

.text.TEMP_INT_CallBack
                0x000000009d0074a0        0x4
 .text.TEMP_INT_CallBack
                0x000000009d0074a0        0x4 build/default/debug/mcc_generated_files/pin_manager.o
                0x000000009d0074a1                TEMP_INT_CallBack

.text.UNO_INT1_CallBack
                0x000000009d0074a4        0x4
 .text.UNO_INT1_CallBack
                0x000000009d0074a4        0x4 build/default/debug/mcc_generated_files/pin_manager.o
                0x000000009d0074a5                UNO_INT1_CallBack

.text.ACC_INT2_CallBack
                0x000000009d0074a8        0x4
 .text.ACC_INT2_CallBack
                0x000000009d0074a8        0x4 build/default/debug/mcc_generated_files/pin_manager.o
                0x000000009d0074a9                ACC_INT2_CallBack

.text.UNO_INT0_CallBack
                0x000000009d0074ac        0x4
 .text.UNO_INT0_CallBack
                0x000000009d0074ac        0x4 build/default/debug/mcc_generated_files/pin_manager.o
                0x000000009d0074ad                UNO_INT0_CallBack

.text.UART2_Transmit_CallBack
                0x000000009d0074b0        0x4
 .text.UART2_Transmit_CallBack
                0x000000009d0074b0        0x4 build/default/debug/mcc_generated_files/uart2.o
                0x000000009d0074b1                UART2_Transmit_CallBack

.text.UART2_Receive_CallBack
                0x000000009d0074b4        0x4
 .text.UART2_Receive_CallBack
                0x000000009d0074b4        0x4 build/default/debug/mcc_generated_files/uart2.o
                0x000000009d0074b5                UART2_Receive_CallBack

.text._on_reset
                0x000000009d0074b8        0x4
 .text._on_reset
                0x000000009d0074b8        0x4 c:/program files/microchip/xc32/v4.40/bin/bin/../../lib/gcc/pic32mx/8.3.1/../../../../pic32mx/lib/micromips\libpic32.a(default-on-reset.o)
                0x000000009d0074b9                _on_reset

.text._on_bootstrap
                0x000000009d0074bc        0x4
 .text._on_bootstrap
                0x000000009d0074bc        0x4 c:/program files/microchip/xc32/v4.40/bin/bin/../../lib/gcc/pic32mx/8.3.1/../../../../pic32mx/lib/micromips\libpic32.a(default-on-bootstrap.o)
                0x000000009d0074bd                _on_bootstrap

.text.__dummy_fmt3
                0x000000009d0074c0        0x4
 .text.__dummy_fmt3
                0x000000009d0074c0        0x4 c:/program files/microchip/xc32/v4.40/bin/bin/../../lib/gcc/pic32mx/8.3.1/../../../../pic32mx/lib/micromips\libc-musl.a(__printf_core.o)
                0x000000009d0074c1                __fmt_o
                0x000000009d0074c1                __fmt_u

.text.__dummy_fmt4
                0x000000009d0074c4        0x4
 .text.__dummy_fmt4
                0x000000009d0074c4        0x4 c:/program files/microchip/xc32/v4.40/bin/bin/../../lib/gcc/pic32mx/8.3.1/../../../../pic32mx/lib/micromips\libc-musl.a(__printf_core.o)
                0x000000009d0074c5                __fmt_fp
                0x000000009d0074c5                __fmt_a

.text.__dummy   0x000000009d0074c8        0x4
 .text.__dummy  0x000000009d0074c8        0x4 c:/program files/microchip/xc32/v4.40/bin/bin/../../lib/gcc/pic32mx/8.3.1/../../../../pic32mx/lib/micromips\libc-musl.a(stdout.o)
                0x000000009d0074c9                __stdio_seek

.text.lseek     0x000000009d0074cc        0x4
 .text.lseek    0x000000009d0074cc        0x4 c:/program files/microchip/xc32/v4.40/bin/bin/../../lib/gcc/pic32mx/8.3.1/../../../../pic32mx/lib/micromips\libpic32.a(lseek.o)
                0x000000009d0074cd                lseek

.text.close     0x000000009d0074d0        0x4
 .text.close    0x000000009d0074d0        0x4 c:/program files/microchip/xc32/v4.40/bin/bin/../../lib/gcc/pic32mx/8.3.1/../../../../pic32mx/lib/micromips\libpic32.a(close.o)
                0x000000009d0074d1                close
